
Ethernet_to_Serial.elf:     file format elf32-avr

Sections:
Idx Name          Size      VMA       LMA       File off  Algn
  0 .data         000004b6  00800200  000069f4  00006aa8  2**0
                  CONTENTS, ALLOC, LOAD, DATA
  1 .text         000069f4  00000000  00000000  000000b4  2**1
                  CONTENTS, ALLOC, LOAD, READONLY, CODE
  2 .bss          00000e56  008006b6  008006b6  00006f5e  2**0
                  ALLOC
  3 .eeprom       00000011  00810000  00810000  00006f5e  2**0
                  CONTENTS, ALLOC, LOAD, DATA
  4 .comment      0000005c  00000000  00000000  00006f6f  2**0
                  CONTENTS, READONLY
  5 .debug_aranges 00000810  00000000  00000000  00006fcb  2**0
                  CONTENTS, READONLY, DEBUGGING
  6 .debug_info   0000c933  00000000  00000000  000077db  2**0
                  CONTENTS, READONLY, DEBUGGING
  7 .debug_abbrev 00000980  00000000  00000000  0001410e  2**0
                  CONTENTS, READONLY, DEBUGGING
  8 .debug_line   00005e65  00000000  00000000  00014a8e  2**0
                  CONTENTS, READONLY, DEBUGGING
  9 .debug_frame  00001eac  00000000  00000000  0001a8f4  2**2
                  CONTENTS, READONLY, DEBUGGING
 10 .debug_str    000026cb  00000000  00000000  0001c7a0  2**0
                  CONTENTS, READONLY, DEBUGGING
 11 .debug_loc    0000da4a  00000000  00000000  0001ee6b  2**0
                  CONTENTS, READONLY, DEBUGGING
 12 .debug_ranges 00000ba8  00000000  00000000  0002c8b5  2**0
                  CONTENTS, READONLY, DEBUGGING

Disassembly of section .text:

00000000 <__vectors>:
       0:	d8 c1       	rjmp	.+944    	; 0x3b2 <__ctors_end>
       2:	00 00       	nop
       4:	f7 c1       	rjmp	.+1006   	; 0x3f4 <__bad_interrupt>
       6:	00 00       	nop
       8:	f5 c1       	rjmp	.+1002   	; 0x3f4 <__bad_interrupt>
       a:	00 00       	nop
       c:	f3 c1       	rjmp	.+998    	; 0x3f4 <__bad_interrupt>
       e:	00 00       	nop
      10:	f1 c1       	rjmp	.+994    	; 0x3f4 <__bad_interrupt>
      12:	00 00       	nop
      14:	ef c1       	rjmp	.+990    	; 0x3f4 <__bad_interrupt>
      16:	00 00       	nop
      18:	ed c1       	rjmp	.+986    	; 0x3f4 <__bad_interrupt>
      1a:	00 00       	nop
      1c:	eb c1       	rjmp	.+982    	; 0x3f4 <__bad_interrupt>
      1e:	00 00       	nop
      20:	e9 c1       	rjmp	.+978    	; 0x3f4 <__bad_interrupt>
      22:	00 00       	nop
      24:	e7 c1       	rjmp	.+974    	; 0x3f4 <__bad_interrupt>
      26:	00 00       	nop
      28:	e5 c1       	rjmp	.+970    	; 0x3f4 <__bad_interrupt>
      2a:	00 00       	nop
      2c:	e3 c1       	rjmp	.+966    	; 0x3f4 <__bad_interrupt>
      2e:	00 00       	nop
      30:	e1 c1       	rjmp	.+962    	; 0x3f4 <__bad_interrupt>
      32:	00 00       	nop
      34:	0c 94 08 0b 	jmp	0x1610	; 0x1610 <__vector_13>
      38:	dd c1       	rjmp	.+954    	; 0x3f4 <__bad_interrupt>
      3a:	00 00       	nop
      3c:	db c1       	rjmp	.+950    	; 0x3f4 <__bad_interrupt>
      3e:	00 00       	nop
      40:	d9 c1       	rjmp	.+946    	; 0x3f4 <__bad_interrupt>
      42:	00 00       	nop
      44:	0c 94 ea 08 	jmp	0x11d4	; 0x11d4 <__vector_17>
      48:	d5 c1       	rjmp	.+938    	; 0x3f4 <__bad_interrupt>
      4a:	00 00       	nop
      4c:	d3 c1       	rjmp	.+934    	; 0x3f4 <__bad_interrupt>
      4e:	00 00       	nop
      50:	d1 c1       	rjmp	.+930    	; 0x3f4 <__bad_interrupt>
      52:	00 00       	nop
      54:	0c 94 d6 0a 	jmp	0x15ac	; 0x15ac <__vector_21>
      58:	cd c1       	rjmp	.+922    	; 0x3f4 <__bad_interrupt>
      5a:	00 00       	nop
      5c:	cb c1       	rjmp	.+918    	; 0x3f4 <__bad_interrupt>
      5e:	00 00       	nop
      60:	c9 c1       	rjmp	.+914    	; 0x3f4 <__bad_interrupt>
      62:	00 00       	nop
      64:	0c 94 4b 17 	jmp	0x2e96	; 0x2e96 <__vector_25>
      68:	0c 94 9e 17 	jmp	0x2f3c	; 0x2f3c <__vector_26>
      6c:	0c 94 75 17 	jmp	0x2eea	; 0x2eea <__vector_27>
      70:	c1 c1       	rjmp	.+898    	; 0x3f4 <__bad_interrupt>
      72:	00 00       	nop
      74:	bf c1       	rjmp	.+894    	; 0x3f4 <__bad_interrupt>
      76:	00 00       	nop
      78:	bd c1       	rjmp	.+890    	; 0x3f4 <__bad_interrupt>
      7a:	00 00       	nop
      7c:	bb c1       	rjmp	.+886    	; 0x3f4 <__bad_interrupt>
      7e:	00 00       	nop
      80:	b9 c1       	rjmp	.+882    	; 0x3f4 <__bad_interrupt>
      82:	00 00       	nop
      84:	b7 c1       	rjmp	.+878    	; 0x3f4 <__bad_interrupt>
      86:	00 00       	nop
      88:	b5 c1       	rjmp	.+874    	; 0x3f4 <__bad_interrupt>
      8a:	00 00       	nop
      8c:	b3 c1       	rjmp	.+870    	; 0x3f4 <__bad_interrupt>
      8e:	00 00       	nop
      90:	0c 94 c7 17 	jmp	0x2f8e	; 0x2f8e <__vector_36>
      94:	0c 94 1a 18 	jmp	0x3034	; 0x3034 <__vector_37>
      98:	0c 94 f1 17 	jmp	0x2fe2	; 0x2fe2 <__vector_38>
      9c:	ab c1       	rjmp	.+854    	; 0x3f4 <__bad_interrupt>
      9e:	00 00       	nop
      a0:	a9 c1       	rjmp	.+850    	; 0x3f4 <__bad_interrupt>
      a2:	00 00       	nop
      a4:	a7 c1       	rjmp	.+846    	; 0x3f4 <__bad_interrupt>
      a6:	00 00       	nop
      a8:	0c 94 3c 0b 	jmp	0x1678	; 0x1678 <__vector_42>
      ac:	a3 c1       	rjmp	.+838    	; 0x3f4 <__bad_interrupt>
      ae:	00 00       	nop
      b0:	a1 c1       	rjmp	.+834    	; 0x3f4 <__bad_interrupt>
      b2:	00 00       	nop
      b4:	9f c1       	rjmp	.+830    	; 0x3f4 <__bad_interrupt>
      b6:	00 00       	nop
      b8:	9d c1       	rjmp	.+826    	; 0x3f4 <__bad_interrupt>
      ba:	00 00       	nop
      bc:	9b c1       	rjmp	.+822    	; 0x3f4 <__bad_interrupt>
      be:	00 00       	nop
      c0:	99 c1       	rjmp	.+818    	; 0x3f4 <__bad_interrupt>
      c2:	00 00       	nop
      c4:	97 c1       	rjmp	.+814    	; 0x3f4 <__bad_interrupt>
      c6:	00 00       	nop
      c8:	95 c1       	rjmp	.+810    	; 0x3f4 <__bad_interrupt>
      ca:	00 00       	nop
      cc:	47 0f       	add	r20, r23
      ce:	47 0f       	add	r20, r23
      d0:	17 10       	cpse	r1, r7
      d2:	17 10       	cpse	r1, r7
      d4:	0c 12       	cpse	r0, r28
      d6:	ab 10       	cpse	r10, r11
      d8:	0c 12       	cpse	r0, r28
      da:	0c 12       	cpse	r0, r28
      dc:	0c 12       	cpse	r0, r28
      de:	0c 12       	cpse	r0, r28
      e0:	0c 12       	cpse	r0, r28
      e2:	0c 12       	cpse	r0, r28
      e4:	0c 12       	cpse	r0, r28
      e6:	0c 12       	cpse	r0, r28
      e8:	f3 10       	cpse	r15, r3
      ea:	9b 11       	cpse	r25, r11
      ec:	7f 13       	cpse	r23, r31
      ee:	7f 13       	cpse	r23, r31
      f0:	35 14       	cp	r3, r5
      f2:	35 14       	cp	r3, r5
      f4:	36 15       	cp	r19, r6
      f6:	b9 14       	cp	r11, r9
      f8:	36 15       	cp	r19, r6
      fa:	36 15       	cp	r19, r6
      fc:	36 15       	cp	r19, r6
      fe:	36 15       	cp	r19, r6
     100:	36 15       	cp	r19, r6
     102:	36 15       	cp	r19, r6
     104:	36 15       	cp	r19, r6
     106:	36 15       	cp	r19, r6
     108:	01 15       	cp	r16, r1
     10a:	01 15       	cp	r16, r1
     10c:	fc 2d       	mov	r31, r12
     10e:	08 2e       	mov	r0, r24
     110:	47 2e       	mov	r4, r23
     112:	56 2e       	mov	r5, r22
     114:	61 2e       	mov	r6, r17
     116:	65 2e       	mov	r6, r21
     118:	77 2e       	mov	r7, r23
     11a:	a9 2e       	mov	r10, r25
     11c:	bc 2e       	mov	r11, r28
     11e:	cc 2e       	mov	r12, r28
     120:	ef 2e       	mov	r14, r31
     122:	ef 2e       	mov	r14, r31
     124:	ef 2e       	mov	r14, r31
     126:	e4 2e       	mov	r14, r20
     128:	ef 2e       	mov	r14, r31
     12a:	e9 2e       	mov	r14, r25

0000012c <__trampolines_end>:
     12c:	00 c0       	rjmp	.+0      	; 0x12e <__trampolines_end+0x2>
     12e:	c1 01       	movw	r24, r2
     130:	c3 03       	fmuls	r20, r19
     132:	02 c2       	rjmp	.+1028   	; 0x538 <GetReg+0x28>
     134:	c6 06       	cpc	r12, r22
     136:	07 c7       	rjmp	.+3598   	; 0xf46 <NextSlave+0xd2>
     138:	05 c5       	rjmp	.+2570   	; 0xb44 <W5100_writeS1DIPR+0x4>
     13a:	c4 04       	cpc	r12, r4
     13c:	cc 0c       	add	r12, r12
     13e:	0d cd       	rjmp	.-1510   	; 0xfffffb5a <__eeprom_end+0xff7efb49>
     140:	0f cf       	rjmp	.-482    	; 0xffffff60 <__eeprom_end+0xff7eff4f>
     142:	ce 0e       	add	r12, r30
     144:	0a ca       	rjmp	.-3052   	; 0xfffff55a <__eeprom_end+0xff7ef549>
     146:	cb 0b       	sbc	r28, r27
     148:	c9 09       	sbc	r28, r9
     14a:	08 c8       	rjmp	.-4080   	; 0xfffff15c <__eeprom_end+0xff7ef14b>
     14c:	d8 18       	sub	r13, r8
     14e:	19 d9       	rcall	.-3534   	; 0xfffff382 <__eeprom_end+0xff7ef371>
     150:	1b db       	rcall	.-2506   	; 0xfffff788 <__eeprom_end+0xff7ef777>
     152:	da 1a       	sub	r13, r26
     154:	1e de       	rcall	.-964    	; 0xfffffd92 <__eeprom_end+0xff7efd81>
     156:	df 1f       	adc	r29, r31
     158:	dd 1d       	adc	r29, r13
     15a:	1c dc       	rcall	.-1992   	; 0xfffff994 <__eeprom_end+0xff7ef983>
     15c:	14 d4       	rcall	.+2088   	; 0x986 <W5100_SetMask+0x18>
     15e:	d5 15       	cp	r29, r5
     160:	d7 17       	cp	r29, r23
     162:	16 d6       	rcall	.+3116   	; 0xd90 <StartTimer8+0x3c>
     164:	d2 12       	cpse	r13, r18
     166:	13 d3       	rcall	.+1574   	; 0x78e <W5100_init+0x5c>
     168:	11 d1       	rcall	.+546    	; 0x38c <BR_Tbl+0x13>
     16a:	d0 10       	cpse	r13, r0
     16c:	f0 30       	cpi	r31, 0x00	; 0
     16e:	31 f1       	breq	.+76     	; 0x1bc <__trampolines_end+0x90>
     170:	33 f3       	brvs	.-52     	; 0x13e <__trampolines_end+0x12>
     172:	f2 32       	cpi	r31, 0x22	; 34
     174:	36 f6       	brtc	.-116    	; 0x102 <__SREG__+0xc3>
     176:	f7 37       	cpi	r31, 0x77	; 119
     178:	f5 35       	cpi	r31, 0x55	; 85
     17a:	34 f4       	brge	.+12     	; 0x188 <__trampolines_end+0x5c>
     17c:	3c fc       	.word	0xfc3c	; ????
     17e:	fd 3d       	cpi	r31, 0xDD	; 221
     180:	ff 3f       	cpi	r31, 0xFF	; 255
     182:	3e fe       	.word	0xfe3e	; ????
     184:	fa 3a       	cpi	r31, 0xAA	; 170
     186:	3b fb       	.word	0xfb3b	; ????
     188:	39 f9       	.word	0xf939	; ????
     18a:	f8 38       	cpi	r31, 0x88	; 136
     18c:	28 e8       	ldi	r18, 0x88	; 136
     18e:	e9 29       	or	r30, r9
     190:	eb 2b       	or	r30, r27
     192:	2a ea       	ldi	r18, 0xAA	; 170
     194:	ee 2e       	mov	r14, r30
     196:	2f ef       	ldi	r18, 0xFF	; 255
     198:	2d ed       	ldi	r18, 0xDD	; 221
     19a:	ec 2c       	mov	r14, r12
     19c:	e4 24       	eor	r14, r4
     19e:	25 e5       	ldi	r18, 0x55	; 85
     1a0:	27 e7       	ldi	r18, 0x77	; 119
     1a2:	e6 26       	eor	r14, r22
     1a4:	22 e2       	ldi	r18, 0x22	; 34
     1a6:	e3 23       	and	r30, r19
     1a8:	e1 21       	and	r30, r1
     1aa:	20 e0       	ldi	r18, 0x00	; 0
     1ac:	a0 60       	ori	r26, 0x00	; 0
     1ae:	61 a1       	ldd	r22, Z+33	; 0x21
     1b0:	63 a3       	std	Z+35, r22	; 0x23
     1b2:	a2 62       	ori	r26, 0x22	; 34
     1b4:	66 a6       	std	Z+46, r6	; 0x2e
     1b6:	a7 67       	ori	r26, 0x77	; 119
     1b8:	a5 65       	ori	r26, 0x55	; 85
     1ba:	64 a4       	ldd	r6, Z+44	; 0x2c
     1bc:	6c ac       	ldd	r6, Y+60	; 0x3c
     1be:	ad 6d       	ori	r26, 0xDD	; 221
     1c0:	af 6f       	ori	r26, 0xFF	; 255
     1c2:	6e ae       	std	Y+62, r6	; 0x3e
     1c4:	aa 6a       	ori	r26, 0xAA	; 170
     1c6:	6b ab       	std	Y+51, r22	; 0x33
     1c8:	69 a9       	ldd	r22, Y+49	; 0x31
     1ca:	a8 68       	ori	r26, 0x88	; 136
     1cc:	78 b8       	out	0x08, r7	; 8
     1ce:	b9 79       	andi	r27, 0x99	; 153
     1d0:	bb 7b       	andi	r27, 0xBB	; 187
     1d2:	7a ba       	out	0x1a, r7	; 26
     1d4:	be 7e       	andi	r27, 0xEE	; 238
     1d6:	7f bf       	out	0x3f, r23	; 63
     1d8:	7d bd       	out	0x2d, r23	; 45
     1da:	bc 7c       	andi	r27, 0xCC	; 204
     1dc:	b4 74       	andi	r27, 0x44	; 68
     1de:	75 b5       	in	r23, 0x25	; 37
     1e0:	77 b7       	in	r23, 0x37	; 55
     1e2:	b6 76       	andi	r27, 0x66	; 102
     1e4:	72 b2       	in	r7, 0x12	; 18
     1e6:	b3 73       	andi	r27, 0x33	; 51
     1e8:	b1 71       	andi	r27, 0x11	; 17
     1ea:	70 b0       	in	r7, 0x00	; 0
     1ec:	50 90 91 51 	lds	r5, 0x5191
     1f0:	93 53       	subi	r25, 0x33	; 51
     1f2:	52 92       	st	-Z, r5
     1f4:	96 56       	subi	r25, 0x66	; 102
     1f6:	57 97       	sbiw	r26, 0x17	; 23
     1f8:	55 95       	asr	r21
     1fa:	94 54       	subi	r25, 0x44	; 68
     1fc:	9c 5c       	subi	r25, 0xCC	; 204
     1fe:	5d 9d       	mul	r21, r13
     200:	5f 9f       	mul	r21, r31
     202:	9e 5e       	subi	r25, 0xEE	; 238
     204:	5a 9a       	sbi	0x0b, 2	; 11
     206:	9b 5b       	subi	r25, 0xBB	; 187
     208:	99 59       	subi	r25, 0x99	; 153
     20a:	58 98       	cbi	0x0b, 0	; 11
     20c:	88 48       	sbci	r24, 0x88	; 136
     20e:	49 89       	ldd	r20, Y+17	; 0x11
     210:	4b 8b       	std	Y+19, r20	; 0x13
     212:	8a 4a       	sbci	r24, 0xAA	; 170
     214:	4e 8e       	std	Y+30, r4	; 0x1e
     216:	8f 4f       	sbci	r24, 0xFF	; 255
     218:	8d 4d       	sbci	r24, 0xDD	; 221
     21a:	4c 8c       	ldd	r4, Y+28	; 0x1c
     21c:	44 84       	ldd	r4, Z+12	; 0x0c
     21e:	85 45       	sbci	r24, 0x55	; 85
     220:	87 47       	sbci	r24, 0x77	; 119
     222:	46 86       	std	Z+14, r4	; 0x0e
     224:	82 42       	sbci	r24, 0x22	; 34
     226:	43 83       	std	Z+3, r20	; 0x03
     228:	41 81       	ldd	r20, Z+1	; 0x01
     22a:	80 40       	sbci	r24, 0x00	; 0

0000022c <aCRCHi.2498>:
     22c:	00 c1 81 40 01 c0 80 41 01 c0 80 41 00 c1 81 40     ...@...A...A...@
     23c:	01 c0 80 41 00 c1 81 40 00 c1 81 40 01 c0 80 41     ...A...@...@...A
     24c:	01 c0 80 41 00 c1 81 40 00 c1 81 40 01 c0 80 41     ...A...@...@...A
     25c:	00 c1 81 40 01 c0 80 41 01 c0 80 41 00 c1 81 40     ...@...A...A...@
     26c:	01 c0 80 41 00 c1 81 40 00 c1 81 40 01 c0 80 41     ...A...@...@...A
     27c:	00 c1 81 40 01 c0 80 41 01 c0 80 41 00 c1 81 40     ...@...A...A...@
     28c:	00 c1 81 40 01 c0 80 41 01 c0 80 41 00 c1 81 40     ...@...A...A...@
     29c:	01 c0 80 41 00 c1 81 40 00 c1 81 40 01 c0 80 41     ...A...@...@...A
     2ac:	01 c0 80 41 00 c1 81 40 00 c1 81 40 01 c0 80 41     ...A...@...@...A
     2bc:	00 c1 81 40 01 c0 80 41 01 c0 80 41 00 c1 81 40     ...@...A...A...@
     2cc:	00 c1 81 40 01 c0 80 41 01 c0 80 41 00 c1 81 40     ...@...A...A...@
     2dc:	01 c0 80 41 00 c1 81 40 00 c1 81 40 01 c0 80 41     ...A...@...@...A
     2ec:	00 c1 81 40 01 c0 80 41 01 c0 80 41 00 c1 81 40     ...@...A...A...@
     2fc:	01 c0 80 41 00 c1 81 40 00 c1 81 40 01 c0 80 41     ...A...@...@...A
     30c:	01 c0 80 41 00 c1 81 40 00 c1 81 40 01 c0 80 41     ...A...@...@...A
     31c:	00 c1 81 40 01 c0 80 41 01 c0 80 41 00 c1 81 40     ...@...A...A...@

0000032c <MB_Master_List>:
     32c:	2f 03 02                                            /..

0000032f <MB_Slave_List>:
     32f:	01 45 03 02 02 37 03 02                             .E...7..

00000337 <DI8RO8_QUERRY>:
     337:	02 00 00 08 00 00 00 0f 08 00 08 00 00 00           ..............

00000345 <AI8AO4_QUERRY>:
     345:	04 09 00 08 00 00 00 10 01 00 04 00 00 00           ..............

00000353 <MB_Timer>:
     353:	46 00 47 00 06 02 b2 00 b3 00 10 02 a4 00 a8 00     F.G.............
     363:	1c 02                                               ..

00000365 <MB_Port>:
     365:	c6 00 c0 00 c1 00 c2 00 c5 00 c4 00 fe 01 03 02     ................
     375:	04 02 05 02                                         ....

00000379 <BR_Tbl>:
     379:	42 03 ff a0 01 fb cf 00 7d 67 00 3f 44 00 2a 33     B.......}g.?D.*3
     389:	00 1f 22 00 1b 19 00 1b 10 00 1b                    .."........

00000394 <Modbus_Map>:
     394:	6f 0b 20 00 84 12 20 00 98 12 3a 00 b0 0c 50 00     o. ... ...:...P.

000003a4 <MB_Role>:
     3a4:	01                                                  .

000003a5 <__c.2299>:
     3a5:	63 64 69 6e 6f 70 73 75 78 58 5b 00 00              cdinopsuxX[..

000003b2 <__ctors_end>:
     3b2:	11 24       	eor	r1, r1
     3b4:	1f be       	out	0x3f, r1	; 63
     3b6:	cf ef       	ldi	r28, 0xFF	; 255
     3b8:	d1 e2       	ldi	r29, 0x21	; 33
     3ba:	de bf       	out	0x3e, r29	; 62
     3bc:	cd bf       	out	0x3d, r28	; 61
     3be:	00 e0       	ldi	r16, 0x00	; 0
     3c0:	0c bf       	out	0x3c, r16	; 60

000003c2 <__do_copy_data>:
     3c2:	16 e0       	ldi	r17, 0x06	; 6
     3c4:	a0 e0       	ldi	r26, 0x00	; 0
     3c6:	b2 e0       	ldi	r27, 0x02	; 2
     3c8:	e4 ef       	ldi	r30, 0xF4	; 244
     3ca:	f9 e6       	ldi	r31, 0x69	; 105
     3cc:	00 e0       	ldi	r16, 0x00	; 0
     3ce:	0b bf       	out	0x3b, r16	; 59
     3d0:	02 c0       	rjmp	.+4      	; 0x3d6 <__do_copy_data+0x14>
     3d2:	07 90       	elpm	r0, Z+
     3d4:	0d 92       	st	X+, r0
     3d6:	a6 3b       	cpi	r26, 0xB6	; 182
     3d8:	b1 07       	cpc	r27, r17
     3da:	d9 f7       	brne	.-10     	; 0x3d2 <__do_copy_data+0x10>

000003dc <__do_clear_bss>:
     3dc:	25 e1       	ldi	r18, 0x15	; 21
     3de:	a6 eb       	ldi	r26, 0xB6	; 182
     3e0:	b6 e0       	ldi	r27, 0x06	; 6
     3e2:	01 c0       	rjmp	.+2      	; 0x3e6 <.do_clear_bss_start>

000003e4 <.do_clear_bss_loop>:
     3e4:	1d 92       	st	X+, r1

000003e6 <.do_clear_bss_start>:
     3e6:	ac 30       	cpi	r26, 0x0C	; 12
     3e8:	b2 07       	cpc	r27, r18
     3ea:	e1 f7       	brne	.-8      	; 0x3e4 <.do_clear_bss_loop>
     3ec:	0e 94 d0 30 	call	0x61a0	; 0x61a0 <main>
     3f0:	0c 94 f8 34 	jmp	0x69f0	; 0x69f0 <_exit>

000003f4 <__bad_interrupt>:
     3f4:	05 ce       	rjmp	.-1014   	; 0x0 <__vectors>

000003f6 <rrb>:
}
void LED_On(){
	PORTG|=1<<PG3;
}
void LED_Off(){
	PORTG&=~(1<<PG3);
     3f6:	fc 01       	movw	r30, r24
     3f8:	80 81       	ld	r24, Z
     3fa:	08 95       	ret

000003fc <RS485_0>:
     3fc:	92 b1       	in	r25, 0x02	; 2
     3fe:	84 e0       	ldi	r24, 0x04	; 4
     400:	89 27       	eor	r24, r25
     402:	82 b9       	out	0x02, r24	; 2
     404:	08 95       	ret

00000406 <MB_LED0>:
     406:	08 95       	ret

00000408 <MB_LED_Err_On_0>:
     408:	08 95       	ret

0000040a <MB_LED_Err_Off_0>:
     40a:	08 95       	ret

0000040c <StartTimer0>:
     40c:	82 e0       	ldi	r24, 0x02	; 2
     40e:	84 bd       	out	0x24, r24	; 36
     410:	85 ef       	ldi	r24, 0xF5	; 245
     412:	85 bd       	out	0x25, r24	; 37
     414:	ee e6       	ldi	r30, 0x6E	; 110
     416:	f0 e0       	ldi	r31, 0x00	; 0
     418:	80 81       	ld	r24, Z
     41a:	82 60       	ori	r24, 0x02	; 2
     41c:	80 83       	st	Z, r24
     41e:	08 95       	ret

00000420 <StartTimer2>:
     420:	82 e0       	ldi	r24, 0x02	; 2
     422:	80 93 b0 00 	sts	0x00B0, r24
     426:	87 ef       	ldi	r24, 0xF7	; 247
     428:	80 93 b1 00 	sts	0x00B1, r24
     42c:	e0 e7       	ldi	r30, 0x70	; 112
     42e:	f0 e0       	ldi	r31, 0x00	; 0
     430:	80 81       	ld	r24, Z
     432:	82 60       	ori	r24, 0x02	; 2
     434:	80 83       	st	Z, r24
     436:	08 95       	ret

00000438 <StartTimer4>:
     438:	10 92 a0 00 	sts	0x00A0, r1
     43c:	8d e0       	ldi	r24, 0x0D	; 13
     43e:	80 93 a1 00 	sts	0x00A1, r24
     442:	e2 e7       	ldi	r30, 0x72	; 114
     444:	f0 e0       	ldi	r31, 0x00	; 0
     446:	80 81       	ld	r24, Z
     448:	82 60       	ori	r24, 0x02	; 2
     44a:	80 83       	st	Z, r24
     44c:	08 95       	ret

0000044e <erb>:
     44e:	0c 94 5d 34 	jmp	0x68ba	; 0x68ba <__eerd_byte_m2561>
     452:	08 95       	ret

00000454 <GetSlave>:
     454:	28 2f       	mov	r18, r24
     456:	30 e0       	ldi	r19, 0x00	; 0
     458:	f9 01       	movw	r30, r18
     45a:	ee 0f       	add	r30, r30
     45c:	ff 1f       	adc	r31, r31
     45e:	e2 0f       	add	r30, r18
     460:	f3 1f       	adc	r31, r19
     462:	e4 5d       	subi	r30, 0xD4	; 212
     464:	fc 4f       	sbci	r31, 0xFC	; 252
     466:	25 91       	lpm	r18, Z+
     468:	34 91       	lpm	r19, Z
     46a:	e8 2f       	mov	r30, r24
     46c:	f0 e0       	ldi	r31, 0x00	; 0
     46e:	e0 52       	subi	r30, 0x20	; 32
     470:	f6 4f       	sbci	r31, 0xF6	; 246
     472:	80 81       	ld	r24, Z
     474:	a9 01       	movw	r20, r18
     476:	64 e0       	ldi	r22, 0x04	; 4
     478:	86 9f       	mul	r24, r22
     47a:	40 0d       	add	r20, r0
     47c:	51 1d       	adc	r21, r1
     47e:	11 24       	eor	r1, r1
     480:	ca 01       	movw	r24, r20
     482:	08 95       	ret

00000484 <MBRecept>:
     484:	28 2f       	mov	r18, r24
     486:	30 e0       	ldi	r19, 0x00	; 0
     488:	44 e1       	ldi	r20, 0x14	; 20
     48a:	84 9f       	mul	r24, r20
     48c:	f0 01       	movw	r30, r0
     48e:	11 24       	eor	r1, r1
     490:	e9 59       	subi	r30, 0x99	; 153
     492:	fc 4f       	sbci	r31, 0xFC	; 252
     494:	a5 91       	lpm	r26, Z+
     496:	b4 91       	lpm	r27, Z
     498:	9c 91       	ld	r25, X
     49a:	f9 01       	movw	r30, r18
     49c:	e3 5c       	subi	r30, 0xC3	; 195
     49e:	f5 4f       	sbci	r31, 0xF5	; 245
     4a0:	40 81       	ld	r20, Z
     4a2:	51 e0       	ldi	r21, 0x01	; 1
     4a4:	54 0f       	add	r21, r20
     4a6:	50 83       	st	Z, r21
     4a8:	54 e1       	ldi	r21, 0x14	; 20
     4aa:	52 9f       	mul	r21, r18
     4ac:	f0 01       	movw	r30, r0
     4ae:	53 9f       	mul	r21, r19
     4b0:	f0 0d       	add	r31, r0
     4b2:	11 24       	eor	r1, r1
     4b4:	eb 59       	subi	r30, 0x9B	; 155
     4b6:	fc 4f       	sbci	r31, 0xFC	; 252
     4b8:	a5 91       	lpm	r26, Z+
     4ba:	b4 91       	lpm	r27, Z
     4bc:	5c 91       	ld	r21, X
     4be:	f2 2f       	mov	r31, r18
     4c0:	ee 27       	eor	r30, r30
     4c2:	e4 0f       	add	r30, r20
     4c4:	f1 1d       	adc	r31, r1
     4c6:	e1 5f       	subi	r30, 0xF1	; 241
     4c8:	fc 4e       	sbci	r31, 0xEC	; 236
     4ca:	50 83       	st	Z, r21
     4cc:	93 ff       	sbrs	r25, 3
     4ce:	0f c0       	rjmp	.+30     	; 0x4ee <MBRecept+0x6a>
     4d0:	f9 01       	movw	r30, r18
     4d2:	e2 95       	swap	r30
     4d4:	f2 95       	swap	r31
     4d6:	f0 7f       	andi	r31, 0xF0	; 240
     4d8:	fe 27       	eor	r31, r30
     4da:	e0 7f       	andi	r30, 0xF0	; 240
     4dc:	fe 27       	eor	r31, r30
     4de:	e0 59       	subi	r30, 0x90	; 144
     4e0:	fd 4e       	sbci	r31, 0xED	; 237
     4e2:	26 85       	ldd	r18, Z+14	; 0x0e
     4e4:	37 85       	ldd	r19, Z+15	; 0x0f
     4e6:	2f 5f       	subi	r18, 0xFF	; 255
     4e8:	3f 4f       	sbci	r19, 0xFF	; 255
     4ea:	37 87       	std	Z+15, r19	; 0x0f
     4ec:	26 87       	std	Z+14, r18	; 0x0e
     4ee:	9c 71       	andi	r25, 0x1C	; 28
     4f0:	71 f0       	breq	.+28     	; 0x50e <MBRecept+0x8a>
     4f2:	21 e0       	ldi	r18, 0x01	; 1
     4f4:	30 e0       	ldi	r19, 0x00	; 0
     4f6:	a9 01       	movw	r20, r18
     4f8:	02 c0       	rjmp	.+4      	; 0x4fe <MBRecept+0x7a>
     4fa:	44 0f       	add	r20, r20
     4fc:	55 1f       	adc	r21, r21
     4fe:	8a 95       	dec	r24
     500:	e2 f7       	brpl	.-8      	; 0x4fa <MBRecept+0x76>
     502:	ca 01       	movw	r24, r20
     504:	90 91 e4 06 	lds	r25, 0x06E4
     508:	89 2b       	or	r24, r25
     50a:	80 93 e4 06 	sts	0x06E4, r24
     50e:	08 95       	ret

00000510 <GetReg>:
     510:	0f 93       	push	r16
     512:	1f 93       	push	r17
     514:	cf 93       	push	r28
     516:	df 93       	push	r29
     518:	c8 2f       	mov	r28, r24
     51a:	d0 e0       	ldi	r29, 0x00	; 0
     51c:	fe 01       	movw	r30, r28
     51e:	ee 50       	subi	r30, 0x0E	; 14
     520:	f6 4f       	sbci	r31, 0xF6	; 246
     522:	90 81       	ld	r25, Z
     524:	92 30       	cpi	r25, 0x02	; 2
     526:	09 f1       	breq	.+66     	; 0x56a <GetReg+0x5a>
     528:	fe 01       	movw	r30, r28
     52a:	e2 95       	swap	r30
     52c:	f2 95       	swap	r31
     52e:	f0 7f       	andi	r31, 0xF0	; 240
     530:	fe 27       	eor	r31, r30
     532:	e0 7f       	andi	r30, 0xF0	; 240
     534:	fe 27       	eor	r31, r30
     536:	e4 56       	subi	r30, 0x64	; 100
     538:	fc 4f       	sbci	r31, 0xFC	; 252
     53a:	05 91       	lpm	r16, Z+
     53c:	14 91       	lpm	r17, Z
     53e:	8a df       	rcall	.-236    	; 0x454 <GetSlave>
     540:	01 96       	adiw	r24, 0x01	; 1
     542:	fc 01       	movw	r30, r24
     544:	85 91       	lpm	r24, Z+
     546:	94 91       	lpm	r25, Z
     548:	cb 51       	subi	r28, 0x1B	; 27
     54a:	d6 4f       	sbci	r29, 0xF6	; 246
     54c:	28 81       	ld	r18, Y
     54e:	fc 01       	movw	r30, r24
     550:	37 e0       	ldi	r19, 0x07	; 7
     552:	23 9f       	mul	r18, r19
     554:	e0 0d       	add	r30, r0
     556:	f1 1d       	adc	r31, r1
     558:	11 24       	eor	r1, r1
     55a:	35 96       	adiw	r30, 0x05	; 5
     55c:	85 91       	lpm	r24, Z+
     55e:	94 91       	lpm	r25, Z
     560:	88 0f       	add	r24, r24
     562:	99 1f       	adc	r25, r25
     564:	80 0f       	add	r24, r16
     566:	91 1f       	adc	r25, r17
     568:	0a c0       	rjmp	.+20     	; 0x57e <GetReg+0x6e>
     56a:	cc 0f       	add	r28, r28
     56c:	dd 1f       	adc	r29, r29
     56e:	cc 0f       	add	r28, r28
     570:	dd 1f       	adc	r29, r29
     572:	cc 0f       	add	r28, r28
     574:	dd 1f       	adc	r29, r29
     576:	c4 52       	subi	r28, 0x24	; 36
     578:	d9 4f       	sbci	r29, 0xF9	; 249
     57a:	8e 81       	ldd	r24, Y+6	; 0x06
     57c:	9f 81       	ldd	r25, Y+7	; 0x07
     57e:	df 91       	pop	r29
     580:	cf 91       	pop	r28
     582:	1f 91       	pop	r17
     584:	0f 91       	pop	r16
     586:	08 95       	ret

00000588 <MB_Timer_ISR>:
     588:	e3 e5       	ldi	r30, 0x53	; 83
     58a:	f3 e0       	ldi	r31, 0x03	; 3
     58c:	25 91       	lpm	r18, Z+
     58e:	34 91       	lpm	r19, Z
     590:	82 17       	cp	r24, r18
     592:	93 07       	cpc	r25, r19
     594:	99 f0       	breq	.+38     	; 0x5bc <MB_Timer_ISR+0x34>
     596:	60 e0       	ldi	r22, 0x00	; 0
     598:	6f 5f       	subi	r22, 0xFF	; 255
     59a:	26 2f       	mov	r18, r22
     59c:	30 e0       	ldi	r19, 0x00	; 0
     59e:	f9 01       	movw	r30, r18
     5a0:	ee 0f       	add	r30, r30
     5a2:	ff 1f       	adc	r31, r31
     5a4:	e2 0f       	add	r30, r18
     5a6:	f3 1f       	adc	r31, r19
     5a8:	ee 0f       	add	r30, r30
     5aa:	ff 1f       	adc	r31, r31
     5ac:	ed 5a       	subi	r30, 0xAD	; 173
     5ae:	fc 4f       	sbci	r31, 0xFC	; 252
     5b0:	45 91       	lpm	r20, Z+
     5b2:	54 91       	lpm	r21, Z
     5b4:	84 17       	cp	r24, r20
     5b6:	95 07       	cpc	r25, r21
     5b8:	79 f7       	brne	.-34     	; 0x598 <MB_Timer_ISR+0x10>
     5ba:	03 c0       	rjmp	.+6      	; 0x5c2 <MB_Timer_ISR+0x3a>
     5bc:	20 e0       	ldi	r18, 0x00	; 0
     5be:	30 e0       	ldi	r19, 0x00	; 0
     5c0:	60 e0       	ldi	r22, 0x00	; 0
     5c2:	e6 2f       	mov	r30, r22
     5c4:	f0 e0       	ldi	r31, 0x00	; 0
     5c6:	ec 55       	subi	r30, 0x5C	; 92
     5c8:	fc 4f       	sbci	r31, 0xFC	; 252
     5ca:	e4 91       	lpm	r30, Z
     5cc:	ee 23       	and	r30, r30
     5ce:	19 f0       	breq	.+6      	; 0x5d6 <MB_Timer_ISR+0x4e>
     5d0:	e1 30       	cpi	r30, 0x01	; 1
     5d2:	79 f1       	breq	.+94     	; 0x632 <MB_Timer_ISR+0xaa>
     5d4:	08 95       	ret
     5d6:	f2 2f       	mov	r31, r18
     5d8:	ee 27       	eor	r30, r30
     5da:	e1 5f       	subi	r30, 0xF1	; 241
     5dc:	fc 4e       	sbci	r31, 0xEC	; 236
     5de:	90 81       	ld	r25, Z
     5e0:	f9 01       	movw	r30, r18
     5e2:	e3 53       	subi	r30, 0x33	; 51
     5e4:	f6 4f       	sbci	r31, 0xF6	; 246
     5e6:	80 81       	ld	r24, Z
     5e8:	98 13       	cpse	r25, r24
     5ea:	0f c0       	rjmp	.+30     	; 0x60a <MB_Timer_ISR+0x82>
     5ec:	40 91 5f 12 	lds	r20, 0x125F
     5f0:	81 e0       	ldi	r24, 0x01	; 1
     5f2:	90 e0       	ldi	r25, 0x00	; 0
     5f4:	bc 01       	movw	r22, r24
     5f6:	02 c0       	rjmp	.+4      	; 0x5fc <MB_Timer_ISR+0x74>
     5f8:	66 0f       	add	r22, r22
     5fa:	77 1f       	adc	r23, r23
     5fc:	2a 95       	dec	r18
     5fe:	e2 f7       	brpl	.-8      	; 0x5f8 <MB_Timer_ISR+0x70>
     600:	9b 01       	movw	r18, r22
     602:	24 2b       	or	r18, r20
     604:	20 93 5f 12 	sts	0x125F, r18
     608:	08 95       	ret
     60a:	f9 01       	movw	r30, r18
     60c:	e5 53       	subi	r30, 0x35	; 53
     60e:	f7 4f       	sbci	r31, 0xF7	; 247
     610:	81 e0       	ldi	r24, 0x01	; 1
     612:	80 83       	st	Z, r24
     614:	f9 01       	movw	r30, r18
     616:	e2 95       	swap	r30
     618:	f2 95       	swap	r31
     61a:	f0 7f       	andi	r31, 0xF0	; 240
     61c:	fe 27       	eor	r31, r30
     61e:	e0 7f       	andi	r30, 0xF0	; 240
     620:	fe 27       	eor	r31, r30
     622:	e0 59       	subi	r30, 0x90	; 144
     624:	fd 4e       	sbci	r31, 0xED	; 237
     626:	80 81       	ld	r24, Z
     628:	91 81       	ldd	r25, Z+1	; 0x01
     62a:	01 96       	adiw	r24, 0x01	; 1
     62c:	91 83       	std	Z+1, r25	; 0x01
     62e:	80 83       	st	Z, r24
     630:	08 95       	ret
     632:	40 91 5f 12 	lds	r20, 0x125F
     636:	81 e0       	ldi	r24, 0x01	; 1
     638:	90 e0       	ldi	r25, 0x00	; 0
     63a:	bc 01       	movw	r22, r24
     63c:	02 c0       	rjmp	.+4      	; 0x642 <MB_Timer_ISR+0xba>
     63e:	66 0f       	add	r22, r22
     640:	77 1f       	adc	r23, r23
     642:	2a 95       	dec	r18
     644:	e2 f7       	brpl	.-8      	; 0x63e <MB_Timer_ISR+0xb6>
     646:	9b 01       	movw	r18, r22
     648:	24 2b       	or	r18, r20
     64a:	20 93 5f 12 	sts	0x125F, r18
     64e:	08 95       	ret

00000650 <SPItransfer>:
     650:	8e bd       	out	0x2e, r24	; 46
     652:	00 00       	nop
     654:	0d b4       	in	r0, 0x2d	; 45
     656:	07 fe       	sbrs	r0, 7
     658:	fd cf       	rjmp	.-6      	; 0x654 <SPItransfer+0x4>
     65a:	8e b5       	in	r24, 0x2e	; 46
     65c:	08 95       	ret

0000065e <W5100read>:
     65e:	cf 93       	push	r28
     660:	df 93       	push	r29
     662:	c8 2f       	mov	r28, r24
     664:	d9 2f       	mov	r29, r25
     666:	28 98       	cbi	0x05, 0	; 5
     668:	8f e0       	ldi	r24, 0x0F	; 15
     66a:	f2 df       	rcall	.-28     	; 0x650 <SPItransfer>
     66c:	8d 2f       	mov	r24, r29
     66e:	f0 df       	rcall	.-32     	; 0x650 <SPItransfer>
     670:	8c 2f       	mov	r24, r28
     672:	ee df       	rcall	.-36     	; 0x650 <SPItransfer>
     674:	80 e0       	ldi	r24, 0x00	; 0
     676:	ec df       	rcall	.-40     	; 0x650 <SPItransfer>
     678:	28 9a       	sbi	0x05, 0	; 5
     67a:	df 91       	pop	r29
     67c:	cf 91       	pop	r28
     67e:	08 95       	ret

00000680 <W5100readBlock>:
     680:	cf 92       	push	r12
     682:	df 92       	push	r13
     684:	ef 92       	push	r14
     686:	ff 92       	push	r15
     688:	0f 93       	push	r16
     68a:	1f 93       	push	r17
     68c:	cf 93       	push	r28
     68e:	df 93       	push	r29
     690:	ec 01       	movw	r28, r24
     692:	6a 01       	movw	r12, r20
     694:	41 15       	cp	r20, r1
     696:	51 05       	cpc	r21, r1
     698:	b1 f0       	breq	.+44     	; 0x6c6 <W5100readBlock+0x46>
     69a:	06 2f       	mov	r16, r22
     69c:	17 2f       	mov	r17, r23
     69e:	7c 01       	movw	r14, r24
     6a0:	e4 0e       	add	r14, r20
     6a2:	f5 1e       	adc	r15, r21
     6a4:	28 98       	cbi	0x05, 0	; 5
     6a6:	8f e0       	ldi	r24, 0x0F	; 15
     6a8:	d3 df       	rcall	.-90     	; 0x650 <SPItransfer>
     6aa:	8d 2f       	mov	r24, r29
     6ac:	d1 df       	rcall	.-94     	; 0x650 <SPItransfer>
     6ae:	8c 2f       	mov	r24, r28
     6b0:	cf df       	rcall	.-98     	; 0x650 <SPItransfer>
     6b2:	21 96       	adiw	r28, 0x01	; 1
     6b4:	80 e0       	ldi	r24, 0x00	; 0
     6b6:	cc df       	rcall	.-104    	; 0x650 <SPItransfer>
     6b8:	f8 01       	movw	r30, r16
     6ba:	81 93       	st	Z+, r24
     6bc:	8f 01       	movw	r16, r30
     6be:	28 9a       	sbi	0x05, 0	; 5
     6c0:	ce 15       	cp	r28, r14
     6c2:	df 05       	cpc	r29, r15
     6c4:	79 f7       	brne	.-34     	; 0x6a4 <W5100readBlock+0x24>
     6c6:	c6 01       	movw	r24, r12
     6c8:	df 91       	pop	r29
     6ca:	cf 91       	pop	r28
     6cc:	1f 91       	pop	r17
     6ce:	0f 91       	pop	r16
     6d0:	ff 90       	pop	r15
     6d2:	ef 90       	pop	r14
     6d4:	df 90       	pop	r13
     6d6:	cf 90       	pop	r12
     6d8:	08 95       	ret

000006da <W5100writeBlock>:
     6da:	cf 92       	push	r12
     6dc:	df 92       	push	r13
     6de:	ef 92       	push	r14
     6e0:	ff 92       	push	r15
     6e2:	0f 93       	push	r16
     6e4:	1f 93       	push	r17
     6e6:	cf 93       	push	r28
     6e8:	df 93       	push	r29
     6ea:	ec 01       	movw	r28, r24
     6ec:	6a 01       	movw	r12, r20
     6ee:	41 15       	cp	r20, r1
     6f0:	51 05       	cpc	r21, r1
     6f2:	a9 f0       	breq	.+42     	; 0x71e <W5100writeBlock+0x44>
     6f4:	06 2f       	mov	r16, r22
     6f6:	17 2f       	mov	r17, r23
     6f8:	7c 01       	movw	r14, r24
     6fa:	e4 0e       	add	r14, r20
     6fc:	f5 1e       	adc	r15, r21
     6fe:	28 98       	cbi	0x05, 0	; 5
     700:	80 ef       	ldi	r24, 0xF0	; 240
     702:	a6 df       	rcall	.-180    	; 0x650 <SPItransfer>
     704:	8d 2f       	mov	r24, r29
     706:	a4 df       	rcall	.-184    	; 0x650 <SPItransfer>
     708:	8c 2f       	mov	r24, r28
     70a:	a2 df       	rcall	.-188    	; 0x650 <SPItransfer>
     70c:	21 96       	adiw	r28, 0x01	; 1
     70e:	f8 01       	movw	r30, r16
     710:	81 91       	ld	r24, Z+
     712:	8f 01       	movw	r16, r30
     714:	9d df       	rcall	.-198    	; 0x650 <SPItransfer>
     716:	28 9a       	sbi	0x05, 0	; 5
     718:	ce 15       	cp	r28, r14
     71a:	df 05       	cpc	r29, r15
     71c:	81 f7       	brne	.-32     	; 0x6fe <W5100writeBlock+0x24>
     71e:	c6 01       	movw	r24, r12
     720:	df 91       	pop	r29
     722:	cf 91       	pop	r28
     724:	1f 91       	pop	r17
     726:	0f 91       	pop	r16
     728:	ff 90       	pop	r15
     72a:	ef 90       	pop	r14
     72c:	df 90       	pop	r13
     72e:	cf 90       	pop	r12
     730:	08 95       	ret

00000732 <W5100_init>:
     732:	ef 92       	push	r14
     734:	ff 92       	push	r15
     736:	0f 93       	push	r16
     738:	1f 93       	push	r17
     73a:	25 9a       	sbi	0x04, 5	; 4
     73c:	2d 9a       	sbi	0x05, 5	; 5
     73e:	2d 98       	cbi	0x05, 5	; 5
     740:	2f ef       	ldi	r18, 0xFF	; 255
     742:	83 ec       	ldi	r24, 0xC3	; 195
     744:	99 e0       	ldi	r25, 0x09	; 9
     746:	21 50       	subi	r18, 0x01	; 1
     748:	80 40       	sbci	r24, 0x00	; 0
     74a:	90 40       	sbci	r25, 0x00	; 0
     74c:	e1 f7       	brne	.-8      	; 0x746 <W5100_init+0x14>
     74e:	00 c0       	rjmp	.+0      	; 0x750 <W5100_init+0x1e>
     750:	00 00       	nop
     752:	6c 9a       	sbi	0x0d, 4	; 13
     754:	74 98       	cbi	0x0e, 4	; 14
     756:	2f ef       	ldi	r18, 0xFF	; 255
     758:	83 ec       	ldi	r24, 0xC3	; 195
     75a:	99 e0       	ldi	r25, 0x09	; 9
     75c:	21 50       	subi	r18, 0x01	; 1
     75e:	80 40       	sbci	r24, 0x00	; 0
     760:	90 40       	sbci	r25, 0x00	; 0
     762:	e1 f7       	brne	.-8      	; 0x75c <W5100_init+0x2a>
     764:	00 c0       	rjmp	.+0      	; 0x766 <W5100_init+0x34>
     766:	00 00       	nop
     768:	6c 98       	cbi	0x0d, 4	; 13
     76a:	2f ef       	ldi	r18, 0xFF	; 255
     76c:	83 ec       	ldi	r24, 0xC3	; 195
     76e:	99 e0       	ldi	r25, 0x09	; 9
     770:	21 50       	subi	r18, 0x01	; 1
     772:	80 40       	sbci	r24, 0x00	; 0
     774:	90 40       	sbci	r25, 0x00	; 0
     776:	e1 f7       	brne	.-8      	; 0x770 <W5100_init+0x3e>
     778:	00 c0       	rjmp	.+0      	; 0x77a <W5100_init+0x48>
     77a:	00 00       	nop
     77c:	80 e0       	ldi	r24, 0x00	; 0
     77e:	90 e4       	ldi	r25, 0x40	; 64
     780:	90 93 52 0e 	sts	0x0E52, r25
     784:	80 93 51 0e 	sts	0x0E51, r24
     788:	80 e0       	ldi	r24, 0x00	; 0
     78a:	90 e6       	ldi	r25, 0x60	; 96
     78c:	90 93 bf 09 	sts	0x09BF, r25
     790:	80 93 be 09 	sts	0x09BE, r24
     794:	80 e0       	ldi	r24, 0x00	; 0
     796:	98 e4       	ldi	r25, 0x48	; 72
     798:	90 93 54 0e 	sts	0x0E54, r25
     79c:	80 93 53 0e 	sts	0x0E53, r24
     7a0:	80 e0       	ldi	r24, 0x00	; 0
     7a2:	98 e6       	ldi	r25, 0x68	; 104
     7a4:	90 93 c1 09 	sts	0x09C1, r25
     7a8:	80 93 c0 09 	sts	0x09C0, r24
     7ac:	80 e0       	ldi	r24, 0x00	; 0
     7ae:	90 e5       	ldi	r25, 0x50	; 80
     7b0:	90 93 56 0e 	sts	0x0E56, r25
     7b4:	80 93 55 0e 	sts	0x0E55, r24
     7b8:	80 e0       	ldi	r24, 0x00	; 0
     7ba:	90 e7       	ldi	r25, 0x70	; 112
     7bc:	90 93 c3 09 	sts	0x09C3, r25
     7c0:	80 93 c2 09 	sts	0x09C2, r24
     7c4:	80 e0       	ldi	r24, 0x00	; 0
     7c6:	98 e5       	ldi	r25, 0x58	; 88
     7c8:	90 93 58 0e 	sts	0x0E58, r25
     7cc:	80 93 57 0e 	sts	0x0E57, r24
     7d0:	80 e0       	ldi	r24, 0x00	; 0
     7d2:	98 e7       	ldi	r25, 0x78	; 120
     7d4:	90 93 c5 09 	sts	0x09C5, r25
     7d8:	80 93 c4 09 	sts	0x09C4, r24
     7dc:	60 e8       	ldi	r22, 0x80	; 128
     7de:	80 e0       	ldi	r24, 0x00	; 0
     7e0:	90 e0       	ldi	r25, 0x00	; 0
     7e2:	37 d0       	rcall	.+110    	; 0x852 <W5100write>
     7e4:	65 e5       	ldi	r22, 0x55	; 85
     7e6:	8b e1       	ldi	r24, 0x1B	; 27
     7e8:	90 e0       	ldi	r25, 0x00	; 0
     7ea:	33 d0       	rcall	.+102    	; 0x852 <W5100write>
     7ec:	65 e5       	ldi	r22, 0x55	; 85
     7ee:	8a e1       	ldi	r24, 0x1A	; 26
     7f0:	90 e0       	ldi	r25, 0x00	; 0
     7f2:	2f d0       	rcall	.+94     	; 0x852 <W5100write>
     7f4:	68 94       	set
     7f6:	ee 24       	eor	r14, r14
     7f8:	e1 f8       	bld	r14, 1
     7fa:	f1 2c       	mov	r15, r1
     7fc:	0e ed       	ldi	r16, 0xDE	; 222
     7fe:	10 e0       	ldi	r17, 0x00	; 0
     800:	2c ec       	ldi	r18, 0xCC	; 204
     802:	30 e0       	ldi	r19, 0x00	; 0
     804:	4b eb       	ldi	r20, 0xBB	; 187
     806:	50 e0       	ldi	r21, 0x00	; 0
     808:	6a ea       	ldi	r22, 0xAA	; 170
     80a:	70 e0       	ldi	r23, 0x00	; 0
     80c:	80 e0       	ldi	r24, 0x00	; 0
     80e:	90 e0       	ldi	r25, 0x00	; 0
     810:	51 d0       	rcall	.+162    	; 0x8b4 <W5100_SetMac>
     812:	2c e4       	ldi	r18, 0x4C	; 76
     814:	30 e0       	ldi	r19, 0x00	; 0
     816:	40 e0       	ldi	r20, 0x00	; 0
     818:	50 e0       	ldi	r21, 0x00	; 0
     81a:	60 e0       	ldi	r22, 0x00	; 0
     81c:	70 e0       	ldi	r23, 0x00	; 0
     81e:	8a e0       	ldi	r24, 0x0A	; 10
     820:	90 e0       	ldi	r25, 0x00	; 0
     822:	6f d0       	rcall	.+222    	; 0x902 <W5100_SetIP>
     824:	2e ef       	ldi	r18, 0xFE	; 254
     826:	30 e0       	ldi	r19, 0x00	; 0
     828:	40 e0       	ldi	r20, 0x00	; 0
     82a:	50 e0       	ldi	r21, 0x00	; 0
     82c:	60 e0       	ldi	r22, 0x00	; 0
     82e:	70 e0       	ldi	r23, 0x00	; 0
     830:	8a e0       	ldi	r24, 0x0A	; 10
     832:	90 e0       	ldi	r25, 0x00	; 0
     834:	81 d0       	rcall	.+258    	; 0x938 <W5100_SetGateway>
     836:	20 e0       	ldi	r18, 0x00	; 0
     838:	30 e0       	ldi	r19, 0x00	; 0
     83a:	4f ef       	ldi	r20, 0xFF	; 255
     83c:	50 e0       	ldi	r21, 0x00	; 0
     83e:	6f ef       	ldi	r22, 0xFF	; 255
     840:	70 e0       	ldi	r23, 0x00	; 0
     842:	8f ef       	ldi	r24, 0xFF	; 255
     844:	90 e0       	ldi	r25, 0x00	; 0
     846:	93 d0       	rcall	.+294    	; 0x96e <W5100_SetMask>
     848:	1f 91       	pop	r17
     84a:	0f 91       	pop	r16
     84c:	ff 90       	pop	r15
     84e:	ef 90       	pop	r14
     850:	08 95       	ret

00000852 <W5100write>:
     852:	1f 93       	push	r17
     854:	cf 93       	push	r28
     856:	df 93       	push	r29
     858:	d8 2f       	mov	r29, r24
     85a:	19 2f       	mov	r17, r25
     85c:	c6 2f       	mov	r28, r22
     85e:	28 98       	cbi	0x05, 0	; 5
     860:	80 ef       	ldi	r24, 0xF0	; 240
     862:	f6 de       	rcall	.-532    	; 0x650 <SPItransfer>
     864:	81 2f       	mov	r24, r17
     866:	f4 de       	rcall	.-536    	; 0x650 <SPItransfer>
     868:	8d 2f       	mov	r24, r29
     86a:	f2 de       	rcall	.-540    	; 0x650 <SPItransfer>
     86c:	8c 2f       	mov	r24, r28
     86e:	f0 de       	rcall	.-544    	; 0x650 <SPItransfer>
     870:	83 30       	cpi	r24, 0x03	; 3
     872:	11 f0       	breq	.+4      	; 0x878 <W5100write+0x26>
     874:	28 9a       	sbi	0x05, 0	; 5
     876:	5d df       	rcall	.-326    	; 0x732 <W5100_init>
     878:	28 9a       	sbi	0x05, 0	; 5
     87a:	81 e0       	ldi	r24, 0x01	; 1
     87c:	df 91       	pop	r29
     87e:	cf 91       	pop	r28
     880:	1f 91       	pop	r17
     882:	08 95       	ret

00000884 <execCmdSn>:
     884:	1f 93       	push	r17
     886:	cf 93       	push	r28
     888:	df 93       	push	r29
     88a:	c8 2f       	mov	r28, r24
     88c:	d0 e0       	ldi	r29, 0x00	; 0
     88e:	dc 2f       	mov	r29, r28
     890:	cc 27       	eor	r28, r28
     892:	cf 5f       	subi	r28, 0xFF	; 255
     894:	db 4f       	sbci	r29, 0xFB	; 251
     896:	ce 01       	movw	r24, r28
     898:	dc df       	rcall	.-72     	; 0x852 <W5100write>
     89a:	10 e0       	ldi	r17, 0x00	; 0
     89c:	01 c0       	rjmp	.+2      	; 0x8a0 <execCmdSn+0x1c>
     89e:	1f 5f       	subi	r17, 0xFF	; 255
     8a0:	ce 01       	movw	r24, r28
     8a2:	dd de       	rcall	.-582    	; 0x65e <W5100read>
     8a4:	88 23       	and	r24, r24
     8a6:	11 f0       	breq	.+4      	; 0x8ac <execCmdSn+0x28>
     8a8:	1f 3f       	cpi	r17, 0xFF	; 255
     8aa:	c9 f7       	brne	.-14     	; 0x89e <execCmdSn+0x1a>
     8ac:	df 91       	pop	r29
     8ae:	cf 91       	pop	r28
     8b0:	1f 91       	pop	r17
     8b2:	08 95       	ret

000008b4 <W5100_SetMac>:
     8b4:	ef 92       	push	r14
     8b6:	0f 93       	push	r16
     8b8:	1f 93       	push	r17
     8ba:	cf 93       	push	r28
     8bc:	df 93       	push	r29
     8be:	16 2f       	mov	r17, r22
     8c0:	d4 2f       	mov	r29, r20
     8c2:	c2 2f       	mov	r28, r18
     8c4:	68 2f       	mov	r22, r24
     8c6:	89 e0       	ldi	r24, 0x09	; 9
     8c8:	90 e0       	ldi	r25, 0x00	; 0
     8ca:	c3 df       	rcall	.-122    	; 0x852 <W5100write>
     8cc:	61 2f       	mov	r22, r17
     8ce:	8a e0       	ldi	r24, 0x0A	; 10
     8d0:	90 e0       	ldi	r25, 0x00	; 0
     8d2:	bf df       	rcall	.-130    	; 0x852 <W5100write>
     8d4:	6d 2f       	mov	r22, r29
     8d6:	8b e0       	ldi	r24, 0x0B	; 11
     8d8:	90 e0       	ldi	r25, 0x00	; 0
     8da:	bb df       	rcall	.-138    	; 0x852 <W5100write>
     8dc:	6c 2f       	mov	r22, r28
     8de:	8c e0       	ldi	r24, 0x0C	; 12
     8e0:	90 e0       	ldi	r25, 0x00	; 0
     8e2:	b7 df       	rcall	.-146    	; 0x852 <W5100write>
     8e4:	60 2f       	mov	r22, r16
     8e6:	8d e0       	ldi	r24, 0x0D	; 13
     8e8:	90 e0       	ldi	r25, 0x00	; 0
     8ea:	b3 df       	rcall	.-154    	; 0x852 <W5100write>
     8ec:	6e 2d       	mov	r22, r14
     8ee:	8e e0       	ldi	r24, 0x0E	; 14
     8f0:	90 e0       	ldi	r25, 0x00	; 0
     8f2:	af df       	rcall	.-162    	; 0x852 <W5100write>
     8f4:	81 e0       	ldi	r24, 0x01	; 1
     8f6:	df 91       	pop	r29
     8f8:	cf 91       	pop	r28
     8fa:	1f 91       	pop	r17
     8fc:	0f 91       	pop	r16
     8fe:	ef 90       	pop	r14
     900:	08 95       	ret

00000902 <W5100_SetIP>:
     902:	1f 93       	push	r17
     904:	cf 93       	push	r28
     906:	df 93       	push	r29
     908:	16 2f       	mov	r17, r22
     90a:	d4 2f       	mov	r29, r20
     90c:	c2 2f       	mov	r28, r18
     90e:	68 2f       	mov	r22, r24
     910:	8f e0       	ldi	r24, 0x0F	; 15
     912:	90 e0       	ldi	r25, 0x00	; 0
     914:	9e df       	rcall	.-196    	; 0x852 <W5100write>
     916:	61 2f       	mov	r22, r17
     918:	80 e1       	ldi	r24, 0x10	; 16
     91a:	90 e0       	ldi	r25, 0x00	; 0
     91c:	9a df       	rcall	.-204    	; 0x852 <W5100write>
     91e:	6d 2f       	mov	r22, r29
     920:	81 e1       	ldi	r24, 0x11	; 17
     922:	90 e0       	ldi	r25, 0x00	; 0
     924:	96 df       	rcall	.-212    	; 0x852 <W5100write>
     926:	6c 2f       	mov	r22, r28
     928:	82 e1       	ldi	r24, 0x12	; 18
     92a:	90 e0       	ldi	r25, 0x00	; 0
     92c:	92 df       	rcall	.-220    	; 0x852 <W5100write>
     92e:	81 e0       	ldi	r24, 0x01	; 1
     930:	df 91       	pop	r29
     932:	cf 91       	pop	r28
     934:	1f 91       	pop	r17
     936:	08 95       	ret

00000938 <W5100_SetGateway>:
     938:	1f 93       	push	r17
     93a:	cf 93       	push	r28
     93c:	df 93       	push	r29
     93e:	16 2f       	mov	r17, r22
     940:	d4 2f       	mov	r29, r20
     942:	c2 2f       	mov	r28, r18
     944:	68 2f       	mov	r22, r24
     946:	81 e0       	ldi	r24, 0x01	; 1
     948:	90 e0       	ldi	r25, 0x00	; 0
     94a:	83 df       	rcall	.-250    	; 0x852 <W5100write>
     94c:	61 2f       	mov	r22, r17
     94e:	82 e0       	ldi	r24, 0x02	; 2
     950:	90 e0       	ldi	r25, 0x00	; 0
     952:	7f df       	rcall	.-258    	; 0x852 <W5100write>
     954:	6d 2f       	mov	r22, r29
     956:	83 e0       	ldi	r24, 0x03	; 3
     958:	90 e0       	ldi	r25, 0x00	; 0
     95a:	7b df       	rcall	.-266    	; 0x852 <W5100write>
     95c:	6c 2f       	mov	r22, r28
     95e:	84 e0       	ldi	r24, 0x04	; 4
     960:	90 e0       	ldi	r25, 0x00	; 0
     962:	77 df       	rcall	.-274    	; 0x852 <W5100write>
     964:	81 e0       	ldi	r24, 0x01	; 1
     966:	df 91       	pop	r29
     968:	cf 91       	pop	r28
     96a:	1f 91       	pop	r17
     96c:	08 95       	ret

0000096e <W5100_SetMask>:
     96e:	1f 93       	push	r17
     970:	cf 93       	push	r28
     972:	df 93       	push	r29
     974:	16 2f       	mov	r17, r22
     976:	d4 2f       	mov	r29, r20
     978:	c2 2f       	mov	r28, r18
     97a:	68 2f       	mov	r22, r24
     97c:	85 e0       	ldi	r24, 0x05	; 5
     97e:	90 e0       	ldi	r25, 0x00	; 0
     980:	68 df       	rcall	.-304    	; 0x852 <W5100write>
     982:	61 2f       	mov	r22, r17
     984:	86 e0       	ldi	r24, 0x06	; 6
     986:	90 e0       	ldi	r25, 0x00	; 0
     988:	64 df       	rcall	.-312    	; 0x852 <W5100write>
     98a:	6d 2f       	mov	r22, r29
     98c:	87 e0       	ldi	r24, 0x07	; 7
     98e:	90 e0       	ldi	r25, 0x00	; 0
     990:	60 df       	rcall	.-320    	; 0x852 <W5100write>
     992:	6c 2f       	mov	r22, r28
     994:	88 e0       	ldi	r24, 0x08	; 8
     996:	90 e0       	ldi	r25, 0x00	; 0
     998:	5c df       	rcall	.-328    	; 0x852 <W5100write>
     99a:	81 e0       	ldi	r24, 0x01	; 1
     99c:	df 91       	pop	r29
     99e:	cf 91       	pop	r28
     9a0:	1f 91       	pop	r17
     9a2:	08 95       	ret

000009a4 <readSn>:
     9a4:	90 e0       	ldi	r25, 0x00	; 0
     9a6:	04 96       	adiw	r24, 0x04	; 4
     9a8:	98 2f       	mov	r25, r24
     9aa:	88 27       	eor	r24, r24
     9ac:	86 0f       	add	r24, r22
     9ae:	97 1f       	adc	r25, r23
     9b0:	56 ce       	rjmp	.-852    	; 0x65e <W5100read>
     9b2:	08 95       	ret

000009b4 <readSnTX_FSR>:
     9b4:	1f 93       	push	r17
     9b6:	cf 93       	push	r28
     9b8:	df 93       	push	r29
     9ba:	18 2f       	mov	r17, r24
     9bc:	60 e2       	ldi	r22, 0x20	; 32
     9be:	70 e0       	ldi	r23, 0x00	; 0
     9c0:	f1 df       	rcall	.-30     	; 0x9a4 <readSn>
     9c2:	c8 2f       	mov	r28, r24
     9c4:	d0 e0       	ldi	r29, 0x00	; 0
     9c6:	61 e2       	ldi	r22, 0x21	; 33
     9c8:	70 e0       	ldi	r23, 0x00	; 0
     9ca:	81 2f       	mov	r24, r17
     9cc:	eb df       	rcall	.-42     	; 0x9a4 <readSn>
     9ce:	dc 2f       	mov	r29, r28
     9d0:	cc 27       	eor	r28, r28
     9d2:	9e 01       	movw	r18, r28
     9d4:	28 2b       	or	r18, r24
     9d6:	c9 01       	movw	r24, r18
     9d8:	df 91       	pop	r29
     9da:	cf 91       	pop	r28
     9dc:	1f 91       	pop	r17
     9de:	08 95       	ret

000009e0 <readSnRX_RSR>:
     9e0:	1f 93       	push	r17
     9e2:	cf 93       	push	r28
     9e4:	df 93       	push	r29
     9e6:	18 2f       	mov	r17, r24
     9e8:	66 e2       	ldi	r22, 0x26	; 38
     9ea:	70 e0       	ldi	r23, 0x00	; 0
     9ec:	db df       	rcall	.-74     	; 0x9a4 <readSn>
     9ee:	c8 2f       	mov	r28, r24
     9f0:	d0 e0       	ldi	r29, 0x00	; 0
     9f2:	67 e2       	ldi	r22, 0x27	; 39
     9f4:	70 e0       	ldi	r23, 0x00	; 0
     9f6:	81 2f       	mov	r24, r17
     9f8:	d5 df       	rcall	.-86     	; 0x9a4 <readSn>
     9fa:	dc 2f       	mov	r29, r28
     9fc:	cc 27       	eor	r28, r28
     9fe:	9e 01       	movw	r18, r28
     a00:	28 2b       	or	r18, r24
     a02:	c9 01       	movw	r24, r18
     a04:	df 91       	pop	r29
     a06:	cf 91       	pop	r28
     a08:	1f 91       	pop	r17
     a0a:	08 95       	ret

00000a0c <writeSn>:
     a0c:	9b 01       	movw	r18, r22
     a0e:	90 e0       	ldi	r25, 0x00	; 0
     a10:	04 96       	adiw	r24, 0x04	; 4
     a12:	98 2f       	mov	r25, r24
     a14:	88 27       	eor	r24, r24
     a16:	64 2f       	mov	r22, r20
     a18:	82 0f       	add	r24, r18
     a1a:	93 1f       	adc	r25, r19
     a1c:	1a cf       	rjmp	.-460    	; 0x852 <W5100write>
     a1e:	08 95       	ret

00000a20 <execCmdS1_Automat>:
     a20:	88 23       	and	r24, r24
     a22:	41 f0       	breq	.+16     	; 0xa34 <execCmdS1_Automat+0x14>
     a24:	80 91 ca 06 	lds	r24, 0x06CA
     a28:	81 30       	cpi	r24, 0x01	; 1
     a2a:	41 f0       	breq	.+16     	; 0xa3c <execCmdS1_Automat+0x1c>
     a2c:	18 f0       	brcs	.+6      	; 0xa34 <execCmdS1_Automat+0x14>
     a2e:	82 30       	cpi	r24, 0x02	; 2
     a30:	c1 f0       	breq	.+48     	; 0xa62 <execCmdS1_Automat+0x42>
     a32:	24 c0       	rjmp	.+72     	; 0xa7c <execCmdS1_Automat+0x5c>
     a34:	81 e0       	ldi	r24, 0x01	; 1
     a36:	80 93 ca 06 	sts	0x06CA, r24
     a3a:	20 c0       	rjmp	.+64     	; 0xa7c <execCmdS1_Automat+0x5c>
     a3c:	46 2f       	mov	r20, r22
     a3e:	61 e0       	ldi	r22, 0x01	; 1
     a40:	70 e0       	ldi	r23, 0x00	; 0
     a42:	81 e0       	ldi	r24, 0x01	; 1
     a44:	e3 df       	rcall	.-58     	; 0xa0c <writeSn>
     a46:	61 e0       	ldi	r22, 0x01	; 1
     a48:	70 e0       	ldi	r23, 0x00	; 0
     a4a:	81 e0       	ldi	r24, 0x01	; 1
     a4c:	ab df       	rcall	.-170    	; 0x9a4 <readSn>
     a4e:	88 23       	and	r24, r24
     a50:	21 f0       	breq	.+8      	; 0xa5a <execCmdS1_Automat+0x3a>
     a52:	82 e0       	ldi	r24, 0x02	; 2
     a54:	80 93 ca 06 	sts	0x06CA, r24
     a58:	11 c0       	rjmp	.+34     	; 0xa7c <execCmdS1_Automat+0x5c>
     a5a:	8f ef       	ldi	r24, 0xFF	; 255
     a5c:	80 93 ca 06 	sts	0x06CA, r24
     a60:	0d c0       	rjmp	.+26     	; 0xa7c <execCmdS1_Automat+0x5c>
     a62:	61 e0       	ldi	r22, 0x01	; 1
     a64:	70 e0       	ldi	r23, 0x00	; 0
     a66:	81 e0       	ldi	r24, 0x01	; 1
     a68:	9d df       	rcall	.-198    	; 0x9a4 <readSn>
     a6a:	88 23       	and	r24, r24
     a6c:	21 f0       	breq	.+8      	; 0xa76 <execCmdS1_Automat+0x56>
     a6e:	82 e0       	ldi	r24, 0x02	; 2
     a70:	80 93 ca 06 	sts	0x06CA, r24
     a74:	03 c0       	rjmp	.+6      	; 0xa7c <execCmdS1_Automat+0x5c>
     a76:	8f ef       	ldi	r24, 0xFF	; 255
     a78:	80 93 ca 06 	sts	0x06CA, r24
     a7c:	80 91 ca 06 	lds	r24, 0x06CA
     a80:	08 95       	ret

00000a82 <execCmdS2_Automat>:
     a82:	88 23       	and	r24, r24
     a84:	41 f0       	breq	.+16     	; 0xa96 <execCmdS2_Automat+0x14>
     a86:	80 91 c9 06 	lds	r24, 0x06C9
     a8a:	81 30       	cpi	r24, 0x01	; 1
     a8c:	41 f0       	breq	.+16     	; 0xa9e <execCmdS2_Automat+0x1c>
     a8e:	18 f0       	brcs	.+6      	; 0xa96 <execCmdS2_Automat+0x14>
     a90:	82 30       	cpi	r24, 0x02	; 2
     a92:	c1 f0       	breq	.+48     	; 0xac4 <execCmdS2_Automat+0x42>
     a94:	24 c0       	rjmp	.+72     	; 0xade <execCmdS2_Automat+0x5c>
     a96:	81 e0       	ldi	r24, 0x01	; 1
     a98:	80 93 c9 06 	sts	0x06C9, r24
     a9c:	20 c0       	rjmp	.+64     	; 0xade <execCmdS2_Automat+0x5c>
     a9e:	46 2f       	mov	r20, r22
     aa0:	61 e0       	ldi	r22, 0x01	; 1
     aa2:	70 e0       	ldi	r23, 0x00	; 0
     aa4:	82 e0       	ldi	r24, 0x02	; 2
     aa6:	b2 df       	rcall	.-156    	; 0xa0c <writeSn>
     aa8:	61 e0       	ldi	r22, 0x01	; 1
     aaa:	70 e0       	ldi	r23, 0x00	; 0
     aac:	82 e0       	ldi	r24, 0x02	; 2
     aae:	7a df       	rcall	.-268    	; 0x9a4 <readSn>
     ab0:	88 23       	and	r24, r24
     ab2:	21 f0       	breq	.+8      	; 0xabc <execCmdS2_Automat+0x3a>
     ab4:	82 e0       	ldi	r24, 0x02	; 2
     ab6:	80 93 c9 06 	sts	0x06C9, r24
     aba:	11 c0       	rjmp	.+34     	; 0xade <execCmdS2_Automat+0x5c>
     abc:	8f ef       	ldi	r24, 0xFF	; 255
     abe:	80 93 c9 06 	sts	0x06C9, r24
     ac2:	0d c0       	rjmp	.+26     	; 0xade <execCmdS2_Automat+0x5c>
     ac4:	61 e0       	ldi	r22, 0x01	; 1
     ac6:	70 e0       	ldi	r23, 0x00	; 0
     ac8:	82 e0       	ldi	r24, 0x02	; 2
     aca:	6c df       	rcall	.-296    	; 0x9a4 <readSn>
     acc:	88 23       	and	r24, r24
     ace:	21 f0       	breq	.+8      	; 0xad8 <execCmdS2_Automat+0x56>
     ad0:	82 e0       	ldi	r24, 0x02	; 2
     ad2:	80 93 c9 06 	sts	0x06C9, r24
     ad6:	03 c0       	rjmp	.+6      	; 0xade <execCmdS2_Automat+0x5c>
     ad8:	8f ef       	ldi	r24, 0xFF	; 255
     ada:	80 93 c9 06 	sts	0x06C9, r24
     ade:	80 91 c9 06 	lds	r24, 0x06C9
     ae2:	08 95       	ret

00000ae4 <W5100_writeS0DPORT>:
     ae4:	cf 93       	push	r28
     ae6:	c8 2f       	mov	r28, r24
     ae8:	69 2f       	mov	r22, r25
     aea:	80 e1       	ldi	r24, 0x10	; 16
     aec:	94 e0       	ldi	r25, 0x04	; 4
     aee:	b1 de       	rcall	.-670    	; 0x852 <W5100write>
     af0:	6c 2f       	mov	r22, r28
     af2:	81 e1       	ldi	r24, 0x11	; 17
     af4:	94 e0       	ldi	r25, 0x04	; 4
     af6:	ad de       	rcall	.-678    	; 0x852 <W5100write>
     af8:	cf 91       	pop	r28
     afa:	08 95       	ret

00000afc <W5100_writeS0DIPR>:
     afc:	cf 93       	push	r28
     afe:	df 93       	push	r29
     b00:	ec 01       	movw	r28, r24
     b02:	68 81       	ld	r22, Y
     b04:	8c e0       	ldi	r24, 0x0C	; 12
     b06:	94 e0       	ldi	r25, 0x04	; 4
     b08:	a4 de       	rcall	.-696    	; 0x852 <W5100write>
     b0a:	69 81       	ldd	r22, Y+1	; 0x01
     b0c:	8d e0       	ldi	r24, 0x0D	; 13
     b0e:	94 e0       	ldi	r25, 0x04	; 4
     b10:	a0 de       	rcall	.-704    	; 0x852 <W5100write>
     b12:	6a 81       	ldd	r22, Y+2	; 0x02
     b14:	8e e0       	ldi	r24, 0x0E	; 14
     b16:	94 e0       	ldi	r25, 0x04	; 4
     b18:	9c de       	rcall	.-712    	; 0x852 <W5100write>
     b1a:	6b 81       	ldd	r22, Y+3	; 0x03
     b1c:	8f e0       	ldi	r24, 0x0F	; 15
     b1e:	94 e0       	ldi	r25, 0x04	; 4
     b20:	98 de       	rcall	.-720    	; 0x852 <W5100write>
     b22:	df 91       	pop	r29
     b24:	cf 91       	pop	r28
     b26:	08 95       	ret

00000b28 <W5100_writeS1DPORT>:
     b28:	cf 93       	push	r28
     b2a:	c8 2f       	mov	r28, r24
     b2c:	69 2f       	mov	r22, r25
     b2e:	80 e1       	ldi	r24, 0x10	; 16
     b30:	95 e0       	ldi	r25, 0x05	; 5
     b32:	8f de       	rcall	.-738    	; 0x852 <W5100write>
     b34:	6c 2f       	mov	r22, r28
     b36:	81 e1       	ldi	r24, 0x11	; 17
     b38:	95 e0       	ldi	r25, 0x05	; 5
     b3a:	8b de       	rcall	.-746    	; 0x852 <W5100write>
     b3c:	cf 91       	pop	r28
     b3e:	08 95       	ret

00000b40 <W5100_writeS1DIPR>:
     b40:	cf 93       	push	r28
     b42:	df 93       	push	r29
     b44:	ec 01       	movw	r28, r24
     b46:	68 81       	ld	r22, Y
     b48:	8c e0       	ldi	r24, 0x0C	; 12
     b4a:	95 e0       	ldi	r25, 0x05	; 5
     b4c:	82 de       	rcall	.-764    	; 0x852 <W5100write>
     b4e:	69 81       	ldd	r22, Y+1	; 0x01
     b50:	8d e0       	ldi	r24, 0x0D	; 13
     b52:	95 e0       	ldi	r25, 0x05	; 5
     b54:	7e de       	rcall	.-772    	; 0x852 <W5100write>
     b56:	6a 81       	ldd	r22, Y+2	; 0x02
     b58:	8e e0       	ldi	r24, 0x0E	; 14
     b5a:	95 e0       	ldi	r25, 0x05	; 5
     b5c:	7a de       	rcall	.-780    	; 0x852 <W5100write>
     b5e:	6b 81       	ldd	r22, Y+3	; 0x03
     b60:	8f e0       	ldi	r24, 0x0F	; 15
     b62:	95 e0       	ldi	r25, 0x05	; 5
     b64:	76 de       	rcall	.-788    	; 0x852 <W5100write>
     b66:	df 91       	pop	r29
     b68:	cf 91       	pop	r28
     b6a:	08 95       	ret

00000b6c <W5100_writeS2DPORT>:
     b6c:	cf 93       	push	r28
     b6e:	c8 2f       	mov	r28, r24
     b70:	69 2f       	mov	r22, r25
     b72:	80 e1       	ldi	r24, 0x10	; 16
     b74:	96 e0       	ldi	r25, 0x06	; 6
     b76:	6d de       	rcall	.-806    	; 0x852 <W5100write>
     b78:	6c 2f       	mov	r22, r28
     b7a:	81 e1       	ldi	r24, 0x11	; 17
     b7c:	96 e0       	ldi	r25, 0x06	; 6
     b7e:	69 de       	rcall	.-814    	; 0x852 <W5100write>
     b80:	cf 91       	pop	r28
     b82:	08 95       	ret

00000b84 <W5100_writeS2DIPR>:
     b84:	cf 93       	push	r28
     b86:	df 93       	push	r29
     b88:	ec 01       	movw	r28, r24
     b8a:	68 81       	ld	r22, Y
     b8c:	8c e0       	ldi	r24, 0x0C	; 12
     b8e:	96 e0       	ldi	r25, 0x06	; 6
     b90:	60 de       	rcall	.-832    	; 0x852 <W5100write>
     b92:	69 81       	ldd	r22, Y+1	; 0x01
     b94:	8d e0       	ldi	r24, 0x0D	; 13
     b96:	96 e0       	ldi	r25, 0x06	; 6
     b98:	5c de       	rcall	.-840    	; 0x852 <W5100write>
     b9a:	6a 81       	ldd	r22, Y+2	; 0x02
     b9c:	8e e0       	ldi	r24, 0x0E	; 14
     b9e:	96 e0       	ldi	r25, 0x06	; 6
     ba0:	58 de       	rcall	.-848    	; 0x852 <W5100write>
     ba2:	6b 81       	ldd	r22, Y+3	; 0x03
     ba4:	8f e0       	ldi	r24, 0x0F	; 15
     ba6:	96 e0       	ldi	r25, 0x06	; 6
     ba8:	54 de       	rcall	.-856    	; 0x852 <W5100write>
     baa:	df 91       	pop	r29
     bac:	cf 91       	pop	r28
     bae:	08 95       	ret

00000bb0 <W5100_send_data_processing_offset>:
     bb0:	9f 92       	push	r9
     bb2:	af 92       	push	r10
     bb4:	bf 92       	push	r11
     bb6:	cf 92       	push	r12
     bb8:	df 92       	push	r13
     bba:	ef 92       	push	r14
     bbc:	ff 92       	push	r15
     bbe:	0f 93       	push	r16
     bc0:	1f 93       	push	r17
     bc2:	cf 93       	push	r28
     bc4:	df 93       	push	r29
     bc6:	98 2e       	mov	r9, r24
     bc8:	5b 01       	movw	r10, r22
     bca:	7a 01       	movw	r14, r20
     bcc:	e9 01       	movw	r28, r18
     bce:	64 e2       	ldi	r22, 0x24	; 36
     bd0:	70 e0       	ldi	r23, 0x00	; 0
     bd2:	e8 de       	rcall	.-560    	; 0x9a4 <readSn>
     bd4:	c8 2e       	mov	r12, r24
     bd6:	d1 2c       	mov	r13, r1
     bd8:	65 e2       	ldi	r22, 0x25	; 37
     bda:	70 e0       	ldi	r23, 0x00	; 0
     bdc:	89 2d       	mov	r24, r9
     bde:	e2 de       	rcall	.-572    	; 0x9a4 <readSn>
     be0:	1c 2d       	mov	r17, r12
     be2:	00 27       	eor	r16, r16
     be4:	08 2b       	or	r16, r24
     be6:	0a 0d       	add	r16, r10
     be8:	1b 1d       	adc	r17, r11
     bea:	98 01       	movw	r18, r16
     bec:	37 70       	andi	r19, 0x07	; 7
     bee:	c9 2c       	mov	r12, r9
     bf0:	d1 2c       	mov	r13, r1
     bf2:	f6 01       	movw	r30, r12
     bf4:	ee 0f       	add	r30, r30
     bf6:	ff 1f       	adc	r31, r31
     bf8:	ef 5a       	subi	r30, 0xAF	; 175
     bfa:	f1 4f       	sbci	r31, 0xF1	; 241
     bfc:	80 81       	ld	r24, Z
     bfe:	91 81       	ldd	r25, Z+1	; 0x01
     c00:	82 0f       	add	r24, r18
     c02:	93 1f       	adc	r25, r19
     c04:	a9 01       	movw	r20, r18
     c06:	4c 0f       	add	r20, r28
     c08:	5d 1f       	adc	r21, r29
     c0a:	41 30       	cpi	r20, 0x01	; 1
     c0c:	58 40       	sbci	r21, 0x08	; 8
     c0e:	b8 f0       	brcs	.+46     	; 0xc3e <W5100_send_data_processing_offset+0x8e>
     c10:	40 e0       	ldi	r20, 0x00	; 0
     c12:	58 e0       	ldi	r21, 0x08	; 8
     c14:	5a 01       	movw	r10, r20
     c16:	a2 1a       	sub	r10, r18
     c18:	b3 0a       	sbc	r11, r19
     c1a:	a5 01       	movw	r20, r10
     c1c:	b7 01       	movw	r22, r14
     c1e:	5d dd       	rcall	.-1350   	; 0x6da <W5100writeBlock>
     c20:	ae 01       	movw	r20, r28
     c22:	4a 19       	sub	r20, r10
     c24:	5b 09       	sbc	r21, r11
     c26:	b7 01       	movw	r22, r14
     c28:	6a 0d       	add	r22, r10
     c2a:	7b 1d       	adc	r23, r11
     c2c:	f6 01       	movw	r30, r12
     c2e:	ee 0f       	add	r30, r30
     c30:	ff 1f       	adc	r31, r31
     c32:	ef 5a       	subi	r30, 0xAF	; 175
     c34:	f1 4f       	sbci	r31, 0xF1	; 241
     c36:	80 81       	ld	r24, Z
     c38:	91 81       	ldd	r25, Z+1	; 0x01
     c3a:	4f dd       	rcall	.-1378   	; 0x6da <W5100writeBlock>
     c3c:	03 c0       	rjmp	.+6      	; 0xc44 <W5100_send_data_processing_offset+0x94>
     c3e:	ae 01       	movw	r20, r28
     c40:	b7 01       	movw	r22, r14
     c42:	4b dd       	rcall	.-1386   	; 0x6da <W5100writeBlock>
     c44:	c0 0f       	add	r28, r16
     c46:	d1 1f       	adc	r29, r17
     c48:	4d 2f       	mov	r20, r29
     c4a:	64 e2       	ldi	r22, 0x24	; 36
     c4c:	70 e0       	ldi	r23, 0x00	; 0
     c4e:	89 2d       	mov	r24, r9
     c50:	dd de       	rcall	.-582    	; 0xa0c <writeSn>
     c52:	4c 2f       	mov	r20, r28
     c54:	65 e2       	ldi	r22, 0x25	; 37
     c56:	70 e0       	ldi	r23, 0x00	; 0
     c58:	89 2d       	mov	r24, r9
     c5a:	d8 de       	rcall	.-592    	; 0xa0c <writeSn>
     c5c:	df 91       	pop	r29
     c5e:	cf 91       	pop	r28
     c60:	1f 91       	pop	r17
     c62:	0f 91       	pop	r16
     c64:	ff 90       	pop	r15
     c66:	ef 90       	pop	r14
     c68:	df 90       	pop	r13
     c6a:	cf 90       	pop	r12
     c6c:	bf 90       	pop	r11
     c6e:	af 90       	pop	r10
     c70:	9f 90       	pop	r9
     c72:	08 95       	ret

00000c74 <W5100_getTXFreeSize>:
     c74:	df 92       	push	r13
     c76:	ef 92       	push	r14
     c78:	ff 92       	push	r15
     c7a:	0f 93       	push	r16
     c7c:	1f 93       	push	r17
     c7e:	cf 93       	push	r28
     c80:	df 93       	push	r29
     c82:	d8 2e       	mov	r13, r24
     c84:	0f ef       	ldi	r16, 0xFF	; 255
     c86:	1f ef       	ldi	r17, 0xFF	; 255
     c88:	e1 2c       	mov	r14, r1
     c8a:	f1 2c       	mov	r15, r1
     c8c:	8d 2d       	mov	r24, r13
     c8e:	92 de       	rcall	.-732    	; 0x9b4 <readSnTX_FSR>
     c90:	ec 01       	movw	r28, r24
     c92:	00 97       	sbiw	r24, 0x00	; 0
     c94:	19 f0       	breq	.+6      	; 0xc9c <W5100_getTXFreeSize+0x28>
     c96:	8d 2d       	mov	r24, r13
     c98:	8d de       	rcall	.-742    	; 0x9b4 <readSnTX_FSR>
     c9a:	7c 01       	movw	r14, r24
     c9c:	ec 16       	cp	r14, r28
     c9e:	fd 06       	cpc	r15, r29
     ca0:	29 f0       	breq	.+10     	; 0xcac <W5100_getTXFreeSize+0x38>
     ca2:	01 50       	subi	r16, 0x01	; 1
     ca4:	11 09       	sbc	r17, r1
     ca6:	01 15       	cp	r16, r1
     ca8:	11 05       	cpc	r17, r1
     caa:	81 f7       	brne	.-32     	; 0xc8c <W5100_getTXFreeSize+0x18>
     cac:	c7 01       	movw	r24, r14
     cae:	df 91       	pop	r29
     cb0:	cf 91       	pop	r28
     cb2:	1f 91       	pop	r17
     cb4:	0f 91       	pop	r16
     cb6:	ff 90       	pop	r15
     cb8:	ef 90       	pop	r14
     cba:	df 90       	pop	r13
     cbc:	08 95       	ret

00000cbe <bufferData>:
     cbe:	df 92       	push	r13
     cc0:	ef 92       	push	r14
     cc2:	ff 92       	push	r15
     cc4:	0f 93       	push	r16
     cc6:	1f 93       	push	r17
     cc8:	cf 93       	push	r28
     cca:	df 93       	push	r29
     ccc:	d8 2e       	mov	r13, r24
     cce:	8b 01       	movw	r16, r22
     cd0:	7a 01       	movw	r14, r20
     cd2:	e9 01       	movw	r28, r18
     cd4:	cf df       	rcall	.-98     	; 0xc74 <W5100_getTXFreeSize>
     cd6:	8c 17       	cp	r24, r28
     cd8:	9d 07       	cpc	r25, r29
     cda:	18 f4       	brcc	.+6      	; 0xce2 <bufferData+0x24>
     cdc:	8d 2d       	mov	r24, r13
     cde:	ca df       	rcall	.-108    	; 0xc74 <W5100_getTXFreeSize>
     ce0:	ec 01       	movw	r28, r24
     ce2:	9e 01       	movw	r18, r28
     ce4:	a7 01       	movw	r20, r14
     ce6:	b8 01       	movw	r22, r16
     ce8:	8d 2d       	mov	r24, r13
     cea:	62 df       	rcall	.-316    	; 0xbb0 <W5100_send_data_processing_offset>
     cec:	ce 01       	movw	r24, r28
     cee:	df 91       	pop	r29
     cf0:	cf 91       	pop	r28
     cf2:	1f 91       	pop	r17
     cf4:	0f 91       	pop	r16
     cf6:	ff 90       	pop	r15
     cf8:	ef 90       	pop	r14
     cfa:	df 90       	pop	r13
     cfc:	08 95       	ret

00000cfe <IntOff>:
     cfe:	8f b7       	in	r24, 0x3f	; 63
     d00:	80 78       	andi	r24, 0x80	; 128
     d02:	80 93 c8 08 	sts	0x08C8, r24
     d06:	f8 94       	cli
     d08:	80 91 c8 08 	lds	r24, 0x08C8
     d0c:	08 95       	ret

00000d0e <IntOn>:
     d0e:	80 91 c8 08 	lds	r24, 0x08C8
     d12:	88 23       	and	r24, r24
     d14:	09 f0       	breq	.+2      	; 0xd18 <IntOn+0xa>
     d16:	78 94       	sei
     d18:	80 91 c8 08 	lds	r24, 0x08C8
     d1c:	08 95       	ret

00000d1e <WdtOn>:
     d1e:	a8 95       	wdr
     d20:	2f e0       	ldi	r18, 0x0F	; 15
     d22:	88 e1       	ldi	r24, 0x18	; 24
     d24:	90 e0       	ldi	r25, 0x00	; 0
     d26:	0f b6       	in	r0, 0x3f	; 63
     d28:	f8 94       	cli
     d2a:	a8 95       	wdr
     d2c:	80 93 60 00 	sts	0x0060, r24
     d30:	0f be       	out	0x3f, r0	; 63
     d32:	20 93 60 00 	sts	0x0060, r18
     d36:	08 95       	ret

00000d38 <Timer16Alloc>:
     d38:	80 91 6d 03 	lds	r24, 0x036D
     d3c:	91 e0       	ldi	r25, 0x01	; 1
     d3e:	98 0f       	add	r25, r24
     d40:	90 93 6d 03 	sts	0x036D, r25
     d44:	08 95       	ret

00000d46 <Timer32Alloc>:
     d46:	80 91 6c 03 	lds	r24, 0x036C
     d4a:	91 e0       	ldi	r25, 0x01	; 1
     d4c:	98 0f       	add	r25, r24
     d4e:	90 93 6c 03 	sts	0x036C, r25
     d52:	08 95       	ret

00000d54 <StartTimer8>:
     d54:	cf 93       	push	r28
     d56:	df 93       	push	r29
     d58:	c8 2f       	mov	r28, r24
     d5a:	d6 2f       	mov	r29, r22
     d5c:	d0 df       	rcall	.-96     	; 0xcfe <IntOff>
     d5e:	ec 2f       	mov	r30, r28
     d60:	f0 e0       	ldi	r31, 0x00	; 0
     d62:	e8 59       	subi	r30, 0x98	; 152
     d64:	f7 4f       	sbci	r31, 0xF7	; 247
     d66:	d0 83       	st	Z, r29
     d68:	dd 23       	and	r29, r29
     d6a:	a9 f0       	breq	.+42     	; 0xd96 <StartTimer8+0x42>
     d6c:	ec 2f       	mov	r30, r28
     d6e:	e6 95       	lsr	r30
     d70:	e6 95       	lsr	r30
     d72:	e6 95       	lsr	r30
     d74:	f0 e0       	ldi	r31, 0x00	; 0
     d76:	e6 50       	subi	r30, 0x06	; 6
     d78:	f9 4f       	sbci	r31, 0xF9	; 249
     d7a:	40 81       	ld	r20, Z
     d7c:	c7 70       	andi	r28, 0x07	; 7
     d7e:	21 e0       	ldi	r18, 0x01	; 1
     d80:	30 e0       	ldi	r19, 0x00	; 0
     d82:	c9 01       	movw	r24, r18
     d84:	02 c0       	rjmp	.+4      	; 0xd8a <StartTimer8+0x36>
     d86:	88 0f       	add	r24, r24
     d88:	99 1f       	adc	r25, r25
     d8a:	ca 95       	dec	r28
     d8c:	e2 f7       	brpl	.-8      	; 0xd86 <StartTimer8+0x32>
     d8e:	80 95       	com	r24
     d90:	84 23       	and	r24, r20
     d92:	80 83       	st	Z, r24
     d94:	13 c0       	rjmp	.+38     	; 0xdbc <StartTimer8+0x68>
     d96:	ec 2f       	mov	r30, r28
     d98:	e6 95       	lsr	r30
     d9a:	e6 95       	lsr	r30
     d9c:	e6 95       	lsr	r30
     d9e:	f0 e0       	ldi	r31, 0x00	; 0
     da0:	e6 50       	subi	r30, 0x06	; 6
     da2:	f9 4f       	sbci	r31, 0xF9	; 249
     da4:	40 81       	ld	r20, Z
     da6:	c7 70       	andi	r28, 0x07	; 7
     da8:	21 e0       	ldi	r18, 0x01	; 1
     daa:	30 e0       	ldi	r19, 0x00	; 0
     dac:	c9 01       	movw	r24, r18
     dae:	02 c0       	rjmp	.+4      	; 0xdb4 <StartTimer8+0x60>
     db0:	88 0f       	add	r24, r24
     db2:	99 1f       	adc	r25, r25
     db4:	ca 95       	dec	r28
     db6:	e2 f7       	brpl	.-8      	; 0xdb0 <StartTimer8+0x5c>
     db8:	84 2b       	or	r24, r20
     dba:	80 83       	st	Z, r24
     dbc:	a8 df       	rcall	.-176    	; 0xd0e <IntOn>
     dbe:	df 91       	pop	r29
     dc0:	cf 91       	pop	r28
     dc2:	08 95       	ret

00000dc4 <StartTimer16>:
     dc4:	1f 93       	push	r17
     dc6:	cf 93       	push	r28
     dc8:	df 93       	push	r29
     dca:	18 2f       	mov	r17, r24
     dcc:	eb 01       	movw	r28, r22
     dce:	97 df       	rcall	.-210    	; 0xcfe <IntOff>
     dd0:	e1 2f       	mov	r30, r17
     dd2:	f0 e0       	ldi	r31, 0x00	; 0
     dd4:	ee 0f       	add	r30, r30
     dd6:	ff 1f       	adc	r31, r31
     dd8:	e8 55       	subi	r30, 0x58	; 88
     dda:	f8 4f       	sbci	r31, 0xF8	; 248
     ddc:	d1 83       	std	Z+1, r29	; 0x01
     dde:	c0 83       	st	Z, r28
     de0:	cd 2b       	or	r28, r29
     de2:	a9 f0       	breq	.+42     	; 0xe0e <StartTimer16+0x4a>
     de4:	e1 2f       	mov	r30, r17
     de6:	e6 95       	lsr	r30
     de8:	e6 95       	lsr	r30
     dea:	e6 95       	lsr	r30
     dec:	f0 e0       	ldi	r31, 0x00	; 0
     dee:	e3 51       	subi	r30, 0x13	; 19
     df0:	f9 4f       	sbci	r31, 0xF9	; 249
     df2:	40 81       	ld	r20, Z
     df4:	17 70       	andi	r17, 0x07	; 7
     df6:	21 e0       	ldi	r18, 0x01	; 1
     df8:	30 e0       	ldi	r19, 0x00	; 0
     dfa:	c9 01       	movw	r24, r18
     dfc:	02 c0       	rjmp	.+4      	; 0xe02 <StartTimer16+0x3e>
     dfe:	88 0f       	add	r24, r24
     e00:	99 1f       	adc	r25, r25
     e02:	1a 95       	dec	r17
     e04:	e2 f7       	brpl	.-8      	; 0xdfe <StartTimer16+0x3a>
     e06:	80 95       	com	r24
     e08:	84 23       	and	r24, r20
     e0a:	80 83       	st	Z, r24
     e0c:	13 c0       	rjmp	.+38     	; 0xe34 <StartTimer16+0x70>
     e0e:	e1 2f       	mov	r30, r17
     e10:	e6 95       	lsr	r30
     e12:	e6 95       	lsr	r30
     e14:	e6 95       	lsr	r30
     e16:	f0 e0       	ldi	r31, 0x00	; 0
     e18:	e3 51       	subi	r30, 0x13	; 19
     e1a:	f9 4f       	sbci	r31, 0xF9	; 249
     e1c:	40 81       	ld	r20, Z
     e1e:	17 70       	andi	r17, 0x07	; 7
     e20:	21 e0       	ldi	r18, 0x01	; 1
     e22:	30 e0       	ldi	r19, 0x00	; 0
     e24:	c9 01       	movw	r24, r18
     e26:	02 c0       	rjmp	.+4      	; 0xe2c <StartTimer16+0x68>
     e28:	88 0f       	add	r24, r24
     e2a:	99 1f       	adc	r25, r25
     e2c:	1a 95       	dec	r17
     e2e:	e2 f7       	brpl	.-8      	; 0xe28 <StartTimer16+0x64>
     e30:	84 2b       	or	r24, r20
     e32:	80 83       	st	Z, r24
     e34:	6c df       	rcall	.-296    	; 0xd0e <IntOn>
     e36:	df 91       	pop	r29
     e38:	cf 91       	pop	r28
     e3a:	1f 91       	pop	r17
     e3c:	08 95       	ret

00000e3e <SlavesOn>:
     e3e:	28 2f       	mov	r18, r24
     e40:	30 e0       	ldi	r19, 0x00	; 0
     e42:	f9 01       	movw	r30, r18
     e44:	ee 0f       	add	r30, r30
     e46:	ff 1f       	adc	r31, r31
     e48:	ee 0f       	add	r30, r30
     e4a:	ff 1f       	adc	r31, r31
     e4c:	ea 52       	subi	r30, 0x2A	; 42
     e4e:	f9 4f       	sbci	r31, 0xF9	; 249
     e50:	10 82       	st	Z, r1
     e52:	11 82       	std	Z+1, r1	; 0x01
     e54:	12 82       	std	Z+2, r1	; 0x02
     e56:	13 82       	std	Z+3, r1	; 0x03
     e58:	f9 01       	movw	r30, r18
     e5a:	e3 54       	subi	r30, 0x43	; 67
     e5c:	f6 4f       	sbci	r31, 0xF6	; 246
     e5e:	60 81       	ld	r22, Z
     e60:	94 e6       	ldi	r25, 0x64	; 100
     e62:	69 9f       	mul	r22, r25
     e64:	b0 01       	movw	r22, r0
     e66:	11 24       	eor	r1, r1
     e68:	90 91 d5 06 	lds	r25, 0x06D5
     e6c:	9f 5f       	subi	r25, 0xFF	; 255
     e6e:	89 0f       	add	r24, r25
     e70:	a9 cf       	rjmp	.-174    	; 0xdc4 <StartTimer16>
     e72:	08 95       	ret

00000e74 <NextSlave>:
     e74:	2f 92       	push	r2
     e76:	3f 92       	push	r3
     e78:	4f 92       	push	r4
     e7a:	5f 92       	push	r5
     e7c:	6f 92       	push	r6
     e7e:	7f 92       	push	r7
     e80:	8f 92       	push	r8
     e82:	9f 92       	push	r9
     e84:	af 92       	push	r10
     e86:	bf 92       	push	r11
     e88:	cf 92       	push	r12
     e8a:	df 92       	push	r13
     e8c:	ef 92       	push	r14
     e8e:	ff 92       	push	r15
     e90:	0f 93       	push	r16
     e92:	1f 93       	push	r17
     e94:	cf 93       	push	r28
     e96:	df 93       	push	r29
     e98:	38 2e       	mov	r3, r24
     e9a:	90 e0       	ldi	r25, 0x00	; 0
     e9c:	fc 01       	movw	r30, r24
     e9e:	ee 0f       	add	r30, r30
     ea0:	ff 1f       	adc	r31, r31
     ea2:	8e 0f       	add	r24, r30
     ea4:	9f 1f       	adc	r25, r31
     ea6:	fc 01       	movw	r30, r24
     ea8:	e2 5d       	subi	r30, 0xD2	; 210
     eaa:	fc 4f       	sbci	r31, 0xFC	; 252
     eac:	44 90       	lpm	r4, Z
     eae:	51 2c       	mov	r5, r1
     eb0:	b1 2c       	mov	r11, r1
     eb2:	03 2d       	mov	r16, r3
     eb4:	10 e0       	ldi	r17, 0x00	; 0
     eb6:	e8 01       	movw	r28, r16
     eb8:	c0 52       	subi	r28, 0x20	; 32
     eba:	d6 4f       	sbci	r29, 0xF6	; 246
     ebc:	c8 01       	movw	r24, r16
     ebe:	88 0f       	add	r24, r24
     ec0:	99 1f       	adc	r25, r25
     ec2:	9c 01       	movw	r18, r24
     ec4:	24 59       	subi	r18, 0x94	; 148
     ec6:	34 4f       	sbci	r19, 0xF4	; 244
     ec8:	39 01       	movw	r6, r18
     eca:	fc 01       	movw	r30, r24
     ecc:	eb 5f       	subi	r30, 0xFB	; 251
     ece:	f5 4f       	sbci	r31, 0xF5	; 245
     ed0:	6f 01       	movw	r12, r30
     ed2:	c8 01       	movw	r24, r16
     ed4:	88 0f       	add	r24, r24
     ed6:	99 1f       	adc	r25, r25
     ed8:	88 0f       	add	r24, r24
     eda:	99 1f       	adc	r25, r25
     edc:	9c 01       	movw	r18, r24
     ede:	2a 52       	subi	r18, 0x2A	; 42
     ee0:	39 4f       	sbci	r19, 0xF9	; 249
     ee2:	49 01       	movw	r8, r18
     ee4:	78 01       	movw	r14, r16
     ee6:	88 81       	ld	r24, Y
     ee8:	8f 5f       	subi	r24, 0xFF	; 255
     eea:	88 83       	st	Y, r24
     eec:	84 11       	cpse	r24, r4
     eee:	23 c0       	rjmp	.+70     	; 0xf36 <NextSlave+0xc2>
     ef0:	18 82       	st	Y, r1
     ef2:	20 90 d5 06 	lds	r2, 0x06D5
     ef6:	23 94       	inc	r2
     ef8:	23 94       	inc	r2
     efa:	23 0c       	add	r2, r3
     efc:	00 df       	rcall	.-512    	; 0xcfe <IntOff>
     efe:	e2 2d       	mov	r30, r2
     f00:	f0 e0       	ldi	r31, 0x00	; 0
     f02:	ee 0f       	add	r30, r30
     f04:	ff 1f       	adc	r31, r31
     f06:	e8 55       	subi	r30, 0x58	; 88
     f08:	f8 4f       	sbci	r31, 0xF8	; 248
     f0a:	a0 80       	ld	r10, Z
     f0c:	b1 80       	ldd	r11, Z+1	; 0x01
     f0e:	ff de       	rcall	.-514    	; 0xd0e <IntOn>
     f10:	a0 94       	com	r10
     f12:	b0 94       	com	r11
     f14:	f3 01       	movw	r30, r6
     f16:	b1 82       	std	Z+1, r11	; 0x01
     f18:	a0 82       	st	Z, r10
     f1a:	f6 01       	movw	r30, r12
     f1c:	80 81       	ld	r24, Z
     f1e:	91 81       	ldd	r25, Z+1	; 0x01
     f20:	8a 15       	cp	r24, r10
     f22:	9b 05       	cpc	r25, r11
     f24:	10 f4       	brcc	.+4      	; 0xf2a <NextSlave+0xb6>
     f26:	b1 82       	std	Z+1, r11	; 0x01
     f28:	a0 82       	st	Z, r10
     f2a:	6f ef       	ldi	r22, 0xFF	; 255
     f2c:	7f ef       	ldi	r23, 0xFF	; 255
     f2e:	82 2d       	mov	r24, r2
     f30:	49 df       	rcall	.-366    	; 0xdc4 <StartTimer16>
     f32:	bb 24       	eor	r11, r11
     f34:	b3 94       	inc	r11
     f36:	f4 01       	movw	r30, r8
     f38:	80 81       	ld	r24, Z
     f3a:	91 81       	ldd	r25, Z+1	; 0x01
     f3c:	a2 81       	ldd	r26, Z+2	; 0x02
     f3e:	b3 81       	ldd	r27, Z+3	; 0x03
     f40:	08 80       	ld	r0, Y
     f42:	04 c0       	rjmp	.+8      	; 0xf4c <NextSlave+0xd8>
     f44:	b6 95       	lsr	r27
     f46:	a7 95       	ror	r26
     f48:	97 95       	ror	r25
     f4a:	87 95       	ror	r24
     f4c:	0a 94       	dec	r0
     f4e:	d2 f7       	brpl	.-12     	; 0xf44 <NextSlave+0xd0>
     f50:	80 ff       	sbrs	r24, 0
     f52:	03 c0       	rjmp	.+6      	; 0xf5a <NextSlave+0xe6>
     f54:	53 94       	inc	r5
     f56:	54 14       	cp	r5, r4
     f58:	28 f2       	brcs	.-118    	; 0xee4 <NextSlave+0x70>
     f5a:	54 10       	cpse	r5, r4
     f5c:	12 c0       	rjmp	.+36     	; 0xf82 <NextSlave+0x10e>
     f5e:	83 2d       	mov	r24, r3
     f60:	6e df       	rcall	.-292    	; 0xe3e <SlavesOn>
     f62:	f7 01       	movw	r30, r14
     f64:	e0 52       	subi	r30, 0x20	; 32
     f66:	f6 4f       	sbci	r31, 0xF6	; 246
     f68:	80 81       	ld	r24, Z
     f6a:	8f 5f       	subi	r24, 0xFF	; 255
     f6c:	58 16       	cp	r5, r24
     f6e:	29 f0       	breq	.+10     	; 0xf7a <NextSlave+0x106>
     f70:	f7 01       	movw	r30, r14
     f72:	e0 52       	subi	r30, 0x20	; 32
     f74:	f6 4f       	sbci	r31, 0xF6	; 246
     f76:	80 83       	st	Z, r24
     f78:	04 c0       	rjmp	.+8      	; 0xf82 <NextSlave+0x10e>
     f7a:	f7 01       	movw	r30, r14
     f7c:	e0 52       	subi	r30, 0x20	; 32
     f7e:	f6 4f       	sbci	r31, 0xF6	; 246
     f80:	10 82       	st	Z, r1
     f82:	f7 01       	movw	r30, r14
     f84:	eb 51       	subi	r30, 0x1B	; 27
     f86:	f6 4f       	sbci	r31, 0xF6	; 246
     f88:	10 82       	st	Z, r1
     f8a:	8b 2d       	mov	r24, r11
     f8c:	df 91       	pop	r29
     f8e:	cf 91       	pop	r28
     f90:	1f 91       	pop	r17
     f92:	0f 91       	pop	r16
     f94:	ff 90       	pop	r15
     f96:	ef 90       	pop	r14
     f98:	df 90       	pop	r13
     f9a:	cf 90       	pop	r12
     f9c:	bf 90       	pop	r11
     f9e:	af 90       	pop	r10
     fa0:	9f 90       	pop	r9
     fa2:	8f 90       	pop	r8
     fa4:	7f 90       	pop	r7
     fa6:	6f 90       	pop	r6
     fa8:	5f 90       	pop	r5
     faa:	4f 90       	pop	r4
     fac:	3f 90       	pop	r3
     fae:	2f 90       	pop	r2
     fb0:	08 95       	ret

00000fb2 <FailSlave>:
     fb2:	0f 93       	push	r16
     fb4:	1f 93       	push	r17
     fb6:	cf 93       	push	r28
     fb8:	df 93       	push	r29
     fba:	e8 2f       	mov	r30, r24
     fbc:	f0 e0       	ldi	r31, 0x00	; 0
     fbe:	df 01       	movw	r26, r30
     fc0:	ae 50       	subi	r26, 0x0E	; 14
     fc2:	b6 4f       	sbci	r27, 0xF6	; 246
     fc4:	9c 91       	ld	r25, X
     fc6:	92 30       	cpi	r25, 0x02	; 2
     fc8:	21 f4       	brne	.+8      	; 0xfd2 <FailSlave+0x20>
     fca:	fd 01       	movw	r30, r26
     fcc:	10 82       	st	Z, r1
     fce:	80 e0       	ldi	r24, 0x00	; 0
     fd0:	58 c0       	rjmp	.+176    	; 0x1082 <FailSlave+0xd0>
     fd2:	df 01       	movw	r26, r30
     fd4:	a2 95       	swap	r26
     fd6:	b2 95       	swap	r27
     fd8:	b0 7f       	andi	r27, 0xF0	; 240
     fda:	ba 27       	eor	r27, r26
     fdc:	a0 7f       	andi	r26, 0xF0	; 240
     fde:	ba 27       	eor	r27, r26
     fe0:	a0 59       	subi	r26, 0x90	; 144
     fe2:	bd 4e       	sbci	r27, 0xED	; 237
     fe4:	18 96       	adiw	r26, 0x08	; 8
     fe6:	2d 91       	ld	r18, X+
     fe8:	3c 91       	ld	r19, X
     fea:	19 97       	sbiw	r26, 0x09	; 9
     fec:	2f 5f       	subi	r18, 0xFF	; 255
     fee:	3f 4f       	sbci	r19, 0xFF	; 255
     ff0:	19 96       	adiw	r26, 0x09	; 9
     ff2:	3c 93       	st	X, r19
     ff4:	2e 93       	st	-X, r18
     ff6:	18 97       	sbiw	r26, 0x08	; 8
     ff8:	df 01       	movw	r26, r30
     ffa:	a6 52       	subi	r26, 0x26	; 38
     ffc:	b9 4f       	sbci	r27, 0xF9	; 249
     ffe:	9c 91       	ld	r25, X
    1000:	9f 5f       	subi	r25, 0xFF	; 255
    1002:	9c 93       	st	X, r25
    1004:	df 01       	movw	r26, r30
    1006:	a8 5c       	subi	r26, 0xC8	; 200
    1008:	b5 4f       	sbci	r27, 0xF5	; 245
    100a:	2c 91       	ld	r18, X
    100c:	92 13       	cpse	r25, r18
    100e:	38 c0       	rjmp	.+112    	; 0x1080 <FailSlave+0xce>
    1010:	df 01       	movw	r26, r30
    1012:	a0 52       	subi	r26, 0x20	; 32
    1014:	b6 4f       	sbci	r27, 0xF6	; 246
    1016:	41 e0       	ldi	r20, 0x01	; 1
    1018:	50 e0       	ldi	r21, 0x00	; 0
    101a:	60 e0       	ldi	r22, 0x00	; 0
    101c:	70 e0       	ldi	r23, 0x00	; 0
    101e:	0c 90       	ld	r0, X
    1020:	04 c0       	rjmp	.+8      	; 0x102a <FailSlave+0x78>
    1022:	44 0f       	add	r20, r20
    1024:	55 1f       	adc	r21, r21
    1026:	66 1f       	adc	r22, r22
    1028:	77 1f       	adc	r23, r23
    102a:	0a 94       	dec	r0
    102c:	d2 f7       	brpl	.-12     	; 0x1022 <FailSlave+0x70>
    102e:	df 01       	movw	r26, r30
    1030:	aa 0f       	add	r26, r26
    1032:	bb 1f       	adc	r27, r27
    1034:	aa 0f       	add	r26, r26
    1036:	bb 1f       	adc	r27, r27
    1038:	ed 01       	movw	r28, r26
    103a:	c0 5a       	subi	r28, 0xA0	; 160
    103c:	dd 4e       	sbci	r29, 0xED	; 237
    103e:	08 81       	ld	r16, Y
    1040:	19 81       	ldd	r17, Y+1	; 0x01
    1042:	2a 81       	ldd	r18, Y+2	; 0x02
    1044:	3b 81       	ldd	r19, Y+3	; 0x03
    1046:	04 2b       	or	r16, r20
    1048:	15 2b       	or	r17, r21
    104a:	26 2b       	or	r18, r22
    104c:	37 2b       	or	r19, r23
    104e:	08 83       	st	Y, r16
    1050:	19 83       	std	Y+1, r17	; 0x01
    1052:	2a 83       	std	Y+2, r18	; 0x02
    1054:	3b 83       	std	Y+3, r19	; 0x03
    1056:	aa 52       	subi	r26, 0x2A	; 42
    1058:	b9 4f       	sbci	r27, 0xF9	; 249
    105a:	0d 91       	ld	r16, X+
    105c:	1d 91       	ld	r17, X+
    105e:	2d 91       	ld	r18, X+
    1060:	3c 91       	ld	r19, X
    1062:	13 97       	sbiw	r26, 0x03	; 3
    1064:	40 2b       	or	r20, r16
    1066:	51 2b       	or	r21, r17
    1068:	62 2b       	or	r22, r18
    106a:	73 2b       	or	r23, r19
    106c:	4d 93       	st	X+, r20
    106e:	5d 93       	st	X+, r21
    1070:	6d 93       	st	X+, r22
    1072:	7c 93       	st	X, r23
    1074:	13 97       	sbiw	r26, 0x03	; 3
    1076:	e6 52       	subi	r30, 0x26	; 38
    1078:	f9 4f       	sbci	r31, 0xF9	; 249
    107a:	10 82       	st	Z, r1
    107c:	fb de       	rcall	.-522    	; 0xe74 <NextSlave>
    107e:	01 c0       	rjmp	.+2      	; 0x1082 <FailSlave+0xd0>
    1080:	80 e0       	ldi	r24, 0x00	; 0
    1082:	df 91       	pop	r29
    1084:	cf 91       	pop	r28
    1086:	1f 91       	pop	r17
    1088:	0f 91       	pop	r16
    108a:	08 95       	ret

0000108c <StartTimer32>:
    108c:	cf 92       	push	r12
    108e:	df 92       	push	r13
    1090:	ef 92       	push	r14
    1092:	ff 92       	push	r15
    1094:	cf 93       	push	r28
    1096:	c8 2f       	mov	r28, r24
    1098:	6a 01       	movw	r12, r20
    109a:	7b 01       	movw	r14, r22
    109c:	30 de       	rcall	.-928    	; 0xcfe <IntOff>
    109e:	ec 2f       	mov	r30, r28
    10a0:	f0 e0       	ldi	r31, 0x00	; 0
    10a2:	ee 0f       	add	r30, r30
    10a4:	ff 1f       	adc	r31, r31
    10a6:	ee 0f       	add	r30, r30
    10a8:	ff 1f       	adc	r31, r31
    10aa:	e8 5f       	subi	r30, 0xF8	; 248
    10ac:	f8 4f       	sbci	r31, 0xF8	; 248
    10ae:	c0 82       	st	Z, r12
    10b0:	d1 82       	std	Z+1, r13	; 0x01
    10b2:	e2 82       	std	Z+2, r14	; 0x02
    10b4:	f3 82       	std	Z+3, r15	; 0x03
    10b6:	cd 28       	or	r12, r13
    10b8:	ce 28       	or	r12, r14
    10ba:	cf 28       	or	r12, r15
    10bc:	a9 f0       	breq	.+42     	; 0x10e8 <StartTimer32+0x5c>
    10be:	ec 2f       	mov	r30, r28
    10c0:	e6 95       	lsr	r30
    10c2:	e6 95       	lsr	r30
    10c4:	e6 95       	lsr	r30
    10c6:	f0 e0       	ldi	r31, 0x00	; 0
    10c8:	e9 51       	subi	r30, 0x19	; 25
    10ca:	f9 4f       	sbci	r31, 0xF9	; 249
    10cc:	40 81       	ld	r20, Z
    10ce:	c7 70       	andi	r28, 0x07	; 7
    10d0:	21 e0       	ldi	r18, 0x01	; 1
    10d2:	30 e0       	ldi	r19, 0x00	; 0
    10d4:	c9 01       	movw	r24, r18
    10d6:	02 c0       	rjmp	.+4      	; 0x10dc <StartTimer32+0x50>
    10d8:	88 0f       	add	r24, r24
    10da:	99 1f       	adc	r25, r25
    10dc:	ca 95       	dec	r28
    10de:	e2 f7       	brpl	.-8      	; 0x10d8 <StartTimer32+0x4c>
    10e0:	80 95       	com	r24
    10e2:	84 23       	and	r24, r20
    10e4:	80 83       	st	Z, r24
    10e6:	13 c0       	rjmp	.+38     	; 0x110e <StartTimer32+0x82>
    10e8:	ec 2f       	mov	r30, r28
    10ea:	e6 95       	lsr	r30
    10ec:	e6 95       	lsr	r30
    10ee:	e6 95       	lsr	r30
    10f0:	f0 e0       	ldi	r31, 0x00	; 0
    10f2:	e9 51       	subi	r30, 0x19	; 25
    10f4:	f9 4f       	sbci	r31, 0xF9	; 249
    10f6:	40 81       	ld	r20, Z
    10f8:	c7 70       	andi	r28, 0x07	; 7
    10fa:	21 e0       	ldi	r18, 0x01	; 1
    10fc:	30 e0       	ldi	r19, 0x00	; 0
    10fe:	c9 01       	movw	r24, r18
    1100:	02 c0       	rjmp	.+4      	; 0x1106 <StartTimer32+0x7a>
    1102:	88 0f       	add	r24, r24
    1104:	99 1f       	adc	r25, r25
    1106:	ca 95       	dec	r28
    1108:	e2 f7       	brpl	.-8      	; 0x1102 <StartTimer32+0x76>
    110a:	84 2b       	or	r24, r20
    110c:	80 83       	st	Z, r24
    110e:	ff dd       	rcall	.-1026   	; 0xd0e <IntOn>
    1110:	cf 91       	pop	r28
    1112:	ff 90       	pop	r15
    1114:	ef 90       	pop	r14
    1116:	df 90       	pop	r13
    1118:	cf 90       	pop	r12
    111a:	08 95       	ret

0000111c <Timer16Stopp>:
    111c:	cf 93       	push	r28
    111e:	c8 2f       	mov	r28, r24
    1120:	ee dd       	rcall	.-1060   	; 0xcfe <IntOff>
    1122:	ec 2f       	mov	r30, r28
    1124:	e6 95       	lsr	r30
    1126:	e6 95       	lsr	r30
    1128:	e6 95       	lsr	r30
    112a:	f0 e0       	ldi	r31, 0x00	; 0
    112c:	e3 51       	subi	r30, 0x13	; 19
    112e:	f9 4f       	sbci	r31, 0xF9	; 249
    1130:	20 81       	ld	r18, Z
    1132:	30 e0       	ldi	r19, 0x00	; 0
    1134:	8c 2f       	mov	r24, r28
    1136:	87 70       	andi	r24, 0x07	; 7
    1138:	02 c0       	rjmp	.+4      	; 0x113e <Timer16Stopp+0x22>
    113a:	35 95       	asr	r19
    113c:	27 95       	ror	r18
    113e:	8a 95       	dec	r24
    1140:	e2 f7       	brpl	.-8      	; 0x113a <Timer16Stopp+0x1e>
    1142:	20 ff       	sbrs	r18, 0
    1144:	0d c0       	rjmp	.+26     	; 0x1160 <Timer16Stopp+0x44>
    1146:	ec 2f       	mov	r30, r28
    1148:	f0 e0       	ldi	r31, 0x00	; 0
    114a:	ee 0f       	add	r30, r30
    114c:	ff 1f       	adc	r31, r31
    114e:	e8 55       	subi	r30, 0x58	; 88
    1150:	f8 4f       	sbci	r31, 0xF8	; 248
    1152:	20 81       	ld	r18, Z
    1154:	31 81       	ldd	r19, Z+1	; 0x01
    1156:	c1 e0       	ldi	r28, 0x01	; 1
    1158:	23 2b       	or	r18, r19
    115a:	19 f0       	breq	.+6      	; 0x1162 <Timer16Stopp+0x46>
    115c:	c0 e0       	ldi	r28, 0x00	; 0
    115e:	01 c0       	rjmp	.+2      	; 0x1162 <Timer16Stopp+0x46>
    1160:	c0 e0       	ldi	r28, 0x00	; 0
    1162:	d5 dd       	rcall	.-1110   	; 0xd0e <IntOn>
    1164:	8c 2f       	mov	r24, r28
    1166:	cf 91       	pop	r28
    1168:	08 95       	ret

0000116a <TimeInit>:
    116a:	d9 dd       	rcall	.-1102   	; 0xd1e <WdtOn>
    116c:	10 92 80 00 	sts	0x0080, r1
    1170:	8a ee       	ldi	r24, 0xEA	; 234
    1172:	80 93 81 00 	sts	0x0081, r24
    1176:	80 e2       	ldi	r24, 0x20	; 32
    1178:	9e e4       	ldi	r25, 0x4E	; 78
    117a:	90 93 89 00 	sts	0x0089, r25
    117e:	80 93 88 00 	sts	0x0088, r24
    1182:	ef e6       	ldi	r30, 0x6F	; 111
    1184:	f0 e0       	ldi	r31, 0x00	; 0
    1186:	80 81       	ld	r24, Z
    1188:	82 60       	ori	r24, 0x02	; 2
    118a:	80 83       	st	Z, r24
    118c:	80 e0       	ldi	r24, 0x00	; 0
    118e:	90 e0       	ldi	r25, 0x00	; 0
    1190:	2f ef       	ldi	r18, 0xFF	; 255
    1192:	fc 01       	movw	r30, r24
    1194:	e6 50       	subi	r30, 0x06	; 6
    1196:	f9 4f       	sbci	r31, 0xF9	; 249
    1198:	20 83       	st	Z, r18
    119a:	01 96       	adiw	r24, 0x01	; 1
    119c:	8c 30       	cpi	r24, 0x0C	; 12
    119e:	91 05       	cpc	r25, r1
    11a0:	c1 f7       	brne	.-16     	; 0x1192 <TimeInit+0x28>
    11a2:	80 e0       	ldi	r24, 0x00	; 0
    11a4:	90 e0       	ldi	r25, 0x00	; 0
    11a6:	2f ef       	ldi	r18, 0xFF	; 255
    11a8:	fc 01       	movw	r30, r24
    11aa:	e3 51       	subi	r30, 0x13	; 19
    11ac:	f9 4f       	sbci	r31, 0xF9	; 249
    11ae:	20 83       	st	Z, r18
    11b0:	01 96       	adiw	r24, 0x01	; 1
    11b2:	8d 30       	cpi	r24, 0x0D	; 13
    11b4:	91 05       	cpc	r25, r1
    11b6:	c1 f7       	brne	.-16     	; 0x11a8 <TimeInit+0x3e>
    11b8:	8f ef       	ldi	r24, 0xFF	; 255
    11ba:	80 93 e7 06 	sts	0x06E7, r24
    11be:	80 93 e8 06 	sts	0x06E8, r24
    11c2:	80 93 e9 06 	sts	0x06E9, r24
    11c6:	80 93 ea 06 	sts	0x06EA, r24
    11ca:	80 93 eb 06 	sts	0x06EB, r24
    11ce:	80 93 ec 06 	sts	0x06EC, r24
    11d2:	08 95       	ret

000011d4 <__vector_17>:
    11d4:	1f 92       	push	r1
    11d6:	0f 92       	push	r0
    11d8:	0f b6       	in	r0, 0x3f	; 63
    11da:	0f 92       	push	r0
    11dc:	11 24       	eor	r1, r1
    11de:	0b b6       	in	r0, 0x3b	; 59
    11e0:	0f 92       	push	r0
    11e2:	2f 93       	push	r18
    11e4:	3f 93       	push	r19
    11e6:	4f 93       	push	r20
    11e8:	5f 93       	push	r21
    11ea:	6f 93       	push	r22
    11ec:	7f 93       	push	r23
    11ee:	8f 93       	push	r24
    11f0:	9f 93       	push	r25
    11f2:	af 93       	push	r26
    11f4:	bf 93       	push	r27
    11f6:	ef 93       	push	r30
    11f8:	ff 93       	push	r31
    11fa:	80 91 e5 06 	lds	r24, 0x06E5
    11fe:	8f 5f       	subi	r24, 0xFF	; 255
    1200:	80 93 e5 06 	sts	0x06E5, r24
    1204:	80 e0       	ldi	r24, 0x00	; 0
    1206:	90 e0       	ldi	r25, 0x00	; 0
    1208:	61 e0       	ldi	r22, 0x01	; 1
    120a:	70 e0       	ldi	r23, 0x00	; 0
    120c:	28 2f       	mov	r18, r24
    120e:	26 95       	lsr	r18
    1210:	26 95       	lsr	r18
    1212:	26 95       	lsr	r18
    1214:	30 e0       	ldi	r19, 0x00	; 0
    1216:	f9 01       	movw	r30, r18
    1218:	ea 5f       	subi	r30, 0xFA	; 250
    121a:	f8 4f       	sbci	r31, 0xF8	; 248
    121c:	40 81       	ld	r20, Z
    121e:	a8 2f       	mov	r26, r24
    1220:	a7 70       	andi	r26, 0x07	; 7
    1222:	50 e0       	ldi	r21, 0x00	; 0
    1224:	0a 2e       	mov	r0, r26
    1226:	02 c0       	rjmp	.+4      	; 0x122c <__vector_17+0x58>
    1228:	55 95       	asr	r21
    122a:	47 95       	ror	r20
    122c:	0a 94       	dec	r0
    122e:	e2 f7       	brpl	.-8      	; 0x1228 <__vector_17+0x54>
    1230:	40 fd       	sbrc	r20, 0
    1232:	14 c0       	rjmp	.+40     	; 0x125c <__vector_17+0x88>
    1234:	fc 01       	movw	r30, r24
    1236:	e0 54       	subi	r30, 0x40	; 64
    1238:	f7 4f       	sbci	r31, 0xF7	; 247
    123a:	40 81       	ld	r20, Z
    123c:	41 50       	subi	r20, 0x01	; 1
    123e:	40 83       	st	Z, r20
    1240:	41 11       	cpse	r20, r1
    1242:	0c c0       	rjmp	.+24     	; 0x125c <__vector_17+0x88>
    1244:	f9 01       	movw	r30, r18
    1246:	ea 5f       	subi	r30, 0xFA	; 250
    1248:	f8 4f       	sbci	r31, 0xF8	; 248
    124a:	40 81       	ld	r20, Z
    124c:	9b 01       	movw	r18, r22
    124e:	02 c0       	rjmp	.+4      	; 0x1254 <__vector_17+0x80>
    1250:	22 0f       	add	r18, r18
    1252:	33 1f       	adc	r19, r19
    1254:	aa 95       	dec	r26
    1256:	e2 f7       	brpl	.-8      	; 0x1250 <__vector_17+0x7c>
    1258:	24 2b       	or	r18, r20
    125a:	20 83       	st	Z, r18
    125c:	01 96       	adiw	r24, 0x01	; 1
    125e:	88 30       	cpi	r24, 0x08	; 8
    1260:	91 05       	cpc	r25, r1
    1262:	a1 f6       	brne	.-88     	; 0x120c <__vector_17+0x38>
    1264:	80 91 cc 06 	lds	r24, 0x06CC
    1268:	90 91 cd 06 	lds	r25, 0x06CD
    126c:	a0 91 ce 06 	lds	r26, 0x06CE
    1270:	b0 91 cf 06 	lds	r27, 0x06CF
    1274:	01 96       	adiw	r24, 0x01	; 1
    1276:	a1 1d       	adc	r26, r1
    1278:	b1 1d       	adc	r27, r1
    127a:	80 93 cc 06 	sts	0x06CC, r24
    127e:	90 93 cd 06 	sts	0x06CD, r25
    1282:	a0 93 ce 06 	sts	0x06CE, r26
    1286:	b0 93 cf 06 	sts	0x06CF, r27
    128a:	ff 91       	pop	r31
    128c:	ef 91       	pop	r30
    128e:	bf 91       	pop	r27
    1290:	af 91       	pop	r26
    1292:	9f 91       	pop	r25
    1294:	8f 91       	pop	r24
    1296:	7f 91       	pop	r23
    1298:	6f 91       	pop	r22
    129a:	5f 91       	pop	r21
    129c:	4f 91       	pop	r20
    129e:	3f 91       	pop	r19
    12a0:	2f 91       	pop	r18
    12a2:	0f 90       	pop	r0
    12a4:	0b be       	out	0x3b, r0	; 59
    12a6:	0f 90       	pop	r0
    12a8:	0f be       	out	0x3f, r0	; 63
    12aa:	0f 90       	pop	r0
    12ac:	1f 90       	pop	r1
    12ae:	18 95       	reti

000012b0 <TimersInc>:
    12b0:	ff 92       	push	r15
    12b2:	0f 93       	push	r16
    12b4:	1f 93       	push	r17
    12b6:	cf 93       	push	r28
    12b8:	df 93       	push	r29
    12ba:	f8 94       	cli
    12bc:	f0 90 e5 06 	lds	r15, 0x06E5
    12c0:	10 92 e5 06 	sts	0x06E5, r1
    12c4:	78 94       	sei
    12c6:	ff 20       	and	r15, r15
    12c8:	09 f4       	brne	.+2      	; 0x12cc <TimersInc+0x1c>
    12ca:	d2 c0       	rjmp	.+420    	; 0x1470 <TimersInc+0x1c0>
    12cc:	10 e0       	ldi	r17, 0x00	; 0
    12ce:	40 e0       	ldi	r20, 0x00	; 0
    12d0:	50 e0       	ldi	r21, 0x00	; 0
    12d2:	21 e0       	ldi	r18, 0x01	; 1
    12d4:	30 e0       	ldi	r19, 0x00	; 0
    12d6:	80 91 75 0b 	lds	r24, 0x0B75
    12da:	90 91 76 0b 	lds	r25, 0x0B76
    12de:	a0 91 77 0b 	lds	r26, 0x0B77
    12e2:	b0 91 78 0b 	lds	r27, 0x0B78
    12e6:	01 96       	adiw	r24, 0x01	; 1
    12e8:	a1 1d       	adc	r26, r1
    12ea:	b1 1d       	adc	r27, r1
    12ec:	80 93 75 0b 	sts	0x0B75, r24
    12f0:	90 93 76 0b 	sts	0x0B76, r25
    12f4:	a0 93 77 0b 	sts	0x0B77, r26
    12f8:	b0 93 78 0b 	sts	0x0B78, r27
    12fc:	ca 01       	movw	r24, r20
    12fe:	f8 94       	cli
    1300:	68 2f       	mov	r22, r24
    1302:	66 95       	lsr	r22
    1304:	66 95       	lsr	r22
    1306:	66 95       	lsr	r22
    1308:	70 e0       	ldi	r23, 0x00	; 0
    130a:	fb 01       	movw	r30, r22
    130c:	e6 50       	subi	r30, 0x06	; 6
    130e:	f9 4f       	sbci	r31, 0xF9	; 249
    1310:	e0 81       	ld	r30, Z
    1312:	a8 2f       	mov	r26, r24
    1314:	a7 70       	andi	r26, 0x07	; 7
    1316:	f0 e0       	ldi	r31, 0x00	; 0
    1318:	0a 2e       	mov	r0, r26
    131a:	02 c0       	rjmp	.+4      	; 0x1320 <TimersInc+0x70>
    131c:	f5 95       	asr	r31
    131e:	e7 95       	ror	r30
    1320:	0a 94       	dec	r0
    1322:	e2 f7       	brpl	.-8      	; 0x131c <TimersInc+0x6c>
    1324:	e0 fd       	sbrc	r30, 0
    1326:	14 c0       	rjmp	.+40     	; 0x1350 <TimersInc+0xa0>
    1328:	fc 01       	movw	r30, r24
    132a:	e8 59       	subi	r30, 0x98	; 152
    132c:	f7 4f       	sbci	r31, 0xF7	; 247
    132e:	b0 81       	ld	r27, Z
    1330:	b1 50       	subi	r27, 0x01	; 1
    1332:	b0 83       	st	Z, r27
    1334:	b1 11       	cpse	r27, r1
    1336:	0c c0       	rjmp	.+24     	; 0x1350 <TimersInc+0xa0>
    1338:	fb 01       	movw	r30, r22
    133a:	e6 50       	subi	r30, 0x06	; 6
    133c:	f9 4f       	sbci	r31, 0xF9	; 249
    133e:	b0 81       	ld	r27, Z
    1340:	b9 01       	movw	r22, r18
    1342:	02 c0       	rjmp	.+4      	; 0x1348 <TimersInc+0x98>
    1344:	66 0f       	add	r22, r22
    1346:	77 1f       	adc	r23, r23
    1348:	aa 95       	dec	r26
    134a:	e2 f7       	brpl	.-8      	; 0x1344 <TimersInc+0x94>
    134c:	6b 2b       	or	r22, r27
    134e:	60 83       	st	Z, r22
    1350:	78 94       	sei
    1352:	01 96       	adiw	r24, 0x01	; 1
    1354:	88 35       	cpi	r24, 0x58	; 88
    1356:	91 05       	cpc	r25, r1
    1358:	91 f6       	brne	.-92     	; 0x12fe <TimersInc+0x4e>
    135a:	ca 01       	movw	r24, r20
    135c:	f8 94       	cli
    135e:	68 2f       	mov	r22, r24
    1360:	66 95       	lsr	r22
    1362:	66 95       	lsr	r22
    1364:	66 95       	lsr	r22
    1366:	70 e0       	ldi	r23, 0x00	; 0
    1368:	fb 01       	movw	r30, r22
    136a:	e3 51       	subi	r30, 0x13	; 19
    136c:	f9 4f       	sbci	r31, 0xF9	; 249
    136e:	e0 81       	ld	r30, Z
    1370:	c8 2f       	mov	r28, r24
    1372:	c7 70       	andi	r28, 0x07	; 7
    1374:	f0 e0       	ldi	r31, 0x00	; 0
    1376:	0c 2e       	mov	r0, r28
    1378:	02 c0       	rjmp	.+4      	; 0x137e <TimersInc+0xce>
    137a:	f5 95       	asr	r31
    137c:	e7 95       	ror	r30
    137e:	0a 94       	dec	r0
    1380:	e2 f7       	brpl	.-8      	; 0x137a <TimersInc+0xca>
    1382:	e0 fd       	sbrc	r30, 0
    1384:	1a c0       	rjmp	.+52     	; 0x13ba <TimersInc+0x10a>
    1386:	dc 01       	movw	r26, r24
    1388:	aa 0f       	add	r26, r26
    138a:	bb 1f       	adc	r27, r27
    138c:	a8 55       	subi	r26, 0x58	; 88
    138e:	b8 4f       	sbci	r27, 0xF8	; 248
    1390:	ed 91       	ld	r30, X+
    1392:	fc 91       	ld	r31, X
    1394:	11 97       	sbiw	r26, 0x01	; 1
    1396:	31 97       	sbiw	r30, 0x01	; 1
    1398:	11 96       	adiw	r26, 0x01	; 1
    139a:	fc 93       	st	X, r31
    139c:	ee 93       	st	-X, r30
    139e:	ef 2b       	or	r30, r31
    13a0:	61 f4       	brne	.+24     	; 0x13ba <TimersInc+0x10a>
    13a2:	fb 01       	movw	r30, r22
    13a4:	e3 51       	subi	r30, 0x13	; 19
    13a6:	f9 4f       	sbci	r31, 0xF9	; 249
    13a8:	a0 81       	ld	r26, Z
    13aa:	b9 01       	movw	r22, r18
    13ac:	02 c0       	rjmp	.+4      	; 0x13b2 <TimersInc+0x102>
    13ae:	66 0f       	add	r22, r22
    13b0:	77 1f       	adc	r23, r23
    13b2:	ca 95       	dec	r28
    13b4:	e2 f7       	brpl	.-8      	; 0x13ae <TimersInc+0xfe>
    13b6:	6a 2b       	or	r22, r26
    13b8:	60 83       	st	Z, r22
    13ba:	78 94       	sei
    13bc:	01 96       	adiw	r24, 0x01	; 1
    13be:	80 36       	cpi	r24, 0x60	; 96
    13c0:	91 05       	cpc	r25, r1
    13c2:	61 f6       	brne	.-104    	; 0x135c <TimersInc+0xac>
    13c4:	ba 01       	movw	r22, r20
    13c6:	f8 94       	cli
    13c8:	e6 2f       	mov	r30, r22
    13ca:	e6 95       	lsr	r30
    13cc:	e6 95       	lsr	r30
    13ce:	e6 95       	lsr	r30
    13d0:	f0 e0       	ldi	r31, 0x00	; 0
    13d2:	df 01       	movw	r26, r30
    13d4:	a9 51       	subi	r26, 0x19	; 25
    13d6:	b9 4f       	sbci	r27, 0xF9	; 249
    13d8:	8c 91       	ld	r24, X
    13da:	06 2f       	mov	r16, r22
    13dc:	07 70       	andi	r16, 0x07	; 7
    13de:	90 e0       	ldi	r25, 0x00	; 0
    13e0:	00 2e       	mov	r0, r16
    13e2:	02 c0       	rjmp	.+4      	; 0x13e8 <TimersInc+0x138>
    13e4:	95 95       	asr	r25
    13e6:	87 95       	ror	r24
    13e8:	0a 94       	dec	r0
    13ea:	e2 f7       	brpl	.-8      	; 0x13e4 <TimersInc+0x134>
    13ec:	80 fd       	sbrc	r24, 0
    13ee:	21 c0       	rjmp	.+66     	; 0x1432 <TimersInc+0x182>
    13f0:	eb 01       	movw	r28, r22
    13f2:	cc 0f       	add	r28, r28
    13f4:	dd 1f       	adc	r29, r29
    13f6:	cc 0f       	add	r28, r28
    13f8:	dd 1f       	adc	r29, r29
    13fa:	c8 5f       	subi	r28, 0xF8	; 248
    13fc:	d8 4f       	sbci	r29, 0xF8	; 248
    13fe:	88 81       	ld	r24, Y
    1400:	99 81       	ldd	r25, Y+1	; 0x01
    1402:	aa 81       	ldd	r26, Y+2	; 0x02
    1404:	bb 81       	ldd	r27, Y+3	; 0x03
    1406:	01 97       	sbiw	r24, 0x01	; 1
    1408:	a1 09       	sbc	r26, r1
    140a:	b1 09       	sbc	r27, r1
    140c:	88 83       	st	Y, r24
    140e:	99 83       	std	Y+1, r25	; 0x01
    1410:	aa 83       	std	Y+2, r26	; 0x02
    1412:	bb 83       	std	Y+3, r27	; 0x03
    1414:	89 2b       	or	r24, r25
    1416:	8a 2b       	or	r24, r26
    1418:	8b 2b       	or	r24, r27
    141a:	59 f4       	brne	.+22     	; 0x1432 <TimersInc+0x182>
    141c:	e9 51       	subi	r30, 0x19	; 25
    141e:	f9 4f       	sbci	r31, 0xF9	; 249
    1420:	a0 81       	ld	r26, Z
    1422:	c9 01       	movw	r24, r18
    1424:	02 c0       	rjmp	.+4      	; 0x142a <TimersInc+0x17a>
    1426:	88 0f       	add	r24, r24
    1428:	99 1f       	adc	r25, r25
    142a:	0a 95       	dec	r16
    142c:	e2 f7       	brpl	.-8      	; 0x1426 <TimersInc+0x176>
    142e:	8a 2b       	or	r24, r26
    1430:	80 83       	st	Z, r24
    1432:	78 94       	sei
    1434:	6f 5f       	subi	r22, 0xFF	; 255
    1436:	7f 4f       	sbci	r23, 0xFF	; 255
    1438:	68 32       	cpi	r22, 0x28	; 40
    143a:	71 05       	cpc	r23, r1
    143c:	21 f6       	brne	.-120    	; 0x13c6 <TimersInc+0x116>
    143e:	80 91 c8 06 	lds	r24, 0x06C8
    1442:	8f 5f       	subi	r24, 0xFF	; 255
    1444:	84 36       	cpi	r24, 0x64	; 100
    1446:	19 f0       	breq	.+6      	; 0x144e <TimersInc+0x19e>
    1448:	80 93 c8 06 	sts	0x06C8, r24
    144c:	0e c0       	rjmp	.+28     	; 0x146a <TimersInc+0x1ba>
    144e:	10 92 c8 06 	sts	0x06C8, r1
    1452:	80 91 68 0b 	lds	r24, 0x0B68
    1456:	90 91 69 0b 	lds	r25, 0x0B69
    145a:	90 93 7b 0b 	sts	0x0B7B, r25
    145e:	80 93 7a 0b 	sts	0x0B7A, r24
    1462:	50 93 69 0b 	sts	0x0B69, r21
    1466:	40 93 68 0b 	sts	0x0B68, r20
    146a:	1f 5f       	subi	r17, 0xFF	; 255
    146c:	1f 11       	cpse	r17, r15
    146e:	33 cf       	rjmp	.-410    	; 0x12d6 <TimersInc+0x26>
    1470:	df 91       	pop	r29
    1472:	cf 91       	pop	r28
    1474:	1f 91       	pop	r17
    1476:	0f 91       	pop	r16
    1478:	ff 90       	pop	r15
    147a:	08 95       	ret

0000147c <TimeCycle>:
    147c:	a8 95       	wdr
    147e:	80 91 68 0b 	lds	r24, 0x0B68
    1482:	90 91 69 0b 	lds	r25, 0x0B69
    1486:	01 96       	adiw	r24, 0x01	; 1
    1488:	90 93 69 0b 	sts	0x0B69, r25
    148c:	80 93 68 0b 	sts	0x0B68, r24
    1490:	80 91 e6 06 	lds	r24, 0x06E6
    1494:	e8 2f       	mov	r30, r24
    1496:	f0 e0       	ldi	r31, 0x00	; 0
    1498:	e8 59       	subi	r30, 0x98	; 152
    149a:	f7 4f       	sbci	r31, 0xF7	; 247
    149c:	90 81       	ld	r25, Z
    149e:	90 95       	com	r25
    14a0:	90 93 3e 0a 	sts	0x0A3E, r25
    14a4:	20 91 f4 09 	lds	r18, 0x09F4
    14a8:	29 17       	cp	r18, r25
    14aa:	10 f4       	brcc	.+4      	; 0x14b0 <TimeCycle+0x34>
    14ac:	90 93 f4 09 	sts	0x09F4, r25
    14b0:	6f ef       	ldi	r22, 0xFF	; 255
    14b2:	50 cc       	rjmp	.-1888   	; 0xd54 <StartTimer8>
    14b4:	08 95       	ret

000014b6 <CRC_Seed>:
    14b6:	4f 92       	push	r4
    14b8:	5f 92       	push	r5
    14ba:	6f 92       	push	r6
    14bc:	7f 92       	push	r7
    14be:	af 92       	push	r10
    14c0:	bf 92       	push	r11
    14c2:	cf 92       	push	r12
    14c4:	df 92       	push	r13
    14c6:	ef 92       	push	r14
    14c8:	ff 92       	push	r15
    14ca:	0f 93       	push	r16
    14cc:	1f 93       	push	r17
    14ce:	cf 93       	push	r28
    14d0:	df 93       	push	r29
    14d2:	ec 01       	movw	r28, r24
    14d4:	5b 01       	movw	r10, r22
    14d6:	29 01       	movw	r4, r18
    14d8:	3a 01       	movw	r6, r20
    14da:	21 15       	cp	r18, r1
    14dc:	31 05       	cpc	r19, r1
    14de:	41 05       	cpc	r20, r1
    14e0:	51 05       	cpc	r21, r1
    14e2:	f1 f0       	breq	.+60     	; 0x1520 <CRC_Seed+0x6a>
    14e4:	c1 2c       	mov	r12, r1
    14e6:	d1 2c       	mov	r13, r1
    14e8:	76 01       	movw	r14, r12
    14ea:	c5 01       	movw	r24, r10
    14ec:	8c 0d       	add	r24, r12
    14ee:	9d 1d       	adc	r25, r13
    14f0:	fe 01       	movw	r30, r28
    14f2:	19 95       	eicall
    14f4:	80 27       	eor	r24, r16
    14f6:	28 2f       	mov	r18, r24
    14f8:	30 e0       	ldi	r19, 0x00	; 0
    14fa:	f9 01       	movw	r30, r18
    14fc:	e4 5d       	subi	r30, 0xD4	; 212
    14fe:	fd 4f       	sbci	r31, 0xFD	; 253
    1500:	04 91       	lpm	r16, Z
    1502:	01 27       	eor	r16, r17
    1504:	f9 01       	movw	r30, r18
    1506:	e4 5d       	subi	r30, 0xD4	; 212
    1508:	fe 4f       	sbci	r31, 0xFE	; 254
    150a:	14 91       	lpm	r17, Z
    150c:	ff ef       	ldi	r31, 0xFF	; 255
    150e:	cf 1a       	sub	r12, r31
    1510:	df 0a       	sbc	r13, r31
    1512:	ef 0a       	sbc	r14, r31
    1514:	ff 0a       	sbc	r15, r31
    1516:	c4 14       	cp	r12, r4
    1518:	d5 04       	cpc	r13, r5
    151a:	e6 04       	cpc	r14, r6
    151c:	f7 04       	cpc	r15, r7
    151e:	29 f7       	brne	.-54     	; 0x14ea <CRC_Seed+0x34>
    1520:	80 2f       	mov	r24, r16
    1522:	90 e0       	ldi	r25, 0x00	; 0
    1524:	91 2b       	or	r25, r17
    1526:	df 91       	pop	r29
    1528:	cf 91       	pop	r28
    152a:	1f 91       	pop	r17
    152c:	0f 91       	pop	r16
    152e:	ff 90       	pop	r15
    1530:	ef 90       	pop	r14
    1532:	df 90       	pop	r13
    1534:	cf 90       	pop	r12
    1536:	bf 90       	pop	r11
    1538:	af 90       	pop	r10
    153a:	7f 90       	pop	r7
    153c:	6f 90       	pop	r6
    153e:	5f 90       	pop	r5
    1540:	4f 90       	pop	r4
    1542:	08 95       	ret

00001544 <CRC>:
    1544:	0f 93       	push	r16
    1546:	1f 93       	push	r17
    1548:	0f ef       	ldi	r16, 0xFF	; 255
    154a:	1f ef       	ldi	r17, 0xFF	; 255
    154c:	b4 df       	rcall	.-152    	; 0x14b6 <CRC_Seed>
    154e:	1f 91       	pop	r17
    1550:	0f 91       	pop	r16
    1552:	08 95       	ret

00001554 <CRC_EEPROM_calc>:
    1554:	0f 93       	push	r16
    1556:	1f 93       	push	r17
    1558:	2c e0       	ldi	r18, 0x0C	; 12
    155a:	30 e0       	ldi	r19, 0x00	; 0
    155c:	40 e0       	ldi	r20, 0x00	; 0
    155e:	50 e0       	ldi	r21, 0x00	; 0
    1560:	60 e0       	ldi	r22, 0x00	; 0
    1562:	70 e0       	ldi	r23, 0x00	; 0
    1564:	87 e2       	ldi	r24, 0x27	; 39
    1566:	92 e0       	ldi	r25, 0x02	; 2
    1568:	ed df       	rcall	.-38     	; 0x1544 <CRC>
    156a:	2b ef       	ldi	r18, 0xFB	; 251
    156c:	3f e0       	ldi	r19, 0x0F	; 15
    156e:	2c 50       	subi	r18, 0x0C	; 12
    1570:	30 40       	sbci	r19, 0x00	; 0
    1572:	40 e0       	ldi	r20, 0x00	; 0
    1574:	50 e0       	ldi	r21, 0x00	; 0
    1576:	8c 01       	movw	r16, r24
    1578:	61 e1       	ldi	r22, 0x11	; 17
    157a:	70 e0       	ldi	r23, 0x00	; 0
    157c:	87 e2       	ldi	r24, 0x27	; 39
    157e:	92 e0       	ldi	r25, 0x02	; 2
    1580:	9a df       	rcall	.-204    	; 0x14b6 <CRC_Seed>
    1582:	1f 91       	pop	r17
    1584:	0f 91       	pop	r16
    1586:	08 95       	ret

00001588 <CRC_EEPROM_upd>:
    1588:	80 91 50 0e 	lds	r24, 0x0E50
    158c:	81 fd       	sbrc	r24, 1
    158e:	06 c0       	rjmp	.+12     	; 0x159c <CRC_EEPROM_upd+0x14>
    1590:	e1 df       	rcall	.-62     	; 0x1554 <CRC_EEPROM_calc>
    1592:	bc 01       	movw	r22, r24
    1594:	8e e0       	ldi	r24, 0x0E	; 14
    1596:	90 e0       	ldi	r25, 0x00	; 0
    1598:	0c 94 78 34 	jmp	0x68f0	; 0x68f0 <__eewr_word_m2561>
    159c:	08 95       	ret

0000159e <ewb>:
    159e:	0e 94 6a 34 	call	0x68d4	; 0x68d4 <__eewr_byte_m2561>
    15a2:	f2 cf       	rjmp	.-28     	; 0x1588 <CRC_EEPROM_upd>
    15a4:	08 95       	ret

000015a6 <MB_PLC_Init>:
    15a6:	0a 9a       	sbi	0x01, 2	; 1
    15a8:	12 98       	cbi	0x02, 2	; 2
    15aa:	08 95       	ret

000015ac <__vector_21>:
    15ac:	1f 92       	push	r1
    15ae:	0f 92       	push	r0
    15b0:	0f b6       	in	r0, 0x3f	; 63
    15b2:	0f 92       	push	r0
    15b4:	11 24       	eor	r1, r1
    15b6:	0b b6       	in	r0, 0x3b	; 59
    15b8:	0f 92       	push	r0
    15ba:	2f 93       	push	r18
    15bc:	3f 93       	push	r19
    15be:	4f 93       	push	r20
    15c0:	5f 93       	push	r21
    15c2:	6f 93       	push	r22
    15c4:	7f 93       	push	r23
    15c6:	8f 93       	push	r24
    15c8:	9f 93       	push	r25
    15ca:	af 93       	push	r26
    15cc:	bf 93       	push	r27
    15ce:	ef 93       	push	r30
    15d0:	ff 93       	push	r31
    15d2:	85 b5       	in	r24, 0x25	; 37
    15d4:	88 7f       	andi	r24, 0xF8	; 248
    15d6:	85 bd       	out	0x25, r24	; 37
    15d8:	ee e6       	ldi	r30, 0x6E	; 110
    15da:	f0 e0       	ldi	r31, 0x00	; 0
    15dc:	80 81       	ld	r24, Z
    15de:	8d 7f       	andi	r24, 0xFD	; 253
    15e0:	80 83       	st	Z, r24
    15e2:	86 e4       	ldi	r24, 0x46	; 70
    15e4:	90 e0       	ldi	r25, 0x00	; 0
    15e6:	0e 94 c4 02 	call	0x588	; 0x588 <MB_Timer_ISR>
    15ea:	ff 91       	pop	r31
    15ec:	ef 91       	pop	r30
    15ee:	bf 91       	pop	r27
    15f0:	af 91       	pop	r26
    15f2:	9f 91       	pop	r25
    15f4:	8f 91       	pop	r24
    15f6:	7f 91       	pop	r23
    15f8:	6f 91       	pop	r22
    15fa:	5f 91       	pop	r21
    15fc:	4f 91       	pop	r20
    15fe:	3f 91       	pop	r19
    1600:	2f 91       	pop	r18
    1602:	0f 90       	pop	r0
    1604:	0b be       	out	0x3b, r0	; 59
    1606:	0f 90       	pop	r0
    1608:	0f be       	out	0x3f, r0	; 63
    160a:	0f 90       	pop	r0
    160c:	1f 90       	pop	r1
    160e:	18 95       	reti

00001610 <__vector_13>:
    1610:	1f 92       	push	r1
    1612:	0f 92       	push	r0
    1614:	0f b6       	in	r0, 0x3f	; 63
    1616:	0f 92       	push	r0
    1618:	11 24       	eor	r1, r1
    161a:	0b b6       	in	r0, 0x3b	; 59
    161c:	0f 92       	push	r0
    161e:	2f 93       	push	r18
    1620:	3f 93       	push	r19
    1622:	4f 93       	push	r20
    1624:	5f 93       	push	r21
    1626:	6f 93       	push	r22
    1628:	7f 93       	push	r23
    162a:	8f 93       	push	r24
    162c:	9f 93       	push	r25
    162e:	af 93       	push	r26
    1630:	bf 93       	push	r27
    1632:	ef 93       	push	r30
    1634:	ff 93       	push	r31
    1636:	e1 eb       	ldi	r30, 0xB1	; 177
    1638:	f0 e0       	ldi	r31, 0x00	; 0
    163a:	80 81       	ld	r24, Z
    163c:	88 7f       	andi	r24, 0xF8	; 248
    163e:	80 83       	st	Z, r24
    1640:	e0 e7       	ldi	r30, 0x70	; 112
    1642:	f0 e0       	ldi	r31, 0x00	; 0
    1644:	80 81       	ld	r24, Z
    1646:	8d 7f       	andi	r24, 0xFD	; 253
    1648:	80 83       	st	Z, r24
    164a:	82 eb       	ldi	r24, 0xB2	; 178
    164c:	90 e0       	ldi	r25, 0x00	; 0
    164e:	0e 94 c4 02 	call	0x588	; 0x588 <MB_Timer_ISR>
    1652:	ff 91       	pop	r31
    1654:	ef 91       	pop	r30
    1656:	bf 91       	pop	r27
    1658:	af 91       	pop	r26
    165a:	9f 91       	pop	r25
    165c:	8f 91       	pop	r24
    165e:	7f 91       	pop	r23
    1660:	6f 91       	pop	r22
    1662:	5f 91       	pop	r21
    1664:	4f 91       	pop	r20
    1666:	3f 91       	pop	r19
    1668:	2f 91       	pop	r18
    166a:	0f 90       	pop	r0
    166c:	0b be       	out	0x3b, r0	; 59
    166e:	0f 90       	pop	r0
    1670:	0f be       	out	0x3f, r0	; 63
    1672:	0f 90       	pop	r0
    1674:	1f 90       	pop	r1
    1676:	18 95       	reti

00001678 <__vector_42>:
    1678:	1f 92       	push	r1
    167a:	0f 92       	push	r0
    167c:	0f b6       	in	r0, 0x3f	; 63
    167e:	0f 92       	push	r0
    1680:	11 24       	eor	r1, r1
    1682:	0b b6       	in	r0, 0x3b	; 59
    1684:	0f 92       	push	r0
    1686:	2f 93       	push	r18
    1688:	3f 93       	push	r19
    168a:	4f 93       	push	r20
    168c:	5f 93       	push	r21
    168e:	6f 93       	push	r22
    1690:	7f 93       	push	r23
    1692:	8f 93       	push	r24
    1694:	9f 93       	push	r25
    1696:	af 93       	push	r26
    1698:	bf 93       	push	r27
    169a:	ef 93       	push	r30
    169c:	ff 93       	push	r31
    169e:	e1 ea       	ldi	r30, 0xA1	; 161
    16a0:	f0 e0       	ldi	r31, 0x00	; 0
    16a2:	80 81       	ld	r24, Z
    16a4:	88 7f       	andi	r24, 0xF8	; 248
    16a6:	80 83       	st	Z, r24
    16a8:	e2 e7       	ldi	r30, 0x72	; 114
    16aa:	f0 e0       	ldi	r31, 0x00	; 0
    16ac:	80 81       	ld	r24, Z
    16ae:	8d 7f       	andi	r24, 0xFD	; 253
    16b0:	80 83       	st	Z, r24
    16b2:	84 ea       	ldi	r24, 0xA4	; 164
    16b4:	90 e0       	ldi	r25, 0x00	; 0
    16b6:	0e 94 c4 02 	call	0x588	; 0x588 <MB_Timer_ISR>
    16ba:	ff 91       	pop	r31
    16bc:	ef 91       	pop	r30
    16be:	bf 91       	pop	r27
    16c0:	af 91       	pop	r26
    16c2:	9f 91       	pop	r25
    16c4:	8f 91       	pop	r24
    16c6:	7f 91       	pop	r23
    16c8:	6f 91       	pop	r22
    16ca:	5f 91       	pop	r21
    16cc:	4f 91       	pop	r20
    16ce:	3f 91       	pop	r19
    16d0:	2f 91       	pop	r18
    16d2:	0f 90       	pop	r0
    16d4:	0b be       	out	0x3b, r0	; 59
    16d6:	0f 90       	pop	r0
    16d8:	0f be       	out	0x3f, r0	; 63
    16da:	0f 90       	pop	r0
    16dc:	1f 90       	pop	r1
    16de:	18 95       	reti

000016e0 <SetParity>:
    16e0:	ff 92       	push	r15
    16e2:	0f 93       	push	r16
    16e4:	1f 93       	push	r17
    16e6:	cf 93       	push	r28
    16e8:	df 93       	push	r29
    16ea:	c8 2f       	mov	r28, r24
    16ec:	d0 e0       	ldi	r29, 0x00	; 0
    16ee:	8e 01       	movw	r16, r28
    16f0:	00 0f       	add	r16, r16
    16f2:	11 1f       	adc	r17, r17
    16f4:	0c 0f       	add	r16, r28
    16f6:	1d 1f       	adc	r17, r29
    16f8:	c8 01       	movw	r24, r16
    16fa:	8b 5f       	subi	r24, 0xFB	; 251
    16fc:	9f 4f       	sbci	r25, 0xFF	; 255
    16fe:	0e 94 5d 34 	call	0x68ba	; 0x68ba <__eerd_byte_m2561>
    1702:	f8 2e       	mov	r15, r24
    1704:	0a 5f       	subi	r16, 0xFA	; 250
    1706:	1f 4f       	sbci	r17, 0xFF	; 255
    1708:	c8 01       	movw	r24, r16
    170a:	0e 94 5d 34 	call	0x68ba	; 0x68ba <__eerd_byte_m2561>
    170e:	f1 10       	cpse	r15, r1
    1710:	04 c0       	rjmp	.+8      	; 0x171a <SetParity+0x3a>
    1712:	81 30       	cpi	r24, 0x01	; 1
    1714:	39 f0       	breq	.+14     	; 0x1724 <SetParity+0x44>
    1716:	9e e8       	ldi	r25, 0x8E	; 142
    1718:	08 c0       	rjmp	.+16     	; 0x172a <SetParity+0x4a>
    171a:	91 e0       	ldi	r25, 0x01	; 1
    171c:	f9 16       	cp	r15, r25
    171e:	21 f0       	breq	.+8      	; 0x1728 <SetParity+0x48>
    1720:	96 eb       	ldi	r25, 0xB6	; 182
    1722:	03 c0       	rjmp	.+6      	; 0x172a <SetParity+0x4a>
    1724:	96 e8       	ldi	r25, 0x86	; 134
    1726:	01 c0       	rjmp	.+2      	; 0x172a <SetParity+0x4a>
    1728:	96 ea       	ldi	r25, 0xA6	; 166
    172a:	24 e1       	ldi	r18, 0x14	; 20
    172c:	2c 9f       	mul	r18, r28
    172e:	f0 01       	movw	r30, r0
    1730:	2d 9f       	mul	r18, r29
    1732:	f0 0d       	add	r31, r0
    1734:	11 24       	eor	r1, r1
    1736:	e5 59       	subi	r30, 0x95	; 149
    1738:	fc 4f       	sbci	r31, 0xFC	; 252
    173a:	a5 91       	lpm	r26, Z+
    173c:	b4 91       	lpm	r27, Z
    173e:	9f 77       	andi	r25, 0x7F	; 127
    1740:	9c 93       	st	X, r25
    1742:	ff 20       	and	r15, r15
    1744:	29 f0       	breq	.+10     	; 0x1750 <SetParity+0x70>
    1746:	81 30       	cpi	r24, 0x01	; 1
    1748:	19 f0       	breq	.+6      	; 0x1750 <SetParity+0x70>
    174a:	61 e0       	ldi	r22, 0x01	; 1
    174c:	c8 01       	movw	r24, r16
    174e:	27 df       	rcall	.-434    	; 0x159e <ewb>
    1750:	df 91       	pop	r29
    1752:	cf 91       	pop	r28
    1754:	1f 91       	pop	r17
    1756:	0f 91       	pop	r16
    1758:	ff 90       	pop	r15
    175a:	08 95       	ret

0000175c <SetBAUD>:
    175c:	cf 93       	push	r28
    175e:	df 93       	push	r29
    1760:	c8 2f       	mov	r28, r24
    1762:	d0 e0       	ldi	r29, 0x00	; 0
    1764:	ce 01       	movw	r24, r28
    1766:	88 0f       	add	r24, r24
    1768:	99 1f       	adc	r25, r25
    176a:	8c 0f       	add	r24, r28
    176c:	9d 1f       	adc	r25, r29
    176e:	89 5f       	subi	r24, 0xF9	; 249
    1770:	9f 4f       	sbci	r25, 0xFF	; 255
    1772:	0e 94 5d 34 	call	0x68ba	; 0x68ba <__eerd_byte_m2561>
    1776:	fe 01       	movw	r30, r28
    1778:	e7 58       	subi	r30, 0x87	; 135
    177a:	f4 4f       	sbci	r31, 0xF4	; 244
    177c:	80 83       	st	Z, r24
    177e:	90 e0       	ldi	r25, 0x00	; 0
    1780:	9c 01       	movw	r18, r24
    1782:	22 0f       	add	r18, r18
    1784:	33 1f       	adc	r19, r19
    1786:	82 0f       	add	r24, r18
    1788:	93 1f       	adc	r25, r19
    178a:	87 58       	subi	r24, 0x87	; 135
    178c:	9c 4f       	sbci	r25, 0xFC	; 252
    178e:	24 e1       	ldi	r18, 0x14	; 20
    1790:	2c 9f       	mul	r18, r28
    1792:	f0 01       	movw	r30, r0
    1794:	2d 9f       	mul	r18, r29
    1796:	f0 0d       	add	r31, r0
    1798:	11 24       	eor	r1, r1
    179a:	e1 59       	subi	r30, 0x91	; 145
    179c:	fc 4f       	sbci	r31, 0xFC	; 252
    179e:	a5 91       	lpm	r26, Z+
    17a0:	b4 91       	lpm	r27, Z
    17a2:	fc 01       	movw	r30, r24
    17a4:	24 91       	lpm	r18, Z
    17a6:	2c 93       	st	X, r18
    17a8:	24 e1       	ldi	r18, 0x14	; 20
    17aa:	2c 9f       	mul	r18, r28
    17ac:	f0 01       	movw	r30, r0
    17ae:	2d 9f       	mul	r18, r29
    17b0:	f0 0d       	add	r31, r0
    17b2:	11 24       	eor	r1, r1
    17b4:	e3 59       	subi	r30, 0x93	; 147
    17b6:	fc 4f       	sbci	r31, 0xFC	; 252
    17b8:	a5 91       	lpm	r26, Z+
    17ba:	b4 91       	lpm	r27, Z
    17bc:	fc 01       	movw	r30, r24
    17be:	31 96       	adiw	r30, 0x01	; 1
    17c0:	e4 91       	lpm	r30, Z
    17c2:	ec 93       	st	X, r30
    17c4:	fe 01       	movw	r30, r28
    17c6:	ee 0f       	add	r30, r30
    17c8:	ff 1f       	adc	r31, r31
    17ca:	ce 0f       	add	r28, r30
    17cc:	df 1f       	adc	r29, r31
    17ce:	fe 01       	movw	r30, r28
    17d0:	ee 0f       	add	r30, r30
    17d2:	ff 1f       	adc	r31, r31
    17d4:	eb 5a       	subi	r30, 0xAB	; 171
    17d6:	fc 4f       	sbci	r31, 0xFC	; 252
    17d8:	a5 91       	lpm	r26, Z+
    17da:	b4 91       	lpm	r27, Z
    17dc:	fc 01       	movw	r30, r24
    17de:	32 96       	adiw	r30, 0x02	; 2
    17e0:	84 91       	lpm	r24, Z
    17e2:	8c 93       	st	X, r24
    17e4:	df 91       	pop	r29
    17e6:	cf 91       	pop	r28
    17e8:	08 95       	ret

000017ea <MB_Transm>:
    17ea:	cf 93       	push	r28
    17ec:	df 93       	push	r29
    17ee:	c8 2f       	mov	r28, r24
    17f0:	d0 e0       	ldi	r29, 0x00	; 0
    17f2:	fe 01       	movw	r30, r28
    17f4:	e5 53       	subi	r30, 0x35	; 53
    17f6:	f7 4f       	sbci	r31, 0xF7	; 247
    17f8:	83 e0       	ldi	r24, 0x03	; 3
    17fa:	80 83       	st	Z, r24
    17fc:	84 e1       	ldi	r24, 0x14	; 20
    17fe:	8c 9f       	mul	r24, r28
    1800:	f0 01       	movw	r30, r0
    1802:	8d 9f       	mul	r24, r29
    1804:	f0 0d       	add	r31, r0
    1806:	11 24       	eor	r1, r1
    1808:	ef 58       	subi	r30, 0x8F	; 143
    180a:	fc 4f       	sbci	r31, 0xFC	; 252
    180c:	85 91       	lpm	r24, Z+
    180e:	94 91       	lpm	r25, Z
    1810:	fc 01       	movw	r30, r24
    1812:	19 95       	eicall
    1814:	84 e1       	ldi	r24, 0x14	; 20
    1816:	8c 9f       	mul	r24, r28
    1818:	f0 01       	movw	r30, r0
    181a:	8d 9f       	mul	r24, r29
    181c:	f0 0d       	add	r31, r0
    181e:	11 24       	eor	r1, r1
    1820:	eb 59       	subi	r30, 0x9B	; 155
    1822:	fc 4f       	sbci	r31, 0xFC	; 252
    1824:	a5 91       	lpm	r26, Z+
    1826:	b4 91       	lpm	r27, Z
    1828:	fc 2f       	mov	r31, r28
    182a:	ee 27       	eor	r30, r30
    182c:	e1 5f       	subi	r30, 0xF1	; 241
    182e:	fc 4e       	sbci	r31, 0xEC	; 236
    1830:	80 81       	ld	r24, Z
    1832:	8c 93       	st	X, r24
    1834:	84 e1       	ldi	r24, 0x14	; 20
    1836:	8c 9f       	mul	r24, r28
    1838:	f0 01       	movw	r30, r0
    183a:	8d 9f       	mul	r24, r29
    183c:	f0 0d       	add	r31, r0
    183e:	11 24       	eor	r1, r1
    1840:	e9 59       	subi	r30, 0x99	; 153
    1842:	fc 4f       	sbci	r31, 0xFC	; 252
    1844:	a5 91       	lpm	r26, Z+
    1846:	b4 91       	lpm	r27, Z
    1848:	8c 91       	ld	r24, X
    184a:	80 64       	ori	r24, 0x40	; 64
    184c:	8c 93       	st	X, r24
    184e:	84 e1       	ldi	r24, 0x14	; 20
    1850:	8c 9f       	mul	r24, r28
    1852:	f0 01       	movw	r30, r0
    1854:	8d 9f       	mul	r24, r29
    1856:	f0 0d       	add	r31, r0
    1858:	11 24       	eor	r1, r1
    185a:	e7 59       	subi	r30, 0x97	; 151
    185c:	fc 4f       	sbci	r31, 0xFC	; 252
    185e:	a5 91       	lpm	r26, Z+
    1860:	b4 91       	lpm	r27, Z
    1862:	8c 91       	ld	r24, X
    1864:	80 62       	ori	r24, 0x20	; 32
    1866:	8c 93       	st	X, r24
    1868:	df 91       	pop	r29
    186a:	cf 91       	pop	r28
    186c:	08 95       	ret

0000186e <Modbus_RX>:
    186e:	cf 93       	push	r28
    1870:	df 93       	push	r29
    1872:	e5 e6       	ldi	r30, 0x65	; 101
    1874:	f3 e0       	ldi	r31, 0x03	; 3
    1876:	25 91       	lpm	r18, Z+
    1878:	34 91       	lpm	r19, Z
    187a:	82 17       	cp	r24, r18
    187c:	93 07       	cpc	r25, r19
    187e:	91 f0       	breq	.+36     	; 0x18a4 <Modbus_RX+0x36>
    1880:	40 e0       	ldi	r20, 0x00	; 0
    1882:	54 e1       	ldi	r21, 0x14	; 20
    1884:	4f 5f       	subi	r20, 0xFF	; 255
    1886:	c4 2f       	mov	r28, r20
    1888:	d0 e0       	ldi	r29, 0x00	; 0
    188a:	5c 9f       	mul	r21, r28
    188c:	f0 01       	movw	r30, r0
    188e:	5d 9f       	mul	r21, r29
    1890:	f0 0d       	add	r31, r0
    1892:	11 24       	eor	r1, r1
    1894:	eb 59       	subi	r30, 0x9B	; 155
    1896:	fc 4f       	sbci	r31, 0xFC	; 252
    1898:	25 91       	lpm	r18, Z+
    189a:	34 91       	lpm	r19, Z
    189c:	82 17       	cp	r24, r18
    189e:	93 07       	cpc	r25, r19
    18a0:	89 f7       	brne	.-30     	; 0x1884 <Modbus_RX+0x16>
    18a2:	03 c0       	rjmp	.+6      	; 0x18aa <Modbus_RX+0x3c>
    18a4:	c0 e0       	ldi	r28, 0x00	; 0
    18a6:	d0 e0       	ldi	r29, 0x00	; 0
    18a8:	40 e0       	ldi	r20, 0x00	; 0
    18aa:	fe 01       	movw	r30, r28
    18ac:	e5 53       	subi	r30, 0x35	; 53
    18ae:	f7 4f       	sbci	r31, 0xF7	; 247
    18b0:	20 81       	ld	r18, Z
    18b2:	22 30       	cpi	r18, 0x02	; 2
    18b4:	09 f4       	brne	.+2      	; 0x18b8 <Modbus_RX+0x4a>
    18b6:	49 c0       	rjmp	.+146    	; 0x194a <Modbus_RX+0xdc>
    18b8:	28 f4       	brcc	.+10     	; 0x18c4 <Modbus_RX+0x56>
    18ba:	22 23       	and	r18, r18
    18bc:	39 f0       	breq	.+14     	; 0x18cc <Modbus_RX+0x5e>
    18be:	21 30       	cpi	r18, 0x01	; 1
    18c0:	d1 f0       	breq	.+52     	; 0x18f6 <Modbus_RX+0x88>
    18c2:	56 c0       	rjmp	.+172    	; 0x1970 <Modbus_RX+0x102>
    18c4:	26 30       	cpi	r18, 0x06	; 6
    18c6:	08 f4       	brcc	.+2      	; 0x18ca <Modbus_RX+0x5c>
    18c8:	51 c0       	rjmp	.+162    	; 0x196c <Modbus_RX+0xfe>
    18ca:	52 c0       	rjmp	.+164    	; 0x1970 <Modbus_RX+0x102>
    18cc:	fc 01       	movw	r30, r24
    18ce:	80 81       	ld	r24, Z
    18d0:	fc 2f       	mov	r31, r28
    18d2:	ee 27       	eor	r30, r30
    18d4:	e1 5f       	subi	r30, 0xF1	; 241
    18d6:	fc 4e       	sbci	r31, 0xEC	; 236
    18d8:	80 83       	st	Z, r24
    18da:	fe 01       	movw	r30, r28
    18dc:	ee 0f       	add	r30, r30
    18de:	ff 1f       	adc	r31, r31
    18e0:	ce 0f       	add	r28, r30
    18e2:	df 1f       	adc	r29, r31
    18e4:	fe 01       	movw	r30, r28
    18e6:	ee 0f       	add	r30, r30
    18e8:	ff 1f       	adc	r31, r31
    18ea:	ed 5a       	subi	r30, 0xAD	; 173
    18ec:	fc 4f       	sbci	r31, 0xFC	; 252
    18ee:	a5 91       	lpm	r26, Z+
    18f0:	b4 91       	lpm	r27, Z
    18f2:	1c 92       	st	X, r1
    18f4:	3d c0       	rjmp	.+122    	; 0x1970 <Modbus_RX+0x102>
    18f6:	fe 01       	movw	r30, r28
    18f8:	e5 53       	subi	r30, 0x35	; 53
    18fa:	f7 4f       	sbci	r31, 0xF7	; 247
    18fc:	82 e0       	ldi	r24, 0x02	; 2
    18fe:	80 83       	st	Z, r24
    1900:	21 e0       	ldi	r18, 0x01	; 1
    1902:	30 e0       	ldi	r19, 0x00	; 0
    1904:	0c 2e       	mov	r0, r28
    1906:	02 c0       	rjmp	.+4      	; 0x190c <Modbus_RX+0x9e>
    1908:	22 0f       	add	r18, r18
    190a:	33 1f       	adc	r19, r19
    190c:	0a 94       	dec	r0
    190e:	e2 f7       	brpl	.-8      	; 0x1908 <Modbus_RX+0x9a>
    1910:	20 95       	com	r18
    1912:	80 91 e4 06 	lds	r24, 0x06E4
    1916:	28 23       	and	r18, r24
    1918:	20 93 e4 06 	sts	0x06E4, r18
    191c:	fe 01       	movw	r30, r28
    191e:	e3 5c       	subi	r30, 0xC3	; 195
    1920:	f5 4f       	sbci	r31, 0xF5	; 245
    1922:	10 82       	st	Z, r1
    1924:	84 2f       	mov	r24, r20
    1926:	0e 94 42 02 	call	0x484	; 0x484 <MBRecept>
    192a:	ce 01       	movw	r24, r28
    192c:	88 0f       	add	r24, r24
    192e:	99 1f       	adc	r25, r25
    1930:	c8 0f       	add	r28, r24
    1932:	d9 1f       	adc	r29, r25
    1934:	ce 01       	movw	r24, r28
    1936:	88 0f       	add	r24, r24
    1938:	99 1f       	adc	r25, r25
    193a:	89 5a       	subi	r24, 0xA9	; 169
    193c:	9c 4f       	sbci	r25, 0xFC	; 252
    193e:	fc 01       	movw	r30, r24
    1940:	25 91       	lpm	r18, Z+
    1942:	34 91       	lpm	r19, Z
    1944:	f9 01       	movw	r30, r18
    1946:	19 95       	eicall
    1948:	13 c0       	rjmp	.+38     	; 0x1970 <Modbus_RX+0x102>
    194a:	84 2f       	mov	r24, r20
    194c:	0e 94 42 02 	call	0x484	; 0x484 <MBRecept>
    1950:	fe 01       	movw	r30, r28
    1952:	ee 0f       	add	r30, r30
    1954:	ff 1f       	adc	r31, r31
    1956:	ce 0f       	add	r28, r30
    1958:	df 1f       	adc	r29, r31
    195a:	fe 01       	movw	r30, r28
    195c:	ee 0f       	add	r30, r30
    195e:	ff 1f       	adc	r31, r31
    1960:	ed 5a       	subi	r30, 0xAD	; 173
    1962:	fc 4f       	sbci	r31, 0xFC	; 252
    1964:	a5 91       	lpm	r26, Z+
    1966:	b4 91       	lpm	r27, Z
    1968:	1c 92       	st	X, r1
    196a:	02 c0       	rjmp	.+4      	; 0x1970 <Modbus_RX+0x102>
    196c:	fc 01       	movw	r30, r24
    196e:	80 81       	ld	r24, Z
    1970:	df 91       	pop	r29
    1972:	cf 91       	pop	r28
    1974:	08 95       	ret

00001976 <CommErr>:
    1976:	ef 92       	push	r14
    1978:	ff 92       	push	r15
    197a:	1f 93       	push	r17
    197c:	cf 93       	push	r28
    197e:	df 93       	push	r29
    1980:	c8 2f       	mov	r28, r24
    1982:	d0 e0       	ldi	r29, 0x00	; 0
    1984:	fe 01       	movw	r30, r28
    1986:	e3 5c       	subi	r30, 0xC3	; 195
    1988:	f5 4f       	sbci	r31, 0xF5	; 245
    198a:	20 81       	ld	r18, Z
    198c:	40 91 e4 06 	lds	r20, 0x06E4
    1990:	50 e0       	ldi	r21, 0x00	; 0
    1992:	ba 01       	movw	r22, r20
    1994:	02 c0       	rjmp	.+4      	; 0x199a <CommErr+0x24>
    1996:	75 95       	asr	r23
    1998:	67 95       	ror	r22
    199a:	8a 95       	dec	r24
    199c:	e2 f7       	brpl	.-8      	; 0x1996 <CommErr+0x20>
    199e:	60 fd       	sbrc	r22, 0
    19a0:	1a c0       	rjmp	.+52     	; 0x19d6 <CommErr+0x60>
    19a2:	23 30       	cpi	r18, 0x03	; 3
    19a4:	d0 f0       	brcs	.+52     	; 0x19da <CommErr+0x64>
    19a6:	22 50       	subi	r18, 0x02	; 2
    19a8:	7c 2f       	mov	r23, r28
    19aa:	66 27       	eor	r22, r22
    19ac:	61 5f       	subi	r22, 0xF1	; 241
    19ae:	7c 4e       	sbci	r23, 0xEC	; 236
    19b0:	fb 01       	movw	r30, r22
    19b2:	e2 0f       	add	r30, r18
    19b4:	f1 1d       	adc	r31, r1
    19b6:	e0 80       	ld	r14, Z
    19b8:	f1 80       	ldd	r15, Z+1	; 0x01
    19ba:	30 e0       	ldi	r19, 0x00	; 0
    19bc:	40 e0       	ldi	r20, 0x00	; 0
    19be:	50 e0       	ldi	r21, 0x00	; 0
    19c0:	8b ef       	ldi	r24, 0xFB	; 251
    19c2:	91 e0       	ldi	r25, 0x01	; 1
    19c4:	bf dd       	rcall	.-1154   	; 0x1544 <CRC>
    19c6:	11 e0       	ldi	r17, 0x01	; 1
    19c8:	e8 16       	cp	r14, r24
    19ca:	f9 06       	cpc	r15, r25
    19cc:	09 f4       	brne	.+2      	; 0x19d0 <CommErr+0x5a>
    19ce:	10 e0       	ldi	r17, 0x00	; 0
    19d0:	11 23       	and	r17, r17
    19d2:	f9 f0       	breq	.+62     	; 0x1a12 <CommErr+0x9c>
    19d4:	03 c0       	rjmp	.+6      	; 0x19dc <CommErr+0x66>
    19d6:	11 e0       	ldi	r17, 0x01	; 1
    19d8:	01 c0       	rjmp	.+2      	; 0x19dc <CommErr+0x66>
    19da:	11 e0       	ldi	r17, 0x01	; 1
    19dc:	fe 01       	movw	r30, r28
    19de:	e2 95       	swap	r30
    19e0:	f2 95       	swap	r31
    19e2:	f0 7f       	andi	r31, 0xF0	; 240
    19e4:	fe 27       	eor	r31, r30
    19e6:	e0 7f       	andi	r30, 0xF0	; 240
    19e8:	fe 27       	eor	r31, r30
    19ea:	e0 59       	subi	r30, 0x90	; 144
    19ec:	fd 4e       	sbci	r31, 0xED	; 237
    19ee:	82 81       	ldd	r24, Z+2	; 0x02
    19f0:	93 81       	ldd	r25, Z+3	; 0x03
    19f2:	01 96       	adiw	r24, 0x01	; 1
    19f4:	93 83       	std	Z+3, r25	; 0x03
    19f6:	82 83       	std	Z+2, r24	; 0x02
    19f8:	84 e1       	ldi	r24, 0x14	; 20
    19fa:	8c 9f       	mul	r24, r28
    19fc:	f0 01       	movw	r30, r0
    19fe:	8d 9f       	mul	r24, r29
    1a00:	f0 0d       	add	r31, r0
    1a02:	11 24       	eor	r1, r1
    1a04:	eb 58       	subi	r30, 0x8B	; 139
    1a06:	fc 4f       	sbci	r31, 0xFC	; 252
    1a08:	85 91       	lpm	r24, Z+
    1a0a:	94 91       	lpm	r25, Z
    1a0c:	fc 01       	movw	r30, r24
    1a0e:	19 95       	eicall
    1a10:	1b c0       	rjmp	.+54     	; 0x1a48 <CommErr+0xd2>
    1a12:	fe 01       	movw	r30, r28
    1a14:	e2 95       	swap	r30
    1a16:	f2 95       	swap	r31
    1a18:	f0 7f       	andi	r31, 0xF0	; 240
    1a1a:	fe 27       	eor	r31, r30
    1a1c:	e0 7f       	andi	r30, 0xF0	; 240
    1a1e:	fe 27       	eor	r31, r30
    1a20:	e0 59       	subi	r30, 0x90	; 144
    1a22:	fd 4e       	sbci	r31, 0xED	; 237
    1a24:	20 81       	ld	r18, Z
    1a26:	31 81       	ldd	r19, Z+1	; 0x01
    1a28:	2f 5f       	subi	r18, 0xFF	; 255
    1a2a:	3f 4f       	sbci	r19, 0xFF	; 255
    1a2c:	31 83       	std	Z+1, r19	; 0x01
    1a2e:	20 83       	st	Z, r18
    1a30:	84 e1       	ldi	r24, 0x14	; 20
    1a32:	8c 9f       	mul	r24, r28
    1a34:	f0 01       	movw	r30, r0
    1a36:	8d 9f       	mul	r24, r29
    1a38:	f0 0d       	add	r31, r0
    1a3a:	11 24       	eor	r1, r1
    1a3c:	e9 58       	subi	r30, 0x89	; 137
    1a3e:	fc 4f       	sbci	r31, 0xFC	; 252
    1a40:	25 91       	lpm	r18, Z+
    1a42:	34 91       	lpm	r19, Z
    1a44:	f9 01       	movw	r30, r18
    1a46:	19 95       	eicall
    1a48:	81 2f       	mov	r24, r17
    1a4a:	df 91       	pop	r29
    1a4c:	cf 91       	pop	r28
    1a4e:	1f 91       	pop	r17
    1a50:	ff 90       	pop	r15
    1a52:	ef 90       	pop	r14
    1a54:	08 95       	ret

00001a56 <SetCRC_MB>:
    1a56:	cf 93       	push	r28
    1a58:	df 93       	push	r29
    1a5a:	68 2f       	mov	r22, r24
    1a5c:	70 e0       	ldi	r23, 0x00	; 0
    1a5e:	fb 01       	movw	r30, r22
    1a60:	e3 5c       	subi	r30, 0xC3	; 195
    1a62:	f5 4f       	sbci	r31, 0xF5	; 245
    1a64:	20 81       	ld	r18, Z
    1a66:	22 50       	subi	r18, 0x02	; 2
    1a68:	76 2f       	mov	r23, r22
    1a6a:	66 27       	eor	r22, r22
    1a6c:	61 5f       	subi	r22, 0xF1	; 241
    1a6e:	7c 4e       	sbci	r23, 0xEC	; 236
    1a70:	eb 01       	movw	r28, r22
    1a72:	c2 0f       	add	r28, r18
    1a74:	d1 1d       	adc	r29, r1
    1a76:	30 e0       	ldi	r19, 0x00	; 0
    1a78:	40 e0       	ldi	r20, 0x00	; 0
    1a7a:	50 e0       	ldi	r21, 0x00	; 0
    1a7c:	8b ef       	ldi	r24, 0xFB	; 251
    1a7e:	91 e0       	ldi	r25, 0x01	; 1
    1a80:	61 dd       	rcall	.-1342   	; 0x1544 <CRC>
    1a82:	99 83       	std	Y+1, r25	; 0x01
    1a84:	88 83       	st	Y, r24
    1a86:	df 91       	pop	r29
    1a88:	cf 91       	pop	r28
    1a8a:	08 95       	ret

00001a8c <MB_FrameReg>:
    1a8c:	28 2f       	mov	r18, r24
    1a8e:	30 e0       	ldi	r19, 0x00	; 0
    1a90:	70 e0       	ldi	r23, 0x00	; 0
    1a92:	32 2f       	mov	r19, r18
    1a94:	22 27       	eor	r18, r18
    1a96:	f9 01       	movw	r30, r18
    1a98:	e1 5f       	subi	r30, 0xF1	; 241
    1a9a:	fc 4e       	sbci	r31, 0xEC	; 236
    1a9c:	e6 0f       	add	r30, r22
    1a9e:	f7 1f       	adc	r31, r23
    1aa0:	81 81       	ldd	r24, Z+1	; 0x01
    1aa2:	62 0f       	add	r22, r18
    1aa4:	73 1f       	adc	r23, r19
    1aa6:	fb 01       	movw	r30, r22
    1aa8:	e1 5f       	subi	r30, 0xF1	; 241
    1aaa:	fc 4e       	sbci	r31, 0xEC	; 236
    1aac:	20 81       	ld	r18, Z
    1aae:	90 e0       	ldi	r25, 0x00	; 0
    1ab0:	92 2b       	or	r25, r18
    1ab2:	08 95       	ret

00001ab4 <FormData>:
    1ab4:	cf 92       	push	r12
    1ab6:	df 92       	push	r13
    1ab8:	ef 92       	push	r14
    1aba:	ff 92       	push	r15
    1abc:	0f 93       	push	r16
    1abe:	1f 93       	push	r17
    1ac0:	cf 93       	push	r28
    1ac2:	df 93       	push	r29
    1ac4:	f8 2e       	mov	r15, r24
    1ac6:	c8 2f       	mov	r28, r24
    1ac8:	d0 e0       	ldi	r29, 0x00	; 0
    1aca:	fc 2f       	mov	r31, r28
    1acc:	ee 27       	eor	r30, r30
    1ace:	e1 5f       	subi	r30, 0xF1	; 241
    1ad0:	fc 4e       	sbci	r31, 0xEC	; 236
    1ad2:	81 81       	ldd	r24, Z+1	; 0x01
    1ad4:	86 30       	cpi	r24, 0x06	; 6
    1ad6:	81 f0       	breq	.+32     	; 0x1af8 <FormData+0x44>
    1ad8:	20 f4       	brcc	.+8      	; 0x1ae2 <FormData+0x2e>
    1ada:	81 50       	subi	r24, 0x01	; 1
    1adc:	84 30       	cpi	r24, 0x04	; 4
    1ade:	38 f0       	brcs	.+14     	; 0x1aee <FormData+0x3a>
    1ae0:	e7 c0       	rjmp	.+462    	; 0x1cb0 <FormData+0x1fc>
    1ae2:	8f 30       	cpi	r24, 0x0F	; 15
    1ae4:	d9 f0       	breq	.+54     	; 0x1b1c <FormData+0x68>
    1ae6:	80 31       	cpi	r24, 0x10	; 16
    1ae8:	09 f4       	brne	.+2      	; 0x1aec <FormData+0x38>
    1aea:	b3 c0       	rjmp	.+358    	; 0x1c52 <FormData+0x19e>
    1aec:	e1 c0       	rjmp	.+450    	; 0x1cb0 <FormData+0x1fc>
    1aee:	c3 5c       	subi	r28, 0xC3	; 195
    1af0:	d5 4f       	sbci	r29, 0xF5	; 245
    1af2:	88 e0       	ldi	r24, 0x08	; 8
    1af4:	88 83       	st	Y, r24
    1af6:	dc c0       	rjmp	.+440    	; 0x1cb0 <FormData+0x1fc>
    1af8:	fe 01       	movw	r30, r28
    1afa:	e3 5c       	subi	r30, 0xC3	; 195
    1afc:	f5 4f       	sbci	r31, 0xF5	; 245
    1afe:	88 e0       	ldi	r24, 0x08	; 8
    1b00:	80 83       	st	Z, r24
    1b02:	8f 2d       	mov	r24, r15
    1b04:	0e 94 88 02 	call	0x510	; 0x510 <GetReg>
    1b08:	dc 2f       	mov	r29, r28
    1b0a:	cc 27       	eor	r28, r28
    1b0c:	c1 5f       	subi	r28, 0xF1	; 241
    1b0e:	dc 4e       	sbci	r29, 0xEC	; 236
    1b10:	fc 01       	movw	r30, r24
    1b12:	21 81       	ldd	r18, Z+1	; 0x01
    1b14:	2c 83       	std	Y+4, r18	; 0x04
    1b16:	80 81       	ld	r24, Z
    1b18:	8d 83       	std	Y+5, r24	; 0x05
    1b1a:	ca c0       	rjmp	.+404    	; 0x1cb0 <FormData+0x1fc>
    1b1c:	64 e0       	ldi	r22, 0x04	; 4
    1b1e:	8f 2d       	mov	r24, r15
    1b20:	b5 df       	rcall	.-150    	; 0x1a8c <MB_FrameReg>
    1b22:	8c 01       	movw	r16, r24
    1b24:	96 95       	lsr	r25
    1b26:	87 95       	ror	r24
    1b28:	96 95       	lsr	r25
    1b2a:	87 95       	ror	r24
    1b2c:	96 95       	lsr	r25
    1b2e:	87 95       	ror	r24
    1b30:	98 01       	movw	r18, r16
    1b32:	27 70       	andi	r18, 0x07	; 7
    1b34:	33 27       	eor	r19, r19
    1b36:	41 e0       	ldi	r20, 0x01	; 1
    1b38:	23 2b       	or	r18, r19
    1b3a:	09 f4       	brne	.+2      	; 0x1b3e <FormData+0x8a>
    1b3c:	40 e0       	ldi	r20, 0x00	; 0
    1b3e:	24 2f       	mov	r18, r20
    1b40:	28 0f       	add	r18, r24
    1b42:	fc 2f       	mov	r31, r28
    1b44:	ee 27       	eor	r30, r30
    1b46:	e1 5f       	subi	r30, 0xF1	; 241
    1b48:	fc 4e       	sbci	r31, 0xEC	; 236
    1b4a:	26 83       	std	Z+6, r18	; 0x06
    1b4c:	de 01       	movw	r26, r28
    1b4e:	a3 5c       	subi	r26, 0xC3	; 195
    1b50:	b5 4f       	sbci	r27, 0xF5	; 245
    1b52:	27 5f       	subi	r18, 0xF7	; 247
    1b54:	2c 93       	st	X, r18
    1b56:	e8 0f       	add	r30, r24
    1b58:	f9 1f       	adc	r31, r25
    1b5a:	17 82       	std	Z+7, r1	; 0x07
    1b5c:	fe 01       	movw	r30, r28
    1b5e:	ee 50       	subi	r30, 0x0E	; 14
    1b60:	f6 4f       	sbci	r31, 0xF6	; 246
    1b62:	80 81       	ld	r24, Z
    1b64:	82 30       	cpi	r24, 0x02	; 2
    1b66:	09 f1       	breq	.+66     	; 0x1baa <FormData+0xf6>
    1b68:	fe 01       	movw	r30, r28
    1b6a:	e2 95       	swap	r30
    1b6c:	f2 95       	swap	r31
    1b6e:	f0 7f       	andi	r31, 0xF0	; 240
    1b70:	fe 27       	eor	r31, r30
    1b72:	e0 7f       	andi	r30, 0xF0	; 240
    1b74:	fe 27       	eor	r31, r30
    1b76:	ec 56       	subi	r30, 0x6C	; 108
    1b78:	fc 4f       	sbci	r31, 0xFC	; 252
    1b7a:	c5 90       	lpm	r12, Z+
    1b7c:	d4 90       	lpm	r13, Z
    1b7e:	8f 2d       	mov	r24, r15
    1b80:	0e 94 2a 02 	call	0x454	; 0x454 <GetSlave>
    1b84:	01 96       	adiw	r24, 0x01	; 1
    1b86:	fc 01       	movw	r30, r24
    1b88:	85 91       	lpm	r24, Z+
    1b8a:	94 91       	lpm	r25, Z
    1b8c:	fe 01       	movw	r30, r28
    1b8e:	eb 51       	subi	r30, 0x1B	; 27
    1b90:	f6 4f       	sbci	r31, 0xF6	; 246
    1b92:	20 81       	ld	r18, Z
    1b94:	fc 01       	movw	r30, r24
    1b96:	37 e0       	ldi	r19, 0x07	; 7
    1b98:	23 9f       	mul	r18, r19
    1b9a:	e0 0d       	add	r30, r0
    1b9c:	f1 1d       	adc	r31, r1
    1b9e:	11 24       	eor	r1, r1
    1ba0:	35 96       	adiw	r30, 0x05	; 5
    1ba2:	85 91       	lpm	r24, Z+
    1ba4:	94 91       	lpm	r25, Z
    1ba6:	b8 2f       	mov	r27, r24
    1ba8:	0c c0       	rjmp	.+24     	; 0x1bc2 <FormData+0x10e>
    1baa:	fe 01       	movw	r30, r28
    1bac:	ee 0f       	add	r30, r30
    1bae:	ff 1f       	adc	r31, r31
    1bb0:	ee 0f       	add	r30, r30
    1bb2:	ff 1f       	adc	r31, r31
    1bb4:	ee 0f       	add	r30, r30
    1bb6:	ff 1f       	adc	r31, r31
    1bb8:	e4 52       	subi	r30, 0x24	; 36
    1bba:	f9 4f       	sbci	r31, 0xF9	; 249
    1bbc:	c6 80       	ldd	r12, Z+6	; 0x06
    1bbe:	d7 80       	ldd	r13, Z+7	; 0x07
    1bc0:	b0 e0       	ldi	r27, 0x00	; 0
    1bc2:	01 15       	cp	r16, r1
    1bc4:	11 05       	cpc	r17, r1
    1bc6:	09 f4       	brne	.+2      	; 0x1bca <FormData+0x116>
    1bc8:	73 c0       	rjmp	.+230    	; 0x1cb0 <FormData+0x1fc>
    1bca:	a0 e0       	ldi	r26, 0x00	; 0
    1bcc:	61 e0       	ldi	r22, 0x01	; 1
    1bce:	70 e0       	ldi	r23, 0x00	; 0
    1bd0:	dc 2f       	mov	r29, r28
    1bd2:	cc 27       	eor	r28, r28
    1bd4:	8a 2f       	mov	r24, r26
    1bd6:	8b 0f       	add	r24, r27
    1bd8:	9a 2f       	mov	r25, r26
    1bda:	96 95       	lsr	r25
    1bdc:	96 95       	lsr	r25
    1bde:	96 95       	lsr	r25
    1be0:	0f 2e       	mov	r0, r31
    1be2:	f7 e0       	ldi	r31, 0x07	; 7
    1be4:	ef 2e       	mov	r14, r31
    1be6:	f0 2d       	mov	r31, r0
    1be8:	e9 0e       	add	r14, r25
    1bea:	2a 2f       	mov	r18, r26
    1bec:	27 70       	andi	r18, 0x07	; 7
    1bee:	ab 01       	movw	r20, r22
    1bf0:	02 c0       	rjmp	.+4      	; 0x1bf6 <FormData+0x142>
    1bf2:	44 0f       	add	r20, r20
    1bf4:	55 1f       	adc	r21, r21
    1bf6:	2a 95       	dec	r18
    1bf8:	e2 f7       	brpl	.-8      	; 0x1bf2 <FormData+0x13e>
    1bfa:	9a 01       	movw	r18, r20
    1bfc:	98 2f       	mov	r25, r24
    1bfe:	96 95       	lsr	r25
    1c00:	96 95       	lsr	r25
    1c02:	96 95       	lsr	r25
    1c04:	f6 01       	movw	r30, r12
    1c06:	e9 0f       	add	r30, r25
    1c08:	f1 1d       	adc	r31, r1
    1c0a:	40 81       	ld	r20, Z
    1c0c:	50 e0       	ldi	r21, 0x00	; 0
    1c0e:	87 70       	andi	r24, 0x07	; 7
    1c10:	fa 01       	movw	r30, r20
    1c12:	02 c0       	rjmp	.+4      	; 0x1c18 <FormData+0x164>
    1c14:	f5 95       	asr	r31
    1c16:	e7 95       	ror	r30
    1c18:	8a 95       	dec	r24
    1c1a:	e2 f7       	brpl	.-8      	; 0x1c14 <FormData+0x160>
    1c1c:	e0 ff       	sbrs	r30, 0
    1c1e:	09 c0       	rjmp	.+18     	; 0x1c32 <FormData+0x17e>
    1c20:	fe 01       	movw	r30, r28
    1c22:	ee 0d       	add	r30, r14
    1c24:	f1 1d       	adc	r31, r1
    1c26:	e1 5f       	subi	r30, 0xF1	; 241
    1c28:	fc 4e       	sbci	r31, 0xEC	; 236
    1c2a:	80 81       	ld	r24, Z
    1c2c:	28 2b       	or	r18, r24
    1c2e:	20 83       	st	Z, r18
    1c30:	09 c0       	rjmp	.+18     	; 0x1c44 <FormData+0x190>
    1c32:	fe 01       	movw	r30, r28
    1c34:	ee 0d       	add	r30, r14
    1c36:	f1 1d       	adc	r31, r1
    1c38:	e1 5f       	subi	r30, 0xF1	; 241
    1c3a:	fc 4e       	sbci	r31, 0xEC	; 236
    1c3c:	20 95       	com	r18
    1c3e:	80 81       	ld	r24, Z
    1c40:	28 23       	and	r18, r24
    1c42:	20 83       	st	Z, r18
    1c44:	af 5f       	subi	r26, 0xFF	; 255
    1c46:	2a 2f       	mov	r18, r26
    1c48:	30 e0       	ldi	r19, 0x00	; 0
    1c4a:	20 17       	cp	r18, r16
    1c4c:	31 07       	cpc	r19, r17
    1c4e:	10 f2       	brcs	.-124    	; 0x1bd4 <FormData+0x120>
    1c50:	2f c0       	rjmp	.+94     	; 0x1cb0 <FormData+0x1fc>
    1c52:	1c 2f       	mov	r17, r28
    1c54:	00 27       	eor	r16, r16
    1c56:	01 5f       	subi	r16, 0xF1	; 241
    1c58:	1c 4e       	sbci	r17, 0xEC	; 236
    1c5a:	f8 01       	movw	r30, r16
    1c5c:	85 81       	ldd	r24, Z+5	; 0x05
    1c5e:	88 0f       	add	r24, r24
    1c60:	86 83       	std	Z+6, r24	; 0x06
    1c62:	fe 01       	movw	r30, r28
    1c64:	e3 5c       	subi	r30, 0xC3	; 195
    1c66:	f5 4f       	sbci	r31, 0xF5	; 245
    1c68:	87 5f       	subi	r24, 0xF7	; 247
    1c6a:	80 83       	st	Z, r24
    1c6c:	8f 2d       	mov	r24, r15
    1c6e:	0e 94 88 02 	call	0x510	; 0x510 <GetReg>
    1c72:	f8 01       	movw	r30, r16
    1c74:	25 81       	ldd	r18, Z+5	; 0x05
    1c76:	22 23       	and	r18, r18
    1c78:	d9 f0       	breq	.+54     	; 0x1cb0 <FormData+0x1fc>
    1c7a:	40 e0       	ldi	r20, 0x00	; 0
    1c7c:	e8 01       	movw	r28, r16
    1c7e:	98 01       	movw	r18, r16
    1c80:	2b 5f       	subi	r18, 0xFB	; 251
    1c82:	3f 4f       	sbci	r19, 0xFF	; 255
    1c84:	54 2f       	mov	r21, r20
    1c86:	55 0f       	add	r21, r21
    1c88:	a4 2f       	mov	r26, r20
    1c8a:	b0 e0       	ldi	r27, 0x00	; 0
    1c8c:	aa 0f       	add	r26, r26
    1c8e:	bb 1f       	adc	r27, r27
    1c90:	a8 0f       	add	r26, r24
    1c92:	b9 1f       	adc	r27, r25
    1c94:	fe 01       	movw	r30, r28
    1c96:	e5 0f       	add	r30, r21
    1c98:	f1 1d       	adc	r31, r1
    1c9a:	11 96       	adiw	r26, 0x01	; 1
    1c9c:	5c 91       	ld	r21, X
    1c9e:	11 97       	sbiw	r26, 0x01	; 1
    1ca0:	57 83       	std	Z+7, r21	; 0x07
    1ca2:	5c 91       	ld	r21, X
    1ca4:	50 87       	std	Z+8, r21	; 0x08
    1ca6:	4f 5f       	subi	r20, 0xFF	; 255
    1ca8:	f9 01       	movw	r30, r18
    1caa:	50 81       	ld	r21, Z
    1cac:	45 17       	cp	r20, r21
    1cae:	50 f3       	brcs	.-44     	; 0x1c84 <FormData+0x1d0>
    1cb0:	8f 2d       	mov	r24, r15
    1cb2:	d1 de       	rcall	.-606    	; 0x1a56 <SetCRC_MB>
    1cb4:	df 91       	pop	r29
    1cb6:	cf 91       	pop	r28
    1cb8:	1f 91       	pop	r17
    1cba:	0f 91       	pop	r16
    1cbc:	ff 90       	pop	r15
    1cbe:	ef 90       	pop	r14
    1cc0:	df 90       	pop	r13
    1cc2:	cf 90       	pop	r12
    1cc4:	08 95       	ret

00001cc6 <FormQuery>:
    1cc6:	cf 93       	push	r28
    1cc8:	c8 2f       	mov	r28, r24
    1cca:	0e 94 2a 02 	call	0x454	; 0x454 <GetSlave>
    1cce:	bc 01       	movw	r22, r24
    1cd0:	fc 01       	movw	r30, r24
    1cd2:	31 96       	adiw	r30, 0x01	; 1
    1cd4:	45 91       	lpm	r20, Z+
    1cd6:	54 91       	lpm	r21, Z
    1cd8:	2c 2f       	mov	r18, r28
    1cda:	30 e0       	ldi	r19, 0x00	; 0
    1cdc:	f9 01       	movw	r30, r18
    1cde:	eb 51       	subi	r30, 0x1B	; 27
    1ce0:	f6 4f       	sbci	r31, 0xF6	; 246
    1ce2:	80 81       	ld	r24, Z
    1ce4:	97 e0       	ldi	r25, 0x07	; 7
    1ce6:	89 9f       	mul	r24, r25
    1ce8:	40 0d       	add	r20, r0
    1cea:	51 1d       	adc	r21, r1
    1cec:	11 24       	eor	r1, r1
    1cee:	fb 01       	movw	r30, r22
    1cf0:	64 91       	lpm	r22, Z
    1cf2:	f2 2f       	mov	r31, r18
    1cf4:	ee 27       	eor	r30, r30
    1cf6:	e1 5f       	subi	r30, 0xF1	; 241
    1cf8:	fc 4e       	sbci	r31, 0xEC	; 236
    1cfa:	60 83       	st	Z, r22
    1cfc:	fa 01       	movw	r30, r20
    1cfe:	84 91       	lpm	r24, Z
    1d00:	f2 2f       	mov	r31, r18
    1d02:	ee 27       	eor	r30, r30
    1d04:	e1 5f       	subi	r30, 0xF1	; 241
    1d06:	fc 4e       	sbci	r31, 0xEC	; 236
    1d08:	81 83       	std	Z+1, r24	; 0x01
    1d0a:	fa 01       	movw	r30, r20
    1d0c:	32 96       	adiw	r30, 0x02	; 2
    1d0e:	e4 91       	lpm	r30, Z
    1d10:	b2 2f       	mov	r27, r18
    1d12:	aa 27       	eor	r26, r26
    1d14:	a1 5f       	subi	r26, 0xF1	; 241
    1d16:	bc 4e       	sbci	r27, 0xEC	; 236
    1d18:	12 96       	adiw	r26, 0x02	; 2
    1d1a:	ec 93       	st	X, r30
    1d1c:	fa 01       	movw	r30, r20
    1d1e:	31 96       	adiw	r30, 0x01	; 1
    1d20:	e4 91       	lpm	r30, Z
    1d22:	b2 2f       	mov	r27, r18
    1d24:	aa 27       	eor	r26, r26
    1d26:	a1 5f       	subi	r26, 0xF1	; 241
    1d28:	bc 4e       	sbci	r27, 0xEC	; 236
    1d2a:	13 96       	adiw	r26, 0x03	; 3
    1d2c:	ec 93       	st	X, r30
    1d2e:	fa 01       	movw	r30, r20
    1d30:	34 96       	adiw	r30, 0x04	; 4
    1d32:	e4 91       	lpm	r30, Z
    1d34:	b2 2f       	mov	r27, r18
    1d36:	aa 27       	eor	r26, r26
    1d38:	a1 5f       	subi	r26, 0xF1	; 241
    1d3a:	bc 4e       	sbci	r27, 0xEC	; 236
    1d3c:	14 96       	adiw	r26, 0x04	; 4
    1d3e:	ec 93       	st	X, r30
    1d40:	fa 01       	movw	r30, r20
    1d42:	33 96       	adiw	r30, 0x03	; 3
    1d44:	44 91       	lpm	r20, Z
    1d46:	b2 2f       	mov	r27, r18
    1d48:	aa 27       	eor	r26, r26
    1d4a:	a1 5f       	subi	r26, 0xF1	; 241
    1d4c:	bc 4e       	sbci	r27, 0xEC	; 236
    1d4e:	15 96       	adiw	r26, 0x05	; 5
    1d50:	4c 93       	st	X, r20
    1d52:	8c 2f       	mov	r24, r28
    1d54:	af de       	rcall	.-674    	; 0x1ab4 <FormData>
    1d56:	cf 91       	pop	r28
    1d58:	08 95       	ret

00001d5a <FormSingle>:
    1d5a:	28 2f       	mov	r18, r24
    1d5c:	30 e0       	ldi	r19, 0x00	; 0
    1d5e:	f2 2f       	mov	r31, r18
    1d60:	ee 27       	eor	r30, r30
    1d62:	e1 5f       	subi	r30, 0xF1	; 241
    1d64:	fc 4e       	sbci	r31, 0xEC	; 236
    1d66:	d9 01       	movw	r26, r18
    1d68:	aa 0f       	add	r26, r26
    1d6a:	bb 1f       	adc	r27, r27
    1d6c:	aa 0f       	add	r26, r26
    1d6e:	bb 1f       	adc	r27, r27
    1d70:	aa 0f       	add	r26, r26
    1d72:	bb 1f       	adc	r27, r27
    1d74:	a4 52       	subi	r26, 0x24	; 36
    1d76:	b9 4f       	sbci	r27, 0xF9	; 249
    1d78:	9c 91       	ld	r25, X
    1d7a:	90 83       	st	Z, r25
    1d7c:	11 96       	adiw	r26, 0x01	; 1
    1d7e:	9c 91       	ld	r25, X
    1d80:	11 97       	sbiw	r26, 0x01	; 1
    1d82:	91 83       	std	Z+1, r25	; 0x01
    1d84:	12 96       	adiw	r26, 0x02	; 2
    1d86:	9c 91       	ld	r25, X
    1d88:	12 97       	sbiw	r26, 0x02	; 2
    1d8a:	13 96       	adiw	r26, 0x03	; 3
    1d8c:	4c 91       	ld	r20, X
    1d8e:	13 97       	sbiw	r26, 0x03	; 3
    1d90:	42 83       	std	Z+2, r20	; 0x02
    1d92:	93 83       	std	Z+3, r25	; 0x03
    1d94:	14 96       	adiw	r26, 0x04	; 4
    1d96:	9c 91       	ld	r25, X
    1d98:	14 97       	sbiw	r26, 0x04	; 4
    1d9a:	15 96       	adiw	r26, 0x05	; 5
    1d9c:	4c 91       	ld	r20, X
    1d9e:	44 83       	std	Z+4, r20	; 0x04
    1da0:	95 83       	std	Z+5, r25	; 0x05
    1da2:	f9 01       	movw	r30, r18
    1da4:	ee 50       	subi	r30, 0x0E	; 14
    1da6:	f6 4f       	sbci	r31, 0xF6	; 246
    1da8:	92 e0       	ldi	r25, 0x02	; 2
    1daa:	90 83       	st	Z, r25
    1dac:	83 ce       	rjmp	.-762    	; 0x1ab4 <FormData>
    1dae:	08 95       	ret

00001db0 <MB_S_Timer_ISR>:
    1db0:	6f 92       	push	r6
    1db2:	7f 92       	push	r7
    1db4:	8f 92       	push	r8
    1db6:	9f 92       	push	r9
    1db8:	af 92       	push	r10
    1dba:	bf 92       	push	r11
    1dbc:	cf 92       	push	r12
    1dbe:	df 92       	push	r13
    1dc0:	ef 92       	push	r14
    1dc2:	ff 92       	push	r15
    1dc4:	0f 93       	push	r16
    1dc6:	1f 93       	push	r17
    1dc8:	cf 93       	push	r28
    1dca:	df 93       	push	r29
    1dcc:	d8 2e       	mov	r13, r24
    1dce:	c8 2f       	mov	r28, r24
    1dd0:	d0 e0       	ldi	r29, 0x00	; 0
    1dd2:	fe 01       	movw	r30, r28
    1dd4:	e5 53       	subi	r30, 0x35	; 53
    1dd6:	f7 4f       	sbci	r31, 0xF7	; 247
    1dd8:	80 81       	ld	r24, Z
    1dda:	88 23       	and	r24, r24
    1ddc:	19 f0       	breq	.+6      	; 0x1de4 <MB_S_Timer_ISR+0x34>
    1dde:	82 30       	cpi	r24, 0x02	; 2
    1de0:	31 f0       	breq	.+12     	; 0x1dee <MB_S_Timer_ISR+0x3e>
    1de2:	6f c3       	rjmp	.+1758   	; 0x24c2 <__stack+0x2c3>
    1de4:	c5 53       	subi	r28, 0x35	; 53
    1de6:	d7 4f       	sbci	r29, 0xF7	; 247
    1de8:	81 e0       	ldi	r24, 0x01	; 1
    1dea:	88 83       	st	Y, r24
    1dec:	6a c3       	rjmp	.+1748   	; 0x24c2 <__stack+0x2c3>
    1dee:	84 e0       	ldi	r24, 0x04	; 4
    1df0:	fe 01       	movw	r30, r28
    1df2:	e5 53       	subi	r30, 0x35	; 53
    1df4:	f7 4f       	sbci	r31, 0xF7	; 247
    1df6:	80 83       	st	Z, r24
    1df8:	8d 2d       	mov	r24, r13
    1dfa:	bd dd       	rcall	.-1158   	; 0x1976 <CommErr>
    1dfc:	88 23       	and	r24, r24
    1dfe:	29 f0       	breq	.+10     	; 0x1e0a <MB_S_Timer_ISR+0x5a>
    1e00:	c5 53       	subi	r28, 0x35	; 53
    1e02:	d7 4f       	sbci	r29, 0xF7	; 247
    1e04:	81 e0       	ldi	r24, 0x01	; 1
    1e06:	88 83       	st	Y, r24
    1e08:	5c c3       	rjmp	.+1720   	; 0x24c2 <__stack+0x2c3>
    1e0a:	fc 2f       	mov	r31, r28
    1e0c:	ee 27       	eor	r30, r30
    1e0e:	e1 5f       	subi	r30, 0xF1	; 241
    1e10:	fc 4e       	sbci	r31, 0xEC	; 236
    1e12:	80 81       	ld	r24, Z
    1e14:	88 23       	and	r24, r24
    1e16:	59 f0       	breq	.+22     	; 0x1e2e <MB_S_Timer_ISR+0x7e>
    1e18:	fe 01       	movw	r30, r28
    1e1a:	e3 53       	subi	r30, 0x33	; 51
    1e1c:	f6 4f       	sbci	r31, 0xF6	; 246
    1e1e:	90 81       	ld	r25, Z
    1e20:	89 17       	cp	r24, r25
    1e22:	29 f0       	breq	.+10     	; 0x1e2e <MB_S_Timer_ISR+0x7e>
    1e24:	c5 53       	subi	r28, 0x35	; 53
    1e26:	d7 4f       	sbci	r29, 0xF7	; 247
    1e28:	81 e0       	ldi	r24, 0x01	; 1
    1e2a:	88 83       	st	Y, r24
    1e2c:	4a c3       	rjmp	.+1684   	; 0x24c2 <__stack+0x2c3>
    1e2e:	84 e1       	ldi	r24, 0x14	; 20
    1e30:	8c 9f       	mul	r24, r28
    1e32:	80 01       	movw	r16, r0
    1e34:	8d 9f       	mul	r24, r29
    1e36:	10 0d       	add	r17, r0
    1e38:	11 24       	eor	r1, r1
    1e3a:	0d 58       	subi	r16, 0x8D	; 141
    1e3c:	1c 4f       	sbci	r17, 0xFC	; 252
    1e3e:	f8 01       	movw	r30, r16
    1e40:	25 91       	lpm	r18, Z+
    1e42:	34 91       	lpm	r19, Z
    1e44:	f9 01       	movw	r30, r18
    1e46:	19 95       	eicall
    1e48:	fe 01       	movw	r30, r28
    1e4a:	e2 95       	swap	r30
    1e4c:	f2 95       	swap	r31
    1e4e:	f0 7f       	andi	r31, 0xF0	; 240
    1e50:	fe 27       	eor	r31, r30
    1e52:	e0 7f       	andi	r30, 0xF0	; 240
    1e54:	fe 27       	eor	r31, r30
    1e56:	e0 59       	subi	r30, 0x90	; 144
    1e58:	fd 4e       	sbci	r31, 0xED	; 237
    1e5a:	86 81       	ldd	r24, Z+6	; 0x06
    1e5c:	97 81       	ldd	r25, Z+7	; 0x07
    1e5e:	01 96       	adiw	r24, 0x01	; 1
    1e60:	97 83       	std	Z+7, r25	; 0x07
    1e62:	86 83       	std	Z+6, r24	; 0x06
    1e64:	62 e0       	ldi	r22, 0x02	; 2
    1e66:	8d 2d       	mov	r24, r13
    1e68:	11 de       	rcall	.-990    	; 0x1a8c <MB_FrameReg>
    1e6a:	7c 01       	movw	r14, r24
    1e6c:	fc 2f       	mov	r31, r28
    1e6e:	ee 27       	eor	r30, r30
    1e70:	e1 5f       	subi	r30, 0xF1	; 241
    1e72:	fc 4e       	sbci	r31, 0xEC	; 236
    1e74:	c1 80       	ldd	r12, Z+1	; 0x01
    1e76:	8c 2d       	mov	r24, r12
    1e78:	90 e0       	ldi	r25, 0x00	; 0
    1e7a:	fc 01       	movw	r30, r24
    1e7c:	31 97       	sbiw	r30, 0x01	; 1
    1e7e:	e0 31       	cpi	r30, 0x10	; 16
    1e80:	f1 05       	cpc	r31, r1
    1e82:	08 f0       	brcs	.+2      	; 0x1e86 <MB_S_Timer_ISR+0xd6>
    1e84:	c9 c2       	rjmp	.+1426   	; 0x2418 <__stack+0x219>
    1e86:	ea 59       	subi	r30, 0x9A	; 154
    1e88:	ff 4f       	sbci	r31, 0xFF	; 255
    1e8a:	0c 94 e0 30 	jmp	0x61c0	; 0x61c0 <__tablejump2__>
    1e8e:	fc 2f       	mov	r31, r28
    1e90:	ee 27       	eor	r30, r30
    1e92:	e1 5f       	subi	r30, 0xF1	; 241
    1e94:	fc 4e       	sbci	r31, 0xEC	; 236
    1e96:	80 81       	ld	r24, Z
    1e98:	88 23       	and	r24, r24
    1e9a:	09 f4       	brne	.+2      	; 0x1e9e <MB_S_Timer_ISR+0xee>
    1e9c:	c1 c0       	rjmp	.+386    	; 0x2020 <MB_S_Timer_ISR+0x270>
    1e9e:	fe 01       	movw	r30, r28
    1ea0:	e3 5c       	subi	r30, 0xC3	; 195
    1ea2:	f5 4f       	sbci	r31, 0xF5	; 245
    1ea4:	80 81       	ld	r24, Z
    1ea6:	88 30       	cpi	r24, 0x08	; 8
    1ea8:	59 f0       	breq	.+22     	; 0x1ec0 <MB_S_Timer_ISR+0x110>
    1eaa:	fc 2f       	mov	r31, r28
    1eac:	ee 27       	eor	r30, r30
    1eae:	e1 5f       	subi	r30, 0xF1	; 241
    1eb0:	fc 4e       	sbci	r31, 0xEC	; 236
    1eb2:	83 e0       	ldi	r24, 0x03	; 3
    1eb4:	82 83       	std	Z+2, r24	; 0x02
    1eb6:	0f 2e       	mov	r0, r31
    1eb8:	f3 e0       	ldi	r31, 0x03	; 3
    1eba:	ff 2e       	mov	r15, r31
    1ebc:	f0 2d       	mov	r31, r0
    1ebe:	b6 c2       	rjmp	.+1388   	; 0x242c <__stack+0x22d>
    1ec0:	64 e0       	ldi	r22, 0x04	; 4
    1ec2:	8d 2d       	mov	r24, r13
    1ec4:	e3 dd       	rcall	.-1082   	; 0x1a8c <MB_FrameReg>
    1ec6:	ac 01       	movw	r20, r24
    1ec8:	8e 0d       	add	r24, r14
    1eca:	9f 1d       	adc	r25, r15
    1ecc:	f1 e0       	ldi	r31, 0x01	; 1
    1ece:	cf 12       	cpse	r12, r31
    1ed0:	0f c0       	rjmp	.+30     	; 0x1ef0 <MB_S_Timer_ISR+0x140>
    1ed2:	fe 01       	movw	r30, r28
    1ed4:	e2 95       	swap	r30
    1ed6:	f2 95       	swap	r31
    1ed8:	f0 7f       	andi	r31, 0xF0	; 240
    1eda:	fe 27       	eor	r31, r30
    1edc:	e0 7f       	andi	r30, 0xF0	; 240
    1ede:	fe 27       	eor	r31, r30
    1ee0:	ea 56       	subi	r30, 0x6A	; 106
    1ee2:	fc 4f       	sbci	r31, 0xFC	; 252
    1ee4:	25 91       	lpm	r18, Z+
    1ee6:	34 91       	lpm	r19, Z
    1ee8:	28 17       	cp	r18, r24
    1eea:	39 07       	cpc	r19, r25
    1eec:	78 f0       	brcs	.+30     	; 0x1f0c <MB_S_Timer_ISR+0x15c>
    1eee:	18 c0       	rjmp	.+48     	; 0x1f20 <MB_S_Timer_ISR+0x170>
    1ef0:	fe 01       	movw	r30, r28
    1ef2:	e2 95       	swap	r30
    1ef4:	f2 95       	swap	r31
    1ef6:	f0 7f       	andi	r31, 0xF0	; 240
    1ef8:	fe 27       	eor	r31, r30
    1efa:	e0 7f       	andi	r30, 0xF0	; 240
    1efc:	fe 27       	eor	r31, r30
    1efe:	e6 56       	subi	r30, 0x66	; 102
    1f00:	fc 4f       	sbci	r31, 0xFC	; 252
    1f02:	25 91       	lpm	r18, Z+
    1f04:	34 91       	lpm	r19, Z
    1f06:	28 17       	cp	r18, r24
    1f08:	39 07       	cpc	r19, r25
    1f0a:	b0 f4       	brcc	.+44     	; 0x1f38 <MB_S_Timer_ISR+0x188>
    1f0c:	fc 2f       	mov	r31, r28
    1f0e:	ee 27       	eor	r30, r30
    1f10:	e1 5f       	subi	r30, 0xF1	; 241
    1f12:	fc 4e       	sbci	r31, 0xEC	; 236
    1f14:	82 e0       	ldi	r24, 0x02	; 2
    1f16:	82 83       	std	Z+2, r24	; 0x02
    1f18:	68 94       	set
    1f1a:	ff 24       	eor	r15, r15
    1f1c:	f1 f8       	bld	r15, 1
    1f1e:	86 c2       	rjmp	.+1292   	; 0x242c <__stack+0x22d>
    1f20:	fe 01       	movw	r30, r28
    1f22:	e2 95       	swap	r30
    1f24:	f2 95       	swap	r31
    1f26:	f0 7f       	andi	r31, 0xF0	; 240
    1f28:	fe 27       	eor	r31, r30
    1f2a:	e0 7f       	andi	r30, 0xF0	; 240
    1f2c:	fe 27       	eor	r31, r30
    1f2e:	ec 56       	subi	r30, 0x6C	; 108
    1f30:	fc 4f       	sbci	r31, 0xFC	; 252
    1f32:	a5 91       	lpm	r26, Z+
    1f34:	b4 91       	lpm	r27, Z
    1f36:	0b c0       	rjmp	.+22     	; 0x1f4e <MB_S_Timer_ISR+0x19e>
    1f38:	fe 01       	movw	r30, r28
    1f3a:	e2 95       	swap	r30
    1f3c:	f2 95       	swap	r31
    1f3e:	f0 7f       	andi	r31, 0xF0	; 240
    1f40:	fe 27       	eor	r31, r30
    1f42:	e0 7f       	andi	r30, 0xF0	; 240
    1f44:	fe 27       	eor	r31, r30
    1f46:	e8 56       	subi	r30, 0x68	; 104
    1f48:	fc 4f       	sbci	r31, 0xFC	; 252
    1f4a:	a5 91       	lpm	r26, Z+
    1f4c:	b4 91       	lpm	r27, Z
    1f4e:	21 e0       	ldi	r18, 0x01	; 1
    1f50:	ca 01       	movw	r24, r20
    1f52:	87 70       	andi	r24, 0x07	; 7
    1f54:	99 27       	eor	r25, r25
    1f56:	89 2b       	or	r24, r25
    1f58:	09 f4       	brne	.+2      	; 0x1f5c <MB_S_Timer_ISR+0x1ac>
    1f5a:	20 e0       	ldi	r18, 0x00	; 0
    1f5c:	ca 01       	movw	r24, r20
    1f5e:	96 95       	lsr	r25
    1f60:	87 95       	ror	r24
    1f62:	96 95       	lsr	r25
    1f64:	87 95       	ror	r24
    1f66:	96 95       	lsr	r25
    1f68:	87 95       	ror	r24
    1f6a:	82 0f       	add	r24, r18
    1f6c:	fc 2f       	mov	r31, r28
    1f6e:	ee 27       	eor	r30, r30
    1f70:	e1 5f       	subi	r30, 0xF1	; 241
    1f72:	fc 4e       	sbci	r31, 0xEC	; 236
    1f74:	82 83       	std	Z+2, r24	; 0x02
    1f76:	fe 01       	movw	r30, r28
    1f78:	e3 5c       	subi	r30, 0xC3	; 195
    1f7a:	f5 4f       	sbci	r31, 0xF5	; 245
    1f7c:	8b 5f       	subi	r24, 0xFB	; 251
    1f7e:	80 83       	st	Z, r24
    1f80:	41 15       	cp	r20, r1
    1f82:	51 05       	cpc	r21, r1
    1f84:	09 f4       	brne	.+2      	; 0x1f88 <MB_S_Timer_ISR+0x1d8>
    1f86:	4f c0       	rjmp	.+158    	; 0x2026 <MB_S_Timer_ISR+0x276>
    1f88:	c1 2c       	mov	r12, r1
    1f8a:	20 e0       	ldi	r18, 0x00	; 0
    1f8c:	30 e0       	ldi	r19, 0x00	; 0
    1f8e:	81 e0       	ldi	r24, 0x01	; 1
    1f90:	90 e0       	ldi	r25, 0x00	; 0
    1f92:	bc 2e       	mov	r11, r28
    1f94:	aa 24       	eor	r10, r10
    1f96:	2e 0d       	add	r18, r14
    1f98:	3f 1d       	adc	r19, r15
    1f9a:	6c 2d       	mov	r22, r12
    1f9c:	66 95       	lsr	r22
    1f9e:	66 95       	lsr	r22
    1fa0:	66 95       	lsr	r22
    1fa2:	0f 2e       	mov	r0, r31
    1fa4:	f3 e0       	ldi	r31, 0x03	; 3
    1fa6:	9f 2e       	mov	r9, r31
    1fa8:	f0 2d       	mov	r31, r0
    1faa:	96 0e       	add	r9, r22
    1fac:	ec 2d       	mov	r30, r12
    1fae:	e7 70       	andi	r30, 0x07	; 7
    1fb0:	3c 01       	movw	r6, r24
    1fb2:	02 c0       	rjmp	.+4      	; 0x1fb8 <MB_S_Timer_ISR+0x208>
    1fb4:	66 0c       	add	r6, r6
    1fb6:	77 1c       	adc	r7, r7
    1fb8:	ea 95       	dec	r30
    1fba:	e2 f7       	brpl	.-8      	; 0x1fb4 <MB_S_Timer_ISR+0x204>
    1fbc:	b9 01       	movw	r22, r18
    1fbe:	76 95       	lsr	r23
    1fc0:	67 95       	ror	r22
    1fc2:	76 95       	lsr	r23
    1fc4:	67 95       	ror	r22
    1fc6:	76 95       	lsr	r23
    1fc8:	67 95       	ror	r22
    1fca:	6a 0f       	add	r22, r26
    1fcc:	7b 1f       	adc	r23, r27
    1fce:	fb 01       	movw	r30, r22
    1fd0:	60 81       	ld	r22, Z
    1fd2:	70 e0       	ldi	r23, 0x00	; 0
    1fd4:	27 70       	andi	r18, 0x07	; 7
    1fd6:	33 27       	eor	r19, r19
    1fd8:	fb 01       	movw	r30, r22
    1fda:	02 c0       	rjmp	.+4      	; 0x1fe0 <MB_S_Timer_ISR+0x230>
    1fdc:	f5 95       	asr	r31
    1fde:	e7 95       	ror	r30
    1fe0:	2a 95       	dec	r18
    1fe2:	e2 f7       	brpl	.-8      	; 0x1fdc <MB_S_Timer_ISR+0x22c>
    1fe4:	e0 ff       	sbrs	r30, 0
    1fe6:	0a c0       	rjmp	.+20     	; 0x1ffc <MB_S_Timer_ISR+0x24c>
    1fe8:	95 01       	movw	r18, r10
    1fea:	29 0d       	add	r18, r9
    1fec:	31 1d       	adc	r19, r1
    1fee:	21 5f       	subi	r18, 0xF1	; 241
    1ff0:	3c 4e       	sbci	r19, 0xEC	; 236
    1ff2:	f9 01       	movw	r30, r18
    1ff4:	60 81       	ld	r22, Z
    1ff6:	66 29       	or	r22, r6
    1ff8:	60 83       	st	Z, r22
    1ffa:	0a c0       	rjmp	.+20     	; 0x2010 <MB_S_Timer_ISR+0x260>
    1ffc:	95 01       	movw	r18, r10
    1ffe:	29 0d       	add	r18, r9
    2000:	31 1d       	adc	r19, r1
    2002:	21 5f       	subi	r18, 0xF1	; 241
    2004:	3c 4e       	sbci	r19, 0xEC	; 236
    2006:	60 94       	com	r6
    2008:	f9 01       	movw	r30, r18
    200a:	60 81       	ld	r22, Z
    200c:	66 21       	and	r22, r6
    200e:	60 83       	st	Z, r22
    2010:	c3 94       	inc	r12
    2012:	2c 2d       	mov	r18, r12
    2014:	30 e0       	ldi	r19, 0x00	; 0
    2016:	24 17       	cp	r18, r20
    2018:	35 07       	cpc	r19, r21
    201a:	08 f4       	brcc	.+2      	; 0x201e <MB_S_Timer_ISR+0x26e>
    201c:	bc cf       	rjmp	.-136    	; 0x1f96 <MB_S_Timer_ISR+0x1e6>
    201e:	05 c0       	rjmp	.+10     	; 0x202a <MB_S_Timer_ISR+0x27a>
    2020:	ff 24       	eor	r15, r15
    2022:	fa 94       	dec	r15
    2024:	03 c2       	rjmp	.+1030   	; 0x242c <__stack+0x22d>
    2026:	f1 2c       	mov	r15, r1
    2028:	01 c2       	rjmp	.+1026   	; 0x242c <__stack+0x22d>
    202a:	f1 2c       	mov	r15, r1
    202c:	ff c1       	rjmp	.+1022   	; 0x242c <__stack+0x22d>
    202e:	fc 2f       	mov	r31, r28
    2030:	ee 27       	eor	r30, r30
    2032:	e1 5f       	subi	r30, 0xF1	; 241
    2034:	fc 4e       	sbci	r31, 0xEC	; 236
    2036:	80 81       	ld	r24, Z
    2038:	88 23       	and	r24, r24
    203a:	09 f4       	brne	.+2      	; 0x203e <MB_S_Timer_ISR+0x28e>
    203c:	85 c0       	rjmp	.+266    	; 0x2148 <MB_S_Timer_ISR+0x398>
    203e:	fe 01       	movw	r30, r28
    2040:	e3 5c       	subi	r30, 0xC3	; 195
    2042:	f5 4f       	sbci	r31, 0xF5	; 245
    2044:	80 81       	ld	r24, Z
    2046:	88 30       	cpi	r24, 0x08	; 8
    2048:	59 f0       	breq	.+22     	; 0x2060 <MB_S_Timer_ISR+0x2b0>
    204a:	fc 2f       	mov	r31, r28
    204c:	ee 27       	eor	r30, r30
    204e:	e1 5f       	subi	r30, 0xF1	; 241
    2050:	fc 4e       	sbci	r31, 0xEC	; 236
    2052:	83 e0       	ldi	r24, 0x03	; 3
    2054:	82 83       	std	Z+2, r24	; 0x02
    2056:	0f 2e       	mov	r0, r31
    2058:	f3 e0       	ldi	r31, 0x03	; 3
    205a:	ff 2e       	mov	r15, r31
    205c:	f0 2d       	mov	r31, r0
    205e:	e6 c1       	rjmp	.+972    	; 0x242c <__stack+0x22d>
    2060:	fc 2f       	mov	r31, r28
    2062:	ee 27       	eor	r30, r30
    2064:	e1 5f       	subi	r30, 0xF1	; 241
    2066:	fc 4e       	sbci	r31, 0xEC	; 236
    2068:	45 81       	ldd	r20, Z+5	; 0x05
    206a:	c7 01       	movw	r24, r14
    206c:	84 0f       	add	r24, r20
    206e:	91 1d       	adc	r25, r1
    2070:	f3 e0       	ldi	r31, 0x03	; 3
    2072:	cf 12       	cpse	r12, r31
    2074:	0f c0       	rjmp	.+30     	; 0x2094 <MB_S_Timer_ISR+0x2e4>
    2076:	fe 01       	movw	r30, r28
    2078:	e2 95       	swap	r30
    207a:	f2 95       	swap	r31
    207c:	f0 7f       	andi	r31, 0xF0	; 240
    207e:	fe 27       	eor	r31, r30
    2080:	e0 7f       	andi	r30, 0xF0	; 240
    2082:	fe 27       	eor	r31, r30
    2084:	e2 56       	subi	r30, 0x62	; 98
    2086:	fc 4f       	sbci	r31, 0xFC	; 252
    2088:	25 91       	lpm	r18, Z+
    208a:	34 91       	lpm	r19, Z
    208c:	28 17       	cp	r18, r24
    208e:	39 07       	cpc	r19, r25
    2090:	78 f0       	brcs	.+30     	; 0x20b0 <MB_S_Timer_ISR+0x300>
    2092:	18 c0       	rjmp	.+48     	; 0x20c4 <MB_S_Timer_ISR+0x314>
    2094:	fe 01       	movw	r30, r28
    2096:	e2 95       	swap	r30
    2098:	f2 95       	swap	r31
    209a:	f0 7f       	andi	r31, 0xF0	; 240
    209c:	fe 27       	eor	r31, r30
    209e:	e0 7f       	andi	r30, 0xF0	; 240
    20a0:	fe 27       	eor	r31, r30
    20a2:	ee 55       	subi	r30, 0x5E	; 94
    20a4:	fc 4f       	sbci	r31, 0xFC	; 252
    20a6:	25 91       	lpm	r18, Z+
    20a8:	34 91       	lpm	r19, Z
    20aa:	28 17       	cp	r18, r24
    20ac:	39 07       	cpc	r19, r25
    20ae:	b0 f4       	brcc	.+44     	; 0x20dc <MB_S_Timer_ISR+0x32c>
    20b0:	fc 2f       	mov	r31, r28
    20b2:	ee 27       	eor	r30, r30
    20b4:	e1 5f       	subi	r30, 0xF1	; 241
    20b6:	fc 4e       	sbci	r31, 0xEC	; 236
    20b8:	82 e0       	ldi	r24, 0x02	; 2
    20ba:	82 83       	std	Z+2, r24	; 0x02
    20bc:	68 94       	set
    20be:	ff 24       	eor	r15, r15
    20c0:	f1 f8       	bld	r15, 1
    20c2:	b4 c1       	rjmp	.+872    	; 0x242c <__stack+0x22d>
    20c4:	fe 01       	movw	r30, r28
    20c6:	e2 95       	swap	r30
    20c8:	f2 95       	swap	r31
    20ca:	f0 7f       	andi	r31, 0xF0	; 240
    20cc:	fe 27       	eor	r31, r30
    20ce:	e0 7f       	andi	r30, 0xF0	; 240
    20d0:	fe 27       	eor	r31, r30
    20d2:	e4 56       	subi	r30, 0x64	; 100
    20d4:	fc 4f       	sbci	r31, 0xFC	; 252
    20d6:	85 91       	lpm	r24, Z+
    20d8:	94 91       	lpm	r25, Z
    20da:	0b c0       	rjmp	.+22     	; 0x20f2 <MB_S_Timer_ISR+0x342>
    20dc:	fe 01       	movw	r30, r28
    20de:	e2 95       	swap	r30
    20e0:	f2 95       	swap	r31
    20e2:	f0 7f       	andi	r31, 0xF0	; 240
    20e4:	fe 27       	eor	r31, r30
    20e6:	e0 7f       	andi	r30, 0xF0	; 240
    20e8:	fe 27       	eor	r31, r30
    20ea:	e0 56       	subi	r30, 0x60	; 96
    20ec:	fc 4f       	sbci	r31, 0xFC	; 252
    20ee:	85 91       	lpm	r24, Z+
    20f0:	94 91       	lpm	r25, Z
    20f2:	ee 0c       	add	r14, r14
    20f4:	ff 1c       	adc	r15, r15
    20f6:	8e 0d       	add	r24, r14
    20f8:	9f 1d       	adc	r25, r15
    20fa:	44 0f       	add	r20, r20
    20fc:	bc 2f       	mov	r27, r28
    20fe:	aa 27       	eor	r26, r26
    2100:	a1 5f       	subi	r26, 0xF1	; 241
    2102:	bc 4e       	sbci	r27, 0xEC	; 236
    2104:	12 96       	adiw	r26, 0x02	; 2
    2106:	4c 93       	st	X, r20
    2108:	12 97       	sbiw	r26, 0x02	; 2
    210a:	fe 01       	movw	r30, r28
    210c:	e3 5c       	subi	r30, 0xC3	; 195
    210e:	f5 4f       	sbci	r31, 0xF5	; 245
    2110:	4b 5f       	subi	r20, 0xFB	; 251
    2112:	40 83       	st	Z, r20
    2114:	15 96       	adiw	r26, 0x05	; 5
    2116:	6c 91       	ld	r22, X
    2118:	15 97       	sbiw	r26, 0x05	; 5
    211a:	66 23       	and	r22, r22
    211c:	c1 f0       	breq	.+48     	; 0x214e <MB_S_Timer_ISR+0x39e>
    211e:	fc 01       	movw	r30, r24
    2120:	40 e0       	ldi	r20, 0x00	; 0
    2122:	9d 01       	movw	r18, r26
    2124:	54 2f       	mov	r21, r20
    2126:	55 0f       	add	r21, r21
    2128:	79 01       	movw	r14, r18
    212a:	e5 0e       	add	r14, r21
    212c:	f1 1c       	adc	r15, r1
    212e:	51 81       	ldd	r21, Z+1	; 0x01
    2130:	d7 01       	movw	r26, r14
    2132:	13 96       	adiw	r26, 0x03	; 3
    2134:	5c 93       	st	X, r21
    2136:	80 81       	ld	r24, Z
    2138:	32 96       	adiw	r30, 0x02	; 2
    213a:	d7 01       	movw	r26, r14
    213c:	14 96       	adiw	r26, 0x04	; 4
    213e:	8c 93       	st	X, r24
    2140:	4f 5f       	subi	r20, 0xFF	; 255
    2142:	46 13       	cpse	r20, r22
    2144:	ef cf       	rjmp	.-34     	; 0x2124 <MB_S_Timer_ISR+0x374>
    2146:	05 c0       	rjmp	.+10     	; 0x2152 <MB_S_Timer_ISR+0x3a2>
    2148:	ff 24       	eor	r15, r15
    214a:	fa 94       	dec	r15
    214c:	6f c1       	rjmp	.+734    	; 0x242c <__stack+0x22d>
    214e:	f1 2c       	mov	r15, r1
    2150:	6d c1       	rjmp	.+730    	; 0x242c <__stack+0x22d>
    2152:	f1 2c       	mov	r15, r1
    2154:	6b c1       	rjmp	.+726    	; 0x242c <__stack+0x22d>
    2156:	fe 01       	movw	r30, r28
    2158:	e3 5c       	subi	r30, 0xC3	; 195
    215a:	f5 4f       	sbci	r31, 0xF5	; 245
    215c:	80 81       	ld	r24, Z
    215e:	88 30       	cpi	r24, 0x08	; 8
    2160:	59 f0       	breq	.+22     	; 0x2178 <MB_S_Timer_ISR+0x3c8>
    2162:	fc 2f       	mov	r31, r28
    2164:	ee 27       	eor	r30, r30
    2166:	e1 5f       	subi	r30, 0xF1	; 241
    2168:	fc 4e       	sbci	r31, 0xEC	; 236
    216a:	83 e0       	ldi	r24, 0x03	; 3
    216c:	82 83       	std	Z+2, r24	; 0x02
    216e:	0f 2e       	mov	r0, r31
    2170:	f3 e0       	ldi	r31, 0x03	; 3
    2172:	ff 2e       	mov	r15, r31
    2174:	f0 2d       	mov	r31, r0
    2176:	5a c1       	rjmp	.+692    	; 0x242c <__stack+0x22d>
    2178:	fe 01       	movw	r30, r28
    217a:	e2 95       	swap	r30
    217c:	f2 95       	swap	r31
    217e:	f0 7f       	andi	r31, 0xF0	; 240
    2180:	fe 27       	eor	r31, r30
    2182:	e0 7f       	andi	r30, 0xF0	; 240
    2184:	fe 27       	eor	r31, r30
    2186:	e2 56       	subi	r30, 0x62	; 98
    2188:	fc 4f       	sbci	r31, 0xFC	; 252
    218a:	85 91       	lpm	r24, Z+
    218c:	94 91       	lpm	r25, Z
    218e:	97 01       	movw	r18, r14
    2190:	2f 5f       	subi	r18, 0xFF	; 255
    2192:	3f 4f       	sbci	r19, 0xFF	; 255
    2194:	82 17       	cp	r24, r18
    2196:	93 07       	cpc	r25, r19
    2198:	50 f4       	brcc	.+20     	; 0x21ae <MB_S_Timer_ISR+0x3fe>
    219a:	fc 2f       	mov	r31, r28
    219c:	ee 27       	eor	r30, r30
    219e:	e1 5f       	subi	r30, 0xF1	; 241
    21a0:	fc 4e       	sbci	r31, 0xEC	; 236
    21a2:	82 e0       	ldi	r24, 0x02	; 2
    21a4:	82 83       	std	Z+2, r24	; 0x02
    21a6:	68 94       	set
    21a8:	ff 24       	eor	r15, r15
    21aa:	f1 f8       	bld	r15, 1
    21ac:	3f c1       	rjmp	.+638    	; 0x242c <__stack+0x22d>
    21ae:	88 e0       	ldi	r24, 0x08	; 8
    21b0:	fe 01       	movw	r30, r28
    21b2:	e3 5c       	subi	r30, 0xC3	; 195
    21b4:	f5 4f       	sbci	r31, 0xF5	; 245
    21b6:	80 83       	st	Z, r24
    21b8:	fe 01       	movw	r30, r28
    21ba:	e2 95       	swap	r30
    21bc:	f2 95       	swap	r31
    21be:	f0 7f       	andi	r31, 0xF0	; 240
    21c0:	fe 27       	eor	r31, r30
    21c2:	e0 7f       	andi	r30, 0xF0	; 240
    21c4:	fe 27       	eor	r31, r30
    21c6:	e4 56       	subi	r30, 0x64	; 100
    21c8:	fc 4f       	sbci	r31, 0xFC	; 252
    21ca:	85 91       	lpm	r24, Z+
    21cc:	94 91       	lpm	r25, Z
    21ce:	ee 0c       	add	r14, r14
    21d0:	ff 1c       	adc	r15, r15
    21d2:	e8 0e       	add	r14, r24
    21d4:	f9 1e       	adc	r15, r25
    21d6:	64 e0       	ldi	r22, 0x04	; 4
    21d8:	8d 2d       	mov	r24, r13
    21da:	58 dc       	rcall	.-1872   	; 0x1a8c <MB_FrameReg>
    21dc:	f7 01       	movw	r30, r14
    21de:	91 83       	std	Z+1, r25	; 0x01
    21e0:	80 83       	st	Z, r24
    21e2:	f1 2c       	mov	r15, r1
    21e4:	23 c1       	rjmp	.+582    	; 0x242c <__stack+0x22d>
    21e6:	64 e0       	ldi	r22, 0x04	; 4
    21e8:	8d 2d       	mov	r24, r13
    21ea:	50 dc       	rcall	.-1888   	; 0x1a8c <MB_FrameReg>
    21ec:	fc 2f       	mov	r31, r28
    21ee:	ee 27       	eor	r30, r30
    21f0:	e1 5f       	subi	r30, 0xF1	; 241
    21f2:	fc 4e       	sbci	r31, 0xEC	; 236
    21f4:	a6 81       	ldd	r26, Z+6	; 0x06
    21f6:	fe 01       	movw	r30, r28
    21f8:	e3 5c       	subi	r30, 0xC3	; 195
    21fa:	f5 4f       	sbci	r31, 0xF5	; 245
    21fc:	40 81       	ld	r20, Z
    21fe:	50 e0       	ldi	r21, 0x00	; 0
    2200:	2a 2f       	mov	r18, r26
    2202:	30 e0       	ldi	r19, 0x00	; 0
    2204:	27 5f       	subi	r18, 0xF7	; 247
    2206:	3f 4f       	sbci	r19, 0xFF	; 255
    2208:	42 17       	cp	r20, r18
    220a:	53 07       	cpc	r21, r19
    220c:	b9 f4       	brne	.+46     	; 0x223c <__stack+0x3d>
    220e:	21 e0       	ldi	r18, 0x01	; 1
    2210:	30 e0       	ldi	r19, 0x00	; 0
    2212:	bc 01       	movw	r22, r24
    2214:	67 70       	andi	r22, 0x07	; 7
    2216:	77 27       	eor	r23, r23
    2218:	67 2b       	or	r22, r23
    221a:	11 f4       	brne	.+4      	; 0x2220 <__stack+0x21>
    221c:	20 e0       	ldi	r18, 0x00	; 0
    221e:	30 e0       	ldi	r19, 0x00	; 0
    2220:	bc 01       	movw	r22, r24
    2222:	76 95       	lsr	r23
    2224:	67 95       	ror	r22
    2226:	76 95       	lsr	r23
    2228:	67 95       	ror	r22
    222a:	76 95       	lsr	r23
    222c:	67 95       	ror	r22
    222e:	26 0f       	add	r18, r22
    2230:	37 1f       	adc	r19, r23
    2232:	4a 2f       	mov	r20, r26
    2234:	50 e0       	ldi	r21, 0x00	; 0
    2236:	24 17       	cp	r18, r20
    2238:	35 07       	cpc	r19, r21
    223a:	59 f0       	breq	.+22     	; 0x2252 <__stack+0x53>
    223c:	fc 2f       	mov	r31, r28
    223e:	ee 27       	eor	r30, r30
    2240:	e1 5f       	subi	r30, 0xF1	; 241
    2242:	fc 4e       	sbci	r31, 0xEC	; 236
    2244:	83 e0       	ldi	r24, 0x03	; 3
    2246:	82 83       	std	Z+2, r24	; 0x02
    2248:	0f 2e       	mov	r0, r31
    224a:	f3 e0       	ldi	r31, 0x03	; 3
    224c:	ff 2e       	mov	r15, r31
    224e:	f0 2d       	mov	r31, r0
    2250:	ed c0       	rjmp	.+474    	; 0x242c <__stack+0x22d>
    2252:	fe 01       	movw	r30, r28
    2254:	e2 95       	swap	r30
    2256:	f2 95       	swap	r31
    2258:	f0 7f       	andi	r31, 0xF0	; 240
    225a:	fe 27       	eor	r31, r30
    225c:	e0 7f       	andi	r30, 0xF0	; 240
    225e:	fe 27       	eor	r31, r30
    2260:	ea 56       	subi	r30, 0x6A	; 106
    2262:	fc 4f       	sbci	r31, 0xFC	; 252
    2264:	25 91       	lpm	r18, Z+
    2266:	34 91       	lpm	r19, Z
    2268:	ac 01       	movw	r20, r24
    226a:	4e 0d       	add	r20, r14
    226c:	5f 1d       	adc	r21, r15
    226e:	24 17       	cp	r18, r20
    2270:	35 07       	cpc	r19, r21
    2272:	50 f4       	brcc	.+20     	; 0x2288 <__stack+0x89>
    2274:	fc 2f       	mov	r31, r28
    2276:	ee 27       	eor	r30, r30
    2278:	e1 5f       	subi	r30, 0xF1	; 241
    227a:	fc 4e       	sbci	r31, 0xEC	; 236
    227c:	82 e0       	ldi	r24, 0x02	; 2
    227e:	82 83       	std	Z+2, r24	; 0x02
    2280:	68 94       	set
    2282:	ff 24       	eor	r15, r15
    2284:	f1 f8       	bld	r15, 1
    2286:	d2 c0       	rjmp	.+420    	; 0x242c <__stack+0x22d>
    2288:	fe 01       	movw	r30, r28
    228a:	e2 95       	swap	r30
    228c:	f2 95       	swap	r31
    228e:	f0 7f       	andi	r31, 0xF0	; 240
    2290:	fe 27       	eor	r31, r30
    2292:	e0 7f       	andi	r30, 0xF0	; 240
    2294:	fe 27       	eor	r31, r30
    2296:	ec 56       	subi	r30, 0x6C	; 108
    2298:	fc 4f       	sbci	r31, 0xFC	; 252
    229a:	25 91       	lpm	r18, Z+
    229c:	34 91       	lpm	r19, Z
    229e:	48 e0       	ldi	r20, 0x08	; 8
    22a0:	fe 01       	movw	r30, r28
    22a2:	e3 5c       	subi	r30, 0xC3	; 195
    22a4:	f5 4f       	sbci	r31, 0xF5	; 245
    22a6:	40 83       	st	Z, r20
    22a8:	c1 2c       	mov	r12, r1
    22aa:	e1 e0       	ldi	r30, 0x01	; 1
    22ac:	f0 e0       	ldi	r31, 0x00	; 0
    22ae:	7c 2f       	mov	r23, r28
    22b0:	66 27       	eor	r22, r22
    22b2:	ab 01       	movw	r20, r22
    22b4:	41 5f       	subi	r20, 0xF1	; 241
    22b6:	5c 4e       	sbci	r21, 0xEC	; 236
    22b8:	3a 01       	movw	r6, r20
    22ba:	36 c0       	rjmp	.+108    	; 0x2328 <__stack+0x129>
    22bc:	da 01       	movw	r26, r20
    22be:	ae 0d       	add	r26, r14
    22c0:	bf 1d       	adc	r27, r15
    22c2:	ad 01       	movw	r20, r26
    22c4:	56 95       	lsr	r21
    22c6:	47 95       	ror	r20
    22c8:	56 95       	lsr	r21
    22ca:	47 95       	ror	r20
    22cc:	56 95       	lsr	r21
    22ce:	47 95       	ror	r20
    22d0:	a7 70       	andi	r26, 0x07	; 7
    22d2:	bb 27       	eor	r27, r27
    22d4:	5f 01       	movw	r10, r30
    22d6:	02 c0       	rjmp	.+4      	; 0x22dc <__stack+0xdd>
    22d8:	aa 0c       	add	r10, r10
    22da:	bb 1c       	adc	r11, r11
    22dc:	aa 95       	dec	r26
    22de:	e2 f7       	brpl	.-8      	; 0x22d8 <__stack+0xd9>
    22e0:	ac 2d       	mov	r26, r12
    22e2:	a6 95       	lsr	r26
    22e4:	a6 95       	lsr	r26
    22e6:	a6 95       	lsr	r26
    22e8:	b3 01       	movw	r22, r6
    22ea:	6a 0f       	add	r22, r26
    22ec:	71 1d       	adc	r23, r1
    22ee:	db 01       	movw	r26, r22
    22f0:	17 96       	adiw	r26, 0x07	; 7
    22f2:	ac 91       	ld	r26, X
    22f4:	b0 e0       	ldi	r27, 0x00	; 0
    22f6:	7c 2d       	mov	r23, r12
    22f8:	77 70       	andi	r23, 0x07	; 7
    22fa:	07 2e       	mov	r0, r23
    22fc:	02 c0       	rjmp	.+4      	; 0x2302 <__stack+0x103>
    22fe:	b5 95       	asr	r27
    2300:	a7 95       	ror	r26
    2302:	0a 94       	dec	r0
    2304:	e2 f7       	brpl	.-8      	; 0x22fe <__stack+0xff>
    2306:	a0 ff       	sbrs	r26, 0
    2308:	07 c0       	rjmp	.+14     	; 0x2318 <__stack+0x119>
    230a:	d9 01       	movw	r26, r18
    230c:	a4 0f       	add	r26, r20
    230e:	b5 1f       	adc	r27, r21
    2310:	4c 91       	ld	r20, X
    2312:	a4 2a       	or	r10, r20
    2314:	ac 92       	st	X, r10
    2316:	07 c0       	rjmp	.+14     	; 0x2326 <__stack+0x127>
    2318:	d9 01       	movw	r26, r18
    231a:	a4 0f       	add	r26, r20
    231c:	b5 1f       	adc	r27, r21
    231e:	a0 94       	com	r10
    2320:	4c 91       	ld	r20, X
    2322:	4a 21       	and	r20, r10
    2324:	4c 93       	st	X, r20
    2326:	c3 94       	inc	r12
    2328:	4c 2d       	mov	r20, r12
    232a:	50 e0       	ldi	r21, 0x00	; 0
    232c:	48 17       	cp	r20, r24
    232e:	59 07       	cpc	r21, r25
    2330:	28 f2       	brcs	.-118    	; 0x22bc <__stack+0xbd>
    2332:	f1 2c       	mov	r15, r1
    2334:	7b c0       	rjmp	.+246    	; 0x242c <__stack+0x22d>
    2336:	fc 2f       	mov	r31, r28
    2338:	ee 27       	eor	r30, r30
    233a:	e1 5f       	subi	r30, 0xF1	; 241
    233c:	fc 4e       	sbci	r31, 0xEC	; 236
    233e:	86 81       	ldd	r24, Z+6	; 0x06
    2340:	90 e0       	ldi	r25, 0x00	; 0
    2342:	fe 01       	movw	r30, r28
    2344:	e3 5c       	subi	r30, 0xC3	; 195
    2346:	f5 4f       	sbci	r31, 0xF5	; 245
    2348:	40 81       	ld	r20, Z
    234a:	50 e0       	ldi	r21, 0x00	; 0
    234c:	9c 01       	movw	r18, r24
    234e:	27 5f       	subi	r18, 0xF7	; 247
    2350:	3f 4f       	sbci	r19, 0xFF	; 255
    2352:	42 17       	cp	r20, r18
    2354:	53 07       	cpc	r21, r19
    2356:	61 f4       	brne	.+24     	; 0x2370 <__stack+0x171>
    2358:	fc 2f       	mov	r31, r28
    235a:	ee 27       	eor	r30, r30
    235c:	e1 5f       	subi	r30, 0xF1	; 241
    235e:	fc 4e       	sbci	r31, 0xEC	; 236
    2360:	45 81       	ldd	r20, Z+5	; 0x05
    2362:	24 2f       	mov	r18, r20
    2364:	30 e0       	ldi	r19, 0x00	; 0
    2366:	22 0f       	add	r18, r18
    2368:	33 1f       	adc	r19, r19
    236a:	82 17       	cp	r24, r18
    236c:	93 07       	cpc	r25, r19
    236e:	59 f0       	breq	.+22     	; 0x2386 <__stack+0x187>
    2370:	fc 2f       	mov	r31, r28
    2372:	ee 27       	eor	r30, r30
    2374:	e1 5f       	subi	r30, 0xF1	; 241
    2376:	fc 4e       	sbci	r31, 0xEC	; 236
    2378:	83 e0       	ldi	r24, 0x03	; 3
    237a:	82 83       	std	Z+2, r24	; 0x02
    237c:	0f 2e       	mov	r0, r31
    237e:	f3 e0       	ldi	r31, 0x03	; 3
    2380:	ff 2e       	mov	r15, r31
    2382:	f0 2d       	mov	r31, r0
    2384:	53 c0       	rjmp	.+166    	; 0x242c <__stack+0x22d>
    2386:	fe 01       	movw	r30, r28
    2388:	e2 95       	swap	r30
    238a:	f2 95       	swap	r31
    238c:	f0 7f       	andi	r31, 0xF0	; 240
    238e:	fe 27       	eor	r31, r30
    2390:	e0 7f       	andi	r30, 0xF0	; 240
    2392:	fe 27       	eor	r31, r30
    2394:	e2 56       	subi	r30, 0x62	; 98
    2396:	fc 4f       	sbci	r31, 0xFC	; 252
    2398:	85 91       	lpm	r24, Z+
    239a:	94 91       	lpm	r25, Z
    239c:	97 01       	movw	r18, r14
    239e:	24 0f       	add	r18, r20
    23a0:	31 1d       	adc	r19, r1
    23a2:	82 17       	cp	r24, r18
    23a4:	93 07       	cpc	r25, r19
    23a6:	50 f4       	brcc	.+20     	; 0x23bc <__stack+0x1bd>
    23a8:	fc 2f       	mov	r31, r28
    23aa:	ee 27       	eor	r30, r30
    23ac:	e1 5f       	subi	r30, 0xF1	; 241
    23ae:	fc 4e       	sbci	r31, 0xEC	; 236
    23b0:	82 e0       	ldi	r24, 0x02	; 2
    23b2:	82 83       	std	Z+2, r24	; 0x02
    23b4:	68 94       	set
    23b6:	ff 24       	eor	r15, r15
    23b8:	f1 f8       	bld	r15, 1
    23ba:	38 c0       	rjmp	.+112    	; 0x242c <__stack+0x22d>
    23bc:	88 e0       	ldi	r24, 0x08	; 8
    23be:	fe 01       	movw	r30, r28
    23c0:	e3 5c       	subi	r30, 0xC3	; 195
    23c2:	f5 4f       	sbci	r31, 0xF5	; 245
    23c4:	80 83       	st	Z, r24
    23c6:	fe 01       	movw	r30, r28
    23c8:	e2 95       	swap	r30
    23ca:	f2 95       	swap	r31
    23cc:	f0 7f       	andi	r31, 0xF0	; 240
    23ce:	fe 27       	eor	r31, r30
    23d0:	e0 7f       	andi	r30, 0xF0	; 240
    23d2:	fe 27       	eor	r31, r30
    23d4:	e4 56       	subi	r30, 0x64	; 100
    23d6:	fc 4f       	sbci	r31, 0xFC	; 252
    23d8:	85 90       	lpm	r8, Z+
    23da:	94 90       	lpm	r9, Z
    23dc:	c1 2c       	mov	r12, r1
    23de:	9c 2f       	mov	r25, r28
    23e0:	88 27       	eor	r24, r24
    23e2:	dc 01       	movw	r26, r24
    23e4:	ac 5e       	subi	r26, 0xEC	; 236
    23e6:	bc 4e       	sbci	r27, 0xEC	; 236
    23e8:	3d 01       	movw	r6, r26
    23ea:	10 c0       	rjmp	.+32     	; 0x240c <__stack+0x20d>
    23ec:	57 01       	movw	r10, r14
    23ee:	ac 0c       	add	r10, r12
    23f0:	b1 1c       	adc	r11, r1
    23f2:	aa 0c       	add	r10, r10
    23f4:	bb 1c       	adc	r11, r11
    23f6:	a8 0c       	add	r10, r8
    23f8:	b9 1c       	adc	r11, r9
    23fa:	6c 2d       	mov	r22, r12
    23fc:	66 0f       	add	r22, r22
    23fe:	69 5f       	subi	r22, 0xF9	; 249
    2400:	8d 2d       	mov	r24, r13
    2402:	44 db       	rcall	.-2424   	; 0x1a8c <MB_FrameReg>
    2404:	f5 01       	movw	r30, r10
    2406:	91 83       	std	Z+1, r25	; 0x01
    2408:	80 83       	st	Z, r24
    240a:	c3 94       	inc	r12
    240c:	d3 01       	movw	r26, r6
    240e:	8c 91       	ld	r24, X
    2410:	c8 16       	cp	r12, r24
    2412:	60 f3       	brcs	.-40     	; 0x23ec <__stack+0x1ed>
    2414:	f1 2c       	mov	r15, r1
    2416:	0a c0       	rjmp	.+20     	; 0x242c <__stack+0x22d>
    2418:	fc 2f       	mov	r31, r28
    241a:	ee 27       	eor	r30, r30
    241c:	e1 5f       	subi	r30, 0xF1	; 241
    241e:	fc 4e       	sbci	r31, 0xEC	; 236
    2420:	81 e0       	ldi	r24, 0x01	; 1
    2422:	82 83       	std	Z+2, r24	; 0x02
    2424:	80 81       	ld	r24, Z
    2426:	81 11       	cpse	r24, r1
    2428:	0b c0       	rjmp	.+22     	; 0x2440 <__stack+0x241>
    242a:	1c c0       	rjmp	.+56     	; 0x2464 <__stack+0x265>
    242c:	fc 2f       	mov	r31, r28
    242e:	ee 27       	eor	r30, r30
    2430:	e1 5f       	subi	r30, 0xF1	; 241
    2432:	fc 4e       	sbci	r31, 0xEC	; 236
    2434:	80 81       	ld	r24, Z
    2436:	88 23       	and	r24, r24
    2438:	99 f0       	breq	.+38     	; 0x2460 <__stack+0x261>
    243a:	ff 20       	and	r15, r15
    243c:	79 f0       	breq	.+30     	; 0x245c <__stack+0x25d>
    243e:	02 c0       	rjmp	.+4      	; 0x2444 <__stack+0x245>
    2440:	ff 24       	eor	r15, r15
    2442:	f3 94       	inc	r15
    2444:	fc 2f       	mov	r31, r28
    2446:	ee 27       	eor	r30, r30
    2448:	e1 5f       	subi	r30, 0xF1	; 241
    244a:	fc 4e       	sbci	r31, 0xEC	; 236
    244c:	81 81       	ldd	r24, Z+1	; 0x01
    244e:	80 68       	ori	r24, 0x80	; 128
    2450:	81 83       	std	Z+1, r24	; 0x01
    2452:	85 e0       	ldi	r24, 0x05	; 5
    2454:	fe 01       	movw	r30, r28
    2456:	e3 5c       	subi	r30, 0xC3	; 195
    2458:	f5 4f       	sbci	r31, 0xF5	; 245
    245a:	80 83       	st	Z, r24
    245c:	8d 2d       	mov	r24, r13
    245e:	fb da       	rcall	.-2570   	; 0x1a56 <SetCRC_MB>
    2460:	ff 20       	and	r15, r15
    2462:	71 f0       	breq	.+28     	; 0x2480 <__stack+0x281>
    2464:	fe 01       	movw	r30, r28
    2466:	e2 95       	swap	r30
    2468:	f2 95       	swap	r31
    246a:	f0 7f       	andi	r31, 0xF0	; 240
    246c:	fe 27       	eor	r31, r30
    246e:	e0 7f       	andi	r30, 0xF0	; 240
    2470:	fe 27       	eor	r31, r30
    2472:	e0 59       	subi	r30, 0x90	; 144
    2474:	fd 4e       	sbci	r31, 0xED	; 237
    2476:	84 81       	ldd	r24, Z+4	; 0x04
    2478:	95 81       	ldd	r25, Z+5	; 0x05
    247a:	01 96       	adiw	r24, 0x01	; 1
    247c:	95 83       	std	Z+5, r25	; 0x05
    247e:	84 83       	std	Z+4, r24	; 0x04
    2480:	fc 2f       	mov	r31, r28
    2482:	ee 27       	eor	r30, r30
    2484:	e1 5f       	subi	r30, 0xF1	; 241
    2486:	fc 4e       	sbci	r31, 0xEC	; 236
    2488:	80 81       	ld	r24, Z
    248a:	88 23       	and	r24, r24
    248c:	19 f0       	breq	.+6      	; 0x2494 <__stack+0x295>
    248e:	8d 2d       	mov	r24, r13
    2490:	ac d9       	rcall	.-3240   	; 0x17ea <MB_Transm>
    2492:	17 c0       	rjmp	.+46     	; 0x24c2 <__stack+0x2c3>
    2494:	fe 01       	movw	r30, r28
    2496:	e2 95       	swap	r30
    2498:	f2 95       	swap	r31
    249a:	f0 7f       	andi	r31, 0xF0	; 240
    249c:	fe 27       	eor	r31, r30
    249e:	e0 7f       	andi	r30, 0xF0	; 240
    24a0:	fe 27       	eor	r31, r30
    24a2:	e0 59       	subi	r30, 0x90	; 144
    24a4:	fd 4e       	sbci	r31, 0xED	; 237
    24a6:	80 85       	ldd	r24, Z+8	; 0x08
    24a8:	91 85       	ldd	r25, Z+9	; 0x09
    24aa:	01 96       	adiw	r24, 0x01	; 1
    24ac:	91 87       	std	Z+9, r25	; 0x09
    24ae:	80 87       	std	Z+8, r24	; 0x08
    24b0:	c5 53       	subi	r28, 0x35	; 53
    24b2:	d7 4f       	sbci	r29, 0xF7	; 247
    24b4:	81 e0       	ldi	r24, 0x01	; 1
    24b6:	88 83       	st	Y, r24
    24b8:	f8 01       	movw	r30, r16
    24ba:	85 91       	lpm	r24, Z+
    24bc:	94 91       	lpm	r25, Z
    24be:	fc 01       	movw	r30, r24
    24c0:	19 95       	eicall
    24c2:	df 91       	pop	r29
    24c4:	cf 91       	pop	r28
    24c6:	1f 91       	pop	r17
    24c8:	0f 91       	pop	r16
    24ca:	ff 90       	pop	r15
    24cc:	ef 90       	pop	r14
    24ce:	df 90       	pop	r13
    24d0:	cf 90       	pop	r12
    24d2:	bf 90       	pop	r11
    24d4:	af 90       	pop	r10
    24d6:	9f 90       	pop	r9
    24d8:	8f 90       	pop	r8
    24da:	7f 90       	pop	r7
    24dc:	6f 90       	pop	r6
    24de:	08 95       	ret

000024e0 <MB_S_Tx>:
    24e0:	24 e1       	ldi	r18, 0x14	; 20
    24e2:	82 9f       	mul	r24, r18
    24e4:	c0 01       	movw	r24, r0
    24e6:	11 24       	eor	r1, r1
    24e8:	fc 01       	movw	r30, r24
    24ea:	ed 58       	subi	r30, 0x8D	; 141
    24ec:	fc 4f       	sbci	r31, 0xFC	; 252
    24ee:	85 91       	lpm	r24, Z+
    24f0:	94 91       	lpm	r25, Z
    24f2:	fc 01       	movw	r30, r24
    24f4:	19 95       	eicall
    24f6:	08 95       	ret

000024f8 <MB_S_Init>:
    24f8:	cf 93       	push	r28
    24fa:	df 93       	push	r29
    24fc:	c8 2f       	mov	r28, r24
    24fe:	d0 e0       	ldi	r29, 0x00	; 0
    2500:	ce 01       	movw	r24, r28
    2502:	88 5f       	subi	r24, 0xF8	; 248
    2504:	9f 4f       	sbci	r25, 0xFF	; 255
    2506:	0e 94 5d 34 	call	0x68ba	; 0x68ba <__eerd_byte_m2561>
    250a:	c3 53       	subi	r28, 0x33	; 51
    250c:	d6 4f       	sbci	r29, 0xF6	; 246
    250e:	88 83       	st	Y, r24
    2510:	df 91       	pop	r29
    2512:	cf 91       	pop	r28
    2514:	08 95       	ret

00002516 <MB_M_Init>:
    2516:	0f 93       	push	r16
    2518:	1f 93       	push	r17
    251a:	cf 93       	push	r28
    251c:	df 93       	push	r29
    251e:	c8 2f       	mov	r28, r24
    2520:	d0 e0       	ldi	r29, 0x00	; 0
    2522:	8e 01       	movw	r16, r28
    2524:	00 0f       	add	r16, r16
    2526:	11 1f       	adc	r17, r17
    2528:	00 0f       	add	r16, r16
    252a:	11 1f       	adc	r17, r17
    252c:	0c 0f       	add	r16, r28
    252e:	1d 1f       	adc	r17, r29
    2530:	c8 01       	movw	r24, r16
    2532:	80 50       	subi	r24, 0x00	; 0
    2534:	90 40       	sbci	r25, 0x00	; 0
    2536:	0e 94 65 34 	call	0x68ca	; 0x68ca <__eerd_word_m2561>
    253a:	fe 01       	movw	r30, r28
    253c:	ee 0f       	add	r30, r30
    253e:	ff 1f       	adc	r31, r31
    2540:	e0 51       	subi	r30, 0x10	; 16
    2542:	f6 4f       	sbci	r31, 0xF6	; 246
    2544:	91 83       	std	Z+1, r25	; 0x01
    2546:	80 83       	st	Z, r24
    2548:	c8 01       	movw	r24, r16
    254a:	8e 5f       	subi	r24, 0xFE	; 254
    254c:	9f 4f       	sbci	r25, 0xFF	; 255
    254e:	0e 94 5d 34 	call	0x68ba	; 0x68ba <__eerd_byte_m2561>
    2552:	fe 01       	movw	r30, r28
    2554:	e2 5a       	subi	r30, 0xA2	; 162
    2556:	fd 4e       	sbci	r31, 0xED	; 237
    2558:	80 83       	st	Z, r24
    255a:	c8 01       	movw	r24, r16
    255c:	8d 5f       	subi	r24, 0xFD	; 253
    255e:	9f 4f       	sbci	r25, 0xFF	; 255
    2560:	0e 94 5d 34 	call	0x68ba	; 0x68ba <__eerd_byte_m2561>
    2564:	fe 01       	movw	r30, r28
    2566:	e8 5c       	subi	r30, 0xC8	; 200
    2568:	f5 4f       	sbci	r31, 0xF5	; 245
    256a:	80 83       	st	Z, r24
    256c:	c8 01       	movw	r24, r16
    256e:	8c 5f       	subi	r24, 0xFC	; 252
    2570:	9f 4f       	sbci	r25, 0xFF	; 255
    2572:	0e 94 5d 34 	call	0x68ba	; 0x68ba <__eerd_byte_m2561>
    2576:	c3 54       	subi	r28, 0x43	; 67
    2578:	d6 4f       	sbci	r29, 0xF6	; 246
    257a:	88 83       	st	Y, r24
    257c:	80 91 6b 03 	lds	r24, 0x036B
    2580:	93 e0       	ldi	r25, 0x03	; 3
    2582:	98 0f       	add	r25, r24
    2584:	90 93 6b 03 	sts	0x036B, r25
    2588:	80 93 d5 06 	sts	0x06D5, r24
    258c:	df 91       	pop	r29
    258e:	cf 91       	pop	r28
    2590:	1f 91       	pop	r17
    2592:	0f 91       	pop	r16
    2594:	08 95       	ret

00002596 <MB_Init>:
    2596:	07 d8       	rcall	.-4082   	; 0x15a6 <MB_PLC_Init>
    2598:	10 92 cb 08 	sts	0x08CB, r1
    259c:	e7 e6       	ldi	r30, 0x67	; 103
    259e:	f3 e0       	ldi	r31, 0x03	; 3
    25a0:	a5 91       	lpm	r26, Z+
    25a2:	b4 91       	lpm	r27, Z
    25a4:	8c ef       	ldi	r24, 0xFC	; 252
    25a6:	8c 93       	st	X, r24
    25a8:	e9 e6       	ldi	r30, 0x69	; 105
    25aa:	f3 e0       	ldi	r31, 0x03	; 3
    25ac:	a5 91       	lpm	r26, Z+
    25ae:	b4 91       	lpm	r27, Z
    25b0:	88 e9       	ldi	r24, 0x98	; 152
    25b2:	8c 93       	st	X, r24
    25b4:	80 e0       	ldi	r24, 0x00	; 0
    25b6:	94 d8       	rcall	.-3800   	; 0x16e0 <SetParity>
    25b8:	80 e0       	ldi	r24, 0x00	; 0
    25ba:	d0 d8       	rcall	.-3680   	; 0x175c <SetBAUD>
    25bc:	e4 ea       	ldi	r30, 0xA4	; 164
    25be:	f3 e0       	ldi	r31, 0x03	; 3
    25c0:	e4 91       	lpm	r30, Z
    25c2:	ee 23       	and	r30, r30
    25c4:	19 f0       	breq	.+6      	; 0x25cc <MB_Init+0x36>
    25c6:	e1 30       	cpi	r30, 0x01	; 1
    25c8:	21 f0       	breq	.+8      	; 0x25d2 <MB_Init+0x3c>
    25ca:	05 c0       	rjmp	.+10     	; 0x25d6 <MB_Init+0x40>
    25cc:	80 e0       	ldi	r24, 0x00	; 0
    25ce:	94 df       	rcall	.-216    	; 0x24f8 <MB_S_Init>
    25d0:	02 c0       	rjmp	.+4      	; 0x25d6 <MB_Init+0x40>
    25d2:	80 e0       	ldi	r24, 0x00	; 0
    25d4:	a0 df       	rcall	.-192    	; 0x2516 <MB_M_Init>
    25d6:	e7 e5       	ldi	r30, 0x57	; 87
    25d8:	f3 e0       	ldi	r31, 0x03	; 3
    25da:	25 91       	lpm	r18, Z+
    25dc:	34 91       	lpm	r19, Z
    25de:	f9 01       	movw	r30, r18
    25e0:	19 95       	eicall
    25e2:	08 95       	ret

000025e4 <MB_M_Timer_ISR>:
    25e4:	6f 92       	push	r6
    25e6:	7f 92       	push	r7
    25e8:	9f 92       	push	r9
    25ea:	af 92       	push	r10
    25ec:	bf 92       	push	r11
    25ee:	cf 92       	push	r12
    25f0:	df 92       	push	r13
    25f2:	ef 92       	push	r14
    25f4:	ff 92       	push	r15
    25f6:	0f 93       	push	r16
    25f8:	1f 93       	push	r17
    25fa:	cf 93       	push	r28
    25fc:	df 93       	push	r29
    25fe:	d8 2e       	mov	r13, r24
    2600:	c8 2f       	mov	r28, r24
    2602:	d0 e0       	ldi	r29, 0x00	; 0
    2604:	fe 01       	movw	r30, r28
    2606:	e5 53       	subi	r30, 0x35	; 53
    2608:	f7 4f       	sbci	r31, 0xF7	; 247
    260a:	80 81       	ld	r24, Z
    260c:	88 23       	and	r24, r24
    260e:	19 f0       	breq	.+6      	; 0x2616 <MB_M_Timer_ISR+0x32>
    2610:	82 30       	cpi	r24, 0x02	; 2
    2612:	71 f0       	breq	.+28     	; 0x2630 <MB_M_Timer_ISR+0x4c>
    2614:	97 c2       	rjmp	.+1326   	; 0x2b44 <MB_M_Timer_ISR+0x560>
    2616:	80 91 d5 06 	lds	r24, 0x06D5
    261a:	8e 5f       	subi	r24, 0xFE	; 254
    261c:	6f ef       	ldi	r22, 0xFF	; 255
    261e:	7f ef       	ldi	r23, 0xFF	; 255
    2620:	8d 0d       	add	r24, r13
    2622:	0e 94 e2 06 	call	0xdc4	; 0xdc4 <StartTimer16>
    2626:	8d 2d       	mov	r24, r13
    2628:	4e db       	rcall	.-2404   	; 0x1cc6 <FormQuery>
    262a:	8d 2d       	mov	r24, r13
    262c:	de d8       	rcall	.-3652   	; 0x17ea <MB_Transm>
    262e:	8a c2       	rjmp	.+1300   	; 0x2b44 <MB_M_Timer_ISR+0x560>
    2630:	84 e0       	ldi	r24, 0x04	; 4
    2632:	fe 01       	movw	r30, r28
    2634:	e5 53       	subi	r30, 0x35	; 53
    2636:	f7 4f       	sbci	r31, 0xF7	; 247
    2638:	80 83       	st	Z, r24
    263a:	fe 01       	movw	r30, r28
    263c:	ee 50       	subi	r30, 0x0E	; 14
    263e:	f6 4f       	sbci	r31, 0xF6	; 246
    2640:	90 81       	ld	r25, Z
    2642:	81 e0       	ldi	r24, 0x01	; 1
    2644:	92 30       	cpi	r25, 0x02	; 2
    2646:	09 f0       	breq	.+2      	; 0x264a <MB_M_Timer_ISR+0x66>
    2648:	80 e0       	ldi	r24, 0x00	; 0
    264a:	80 93 db 06 	sts	0x06DB, r24
    264e:	8d 2d       	mov	r24, r13
    2650:	92 d9       	rcall	.-3292   	; 0x1976 <CommErr>
    2652:	88 23       	and	r24, r24
    2654:	21 f0       	breq	.+8      	; 0x265e <MB_M_Timer_ISR+0x7a>
    2656:	8d 2d       	mov	r24, r13
    2658:	0e 94 d9 07 	call	0xfb2	; 0xfb2 <FailSlave>
    265c:	63 c2       	rjmp	.+1222   	; 0x2b24 <MB_M_Timer_ISR+0x540>
    265e:	84 e1       	ldi	r24, 0x14	; 20
    2660:	8c 9f       	mul	r24, r28
    2662:	f0 01       	movw	r30, r0
    2664:	8d 9f       	mul	r24, r29
    2666:	f0 0d       	add	r31, r0
    2668:	11 24       	eor	r1, r1
    266a:	ed 58       	subi	r30, 0x8D	; 141
    266c:	fc 4f       	sbci	r31, 0xFC	; 252
    266e:	85 91       	lpm	r24, Z+
    2670:	94 91       	lpm	r25, Z
    2672:	fc 01       	movw	r30, r24
    2674:	19 95       	eicall
    2676:	80 91 db 06 	lds	r24, 0x06DB
    267a:	88 23       	and	r24, r24
    267c:	81 f0       	breq	.+32     	; 0x269e <MB_M_Timer_ISR+0xba>
    267e:	fe 01       	movw	r30, r28
    2680:	ee 0f       	add	r30, r30
    2682:	ff 1f       	adc	r31, r31
    2684:	ee 0f       	add	r30, r30
    2686:	ff 1f       	adc	r31, r31
    2688:	ee 0f       	add	r30, r30
    268a:	ff 1f       	adc	r31, r31
    268c:	e4 52       	subi	r30, 0x24	; 36
    268e:	f9 4f       	sbci	r31, 0xF9	; 249
    2690:	80 81       	ld	r24, Z
    2692:	41 81       	ldd	r20, Z+1	; 0x01
    2694:	20 e0       	ldi	r18, 0x00	; 0
    2696:	30 e0       	ldi	r19, 0x00	; 0
    2698:	00 e0       	ldi	r16, 0x00	; 0
    269a:	10 e0       	ldi	r17, 0x00	; 0
    269c:	15 c0       	rjmp	.+42     	; 0x26c8 <MB_M_Timer_ISR+0xe4>
    269e:	8d 2d       	mov	r24, r13
    26a0:	0e 94 2a 02 	call	0x454	; 0x454 <GetSlave>
    26a4:	8c 01       	movw	r16, r24
    26a6:	fc 01       	movw	r30, r24
    26a8:	31 96       	adiw	r30, 0x01	; 1
    26aa:	25 91       	lpm	r18, Z+
    26ac:	34 91       	lpm	r19, Z
    26ae:	fe 01       	movw	r30, r28
    26b0:	eb 51       	subi	r30, 0x1B	; 27
    26b2:	f6 4f       	sbci	r31, 0xF6	; 246
    26b4:	80 81       	ld	r24, Z
    26b6:	f7 e0       	ldi	r31, 0x07	; 7
    26b8:	8f 9f       	mul	r24, r31
    26ba:	20 0d       	add	r18, r0
    26bc:	31 1d       	adc	r19, r1
    26be:	11 24       	eor	r1, r1
    26c0:	f8 01       	movw	r30, r16
    26c2:	84 91       	lpm	r24, Z
    26c4:	f9 01       	movw	r30, r18
    26c6:	44 91       	lpm	r20, Z
    26c8:	bc 2f       	mov	r27, r28
    26ca:	aa 27       	eor	r26, r26
    26cc:	a1 5f       	subi	r26, 0xF1	; 241
    26ce:	bc 4e       	sbci	r27, 0xEC	; 236
    26d0:	9c 91       	ld	r25, X
    26d2:	98 13       	cpse	r25, r24
    26d4:	04 c0       	rjmp	.+8      	; 0x26de <MB_M_Timer_ISR+0xfa>
    26d6:	fd 01       	movw	r30, r26
    26d8:	61 81       	ldd	r22, Z+1	; 0x01
    26da:	64 17       	cp	r22, r20
    26dc:	21 f0       	breq	.+8      	; 0x26e6 <MB_M_Timer_ISR+0x102>
    26de:	8d 2d       	mov	r24, r13
    26e0:	0e 94 d9 07 	call	0xfb2	; 0xfb2 <FailSlave>
    26e4:	1f c2       	rjmp	.+1086   	; 0x2b24 <MB_M_Timer_ISR+0x540>
    26e6:	86 2f       	mov	r24, r22
    26e8:	90 e0       	ldi	r25, 0x00	; 0
    26ea:	fc 01       	movw	r30, r24
    26ec:	31 97       	sbiw	r30, 0x01	; 1
    26ee:	e0 31       	cpi	r30, 0x10	; 16
    26f0:	f1 05       	cpc	r31, r1
    26f2:	08 f0       	brcs	.+2      	; 0x26f6 <MB_M_Timer_ISR+0x112>
    26f4:	bb c1       	rjmp	.+886    	; 0x2a6c <MB_M_Timer_ISR+0x488>
    26f6:	ea 58       	subi	r30, 0x8A	; 138
    26f8:	ff 4f       	sbci	r31, 0xFF	; 255
    26fa:	0c 94 e0 30 	jmp	0x61c0	; 0x61c0 <__tablejump2__>
    26fe:	80 91 db 06 	lds	r24, 0x06DB
    2702:	88 23       	and	r24, r24
    2704:	59 f0       	breq	.+22     	; 0x271c <MB_M_Timer_ISR+0x138>
    2706:	fe 01       	movw	r30, r28
    2708:	ee 0f       	add	r30, r30
    270a:	ff 1f       	adc	r31, r31
    270c:	ee 0f       	add	r30, r30
    270e:	ff 1f       	adc	r31, r31
    2710:	ee 0f       	add	r30, r30
    2712:	ff 1f       	adc	r31, r31
    2714:	e4 52       	subi	r30, 0x24	; 36
    2716:	f9 4f       	sbci	r31, 0xF9	; 249
    2718:	74 81       	ldd	r23, Z+4	; 0x04
    271a:	03 c0       	rjmp	.+6      	; 0x2722 <MB_M_Timer_ISR+0x13e>
    271c:	f9 01       	movw	r30, r18
    271e:	33 96       	adiw	r30, 0x03	; 3
    2720:	74 91       	lpm	r23, Z
    2722:	fc 2f       	mov	r31, r28
    2724:	ee 27       	eor	r30, r30
    2726:	e1 5f       	subi	r30, 0xF1	; 241
    2728:	fc 4e       	sbci	r31, 0xEC	; 236
    272a:	82 81       	ldd	r24, Z+2	; 0x02
    272c:	90 e0       	ldi	r25, 0x00	; 0
    272e:	fe 01       	movw	r30, r28
    2730:	e3 5c       	subi	r30, 0xC3	; 195
    2732:	f5 4f       	sbci	r31, 0xF5	; 245
    2734:	e0 81       	ld	r30, Z
    2736:	f0 e0       	ldi	r31, 0x00	; 0
    2738:	ac 01       	movw	r20, r24
    273a:	4b 5f       	subi	r20, 0xFB	; 251
    273c:	5f 4f       	sbci	r21, 0xFF	; 255
    273e:	e4 17       	cp	r30, r20
    2740:	f5 07       	cpc	r31, r21
    2742:	09 f0       	breq	.+2      	; 0x2746 <MB_M_Timer_ISR+0x162>
    2744:	8a c0       	rjmp	.+276    	; 0x285a <MB_M_Timer_ISR+0x276>
    2746:	e7 2f       	mov	r30, r23
    2748:	e6 95       	lsr	r30
    274a:	e6 95       	lsr	r30
    274c:	e6 95       	lsr	r30
    274e:	f0 e0       	ldi	r31, 0x00	; 0
    2750:	41 e0       	ldi	r20, 0x01	; 1
    2752:	50 e0       	ldi	r21, 0x00	; 0
    2754:	a7 2f       	mov	r26, r23
    2756:	a7 70       	andi	r26, 0x07	; 7
    2758:	11 f4       	brne	.+4      	; 0x275e <MB_M_Timer_ISR+0x17a>
    275a:	40 e0       	ldi	r20, 0x00	; 0
    275c:	50 e0       	ldi	r21, 0x00	; 0
    275e:	4e 0f       	add	r20, r30
    2760:	5f 1f       	adc	r21, r31
    2762:	84 17       	cp	r24, r20
    2764:	95 07       	cpc	r25, r21
    2766:	09 f0       	breq	.+2      	; 0x276a <MB_M_Timer_ISR+0x186>
    2768:	7a c0       	rjmp	.+244    	; 0x285e <MB_M_Timer_ISR+0x27a>
    276a:	80 91 db 06 	lds	r24, 0x06DB
    276e:	88 23       	and	r24, r24
    2770:	69 f0       	breq	.+26     	; 0x278c <MB_M_Timer_ISR+0x1a8>
    2772:	fe 01       	movw	r30, r28
    2774:	ee 0f       	add	r30, r30
    2776:	ff 1f       	adc	r31, r31
    2778:	ee 0f       	add	r30, r30
    277a:	ff 1f       	adc	r31, r31
    277c:	ee 0f       	add	r30, r30
    277e:	ff 1f       	adc	r31, r31
    2780:	e4 52       	subi	r30, 0x24	; 36
    2782:	f9 4f       	sbci	r31, 0xF9	; 249
    2784:	a6 81       	ldd	r26, Z+6	; 0x06
    2786:	b7 81       	ldd	r27, Z+7	; 0x07
    2788:	c1 2c       	mov	r12, r1
    278a:	1f c0       	rjmp	.+62     	; 0x27ca <MB_M_Timer_ISR+0x1e6>
    278c:	61 30       	cpi	r22, 0x01	; 1
    278e:	61 f4       	brne	.+24     	; 0x27a8 <MB_M_Timer_ISR+0x1c4>
    2790:	fe 01       	movw	r30, r28
    2792:	e2 95       	swap	r30
    2794:	f2 95       	swap	r31
    2796:	f0 7f       	andi	r31, 0xF0	; 240
    2798:	fe 27       	eor	r31, r30
    279a:	e0 7f       	andi	r30, 0xF0	; 240
    279c:	fe 27       	eor	r31, r30
    279e:	ec 56       	subi	r30, 0x6C	; 108
    27a0:	fc 4f       	sbci	r31, 0xFC	; 252
    27a2:	a5 91       	lpm	r26, Z+
    27a4:	b4 91       	lpm	r27, Z
    27a6:	0b c0       	rjmp	.+22     	; 0x27be <MB_M_Timer_ISR+0x1da>
    27a8:	fe 01       	movw	r30, r28
    27aa:	e2 95       	swap	r30
    27ac:	f2 95       	swap	r31
    27ae:	f0 7f       	andi	r31, 0xF0	; 240
    27b0:	fe 27       	eor	r31, r30
    27b2:	e0 7f       	andi	r30, 0xF0	; 240
    27b4:	fe 27       	eor	r31, r30
    27b6:	e8 56       	subi	r30, 0x68	; 104
    27b8:	fc 4f       	sbci	r31, 0xFC	; 252
    27ba:	a5 91       	lpm	r26, Z+
    27bc:	b4 91       	lpm	r27, Z
    27be:	2b 5f       	subi	r18, 0xFB	; 251
    27c0:	3f 4f       	sbci	r19, 0xFF	; 255
    27c2:	f9 01       	movw	r30, r18
    27c4:	85 91       	lpm	r24, Z+
    27c6:	94 91       	lpm	r25, Z
    27c8:	c8 2e       	mov	r12, r24
    27ca:	a7 2e       	mov	r10, r23
    27cc:	b1 2c       	mov	r11, r1
    27ce:	a1 14       	cp	r10, r1
    27d0:	b1 04       	cpc	r11, r1
    27d2:	09 f4       	brne	.+2      	; 0x27d6 <MB_M_Timer_ISR+0x1f2>
    27d4:	46 c0       	rjmp	.+140    	; 0x2862 <MB_M_Timer_ISR+0x27e>
    27d6:	20 e0       	ldi	r18, 0x00	; 0
    27d8:	30 e0       	ldi	r19, 0x00	; 0
    27da:	81 e0       	ldi	r24, 0x01	; 1
    27dc:	90 e0       	ldi	r25, 0x00	; 0
    27de:	5c 2f       	mov	r21, r28
    27e0:	44 27       	eor	r20, r20
    27e2:	ba 01       	movw	r22, r20
    27e4:	61 5f       	subi	r22, 0xF1	; 241
    27e6:	7c 4e       	sbci	r23, 0xEC	; 236
    27e8:	7b 01       	movw	r14, r22
    27ea:	4c 2d       	mov	r20, r12
    27ec:	42 0f       	add	r20, r18
    27ee:	94 2e       	mov	r9, r20
    27f0:	96 94       	lsr	r9
    27f2:	96 94       	lsr	r9
    27f4:	96 94       	lsr	r9
    27f6:	47 70       	andi	r20, 0x07	; 7
    27f8:	fc 01       	movw	r30, r24
    27fa:	02 c0       	rjmp	.+4      	; 0x2800 <MB_M_Timer_ISR+0x21c>
    27fc:	ee 0f       	add	r30, r30
    27fe:	ff 1f       	adc	r31, r31
    2800:	4a 95       	dec	r20
    2802:	e2 f7       	brpl	.-8      	; 0x27fc <MB_M_Timer_ISR+0x218>
    2804:	af 01       	movw	r20, r30
    2806:	f9 01       	movw	r30, r18
    2808:	f6 95       	lsr	r31
    280a:	e7 95       	ror	r30
    280c:	f6 95       	lsr	r31
    280e:	e7 95       	ror	r30
    2810:	f6 95       	lsr	r31
    2812:	e7 95       	ror	r30
    2814:	ee 0d       	add	r30, r14
    2816:	ff 1d       	adc	r31, r15
    2818:	e3 81       	ldd	r30, Z+3	; 0x03
    281a:	f0 e0       	ldi	r31, 0x00	; 0
    281c:	b9 01       	movw	r22, r18
    281e:	67 70       	andi	r22, 0x07	; 7
    2820:	77 27       	eor	r23, r23
    2822:	3f 01       	movw	r6, r30
    2824:	02 c0       	rjmp	.+4      	; 0x282a <MB_M_Timer_ISR+0x246>
    2826:	75 94       	asr	r7
    2828:	67 94       	ror	r6
    282a:	6a 95       	dec	r22
    282c:	e2 f7       	brpl	.-8      	; 0x2826 <MB_M_Timer_ISR+0x242>
    282e:	60 fe       	sbrs	r6, 0
    2830:	07 c0       	rjmp	.+14     	; 0x2840 <MB_M_Timer_ISR+0x25c>
    2832:	fd 01       	movw	r30, r26
    2834:	e9 0d       	add	r30, r9
    2836:	f1 1d       	adc	r31, r1
    2838:	50 81       	ld	r21, Z
    283a:	45 2b       	or	r20, r21
    283c:	40 83       	st	Z, r20
    283e:	07 c0       	rjmp	.+14     	; 0x284e <MB_M_Timer_ISR+0x26a>
    2840:	fd 01       	movw	r30, r26
    2842:	e9 0d       	add	r30, r9
    2844:	f1 1d       	adc	r31, r1
    2846:	40 95       	com	r20
    2848:	50 81       	ld	r21, Z
    284a:	45 23       	and	r20, r21
    284c:	40 83       	st	Z, r20
    284e:	2f 5f       	subi	r18, 0xFF	; 255
    2850:	3f 4f       	sbci	r19, 0xFF	; 255
    2852:	2a 15       	cp	r18, r10
    2854:	3b 05       	cpc	r19, r11
    2856:	48 f2       	brcs	.-110    	; 0x27ea <MB_M_Timer_ISR+0x206>
    2858:	06 c0       	rjmp	.+12     	; 0x2866 <MB_M_Timer_ISR+0x282>
    285a:	81 e0       	ldi	r24, 0x01	; 1
    285c:	08 c1       	rjmp	.+528    	; 0x2a6e <MB_M_Timer_ISR+0x48a>
    285e:	81 e0       	ldi	r24, 0x01	; 1
    2860:	06 c1       	rjmp	.+524    	; 0x2a6e <MB_M_Timer_ISR+0x48a>
    2862:	80 e0       	ldi	r24, 0x00	; 0
    2864:	04 c1       	rjmp	.+520    	; 0x2a6e <MB_M_Timer_ISR+0x48a>
    2866:	80 e0       	ldi	r24, 0x00	; 0
    2868:	02 c1       	rjmp	.+516    	; 0x2a6e <MB_M_Timer_ISR+0x48a>
    286a:	fc 2f       	mov	r31, r28
    286c:	ee 27       	eor	r30, r30
    286e:	e1 5f       	subi	r30, 0xF1	; 241
    2870:	fc 4e       	sbci	r31, 0xEC	; 236
    2872:	72 81       	ldd	r23, Z+2	; 0x02
    2874:	fe 01       	movw	r30, r28
    2876:	e3 5c       	subi	r30, 0xC3	; 195
    2878:	f5 4f       	sbci	r31, 0xF5	; 245
    287a:	40 81       	ld	r20, Z
    287c:	50 e0       	ldi	r21, 0x00	; 0
    287e:	87 2f       	mov	r24, r23
    2880:	90 e0       	ldi	r25, 0x00	; 0
    2882:	05 96       	adiw	r24, 0x05	; 5
    2884:	48 17       	cp	r20, r24
    2886:	59 07       	cpc	r21, r25
    2888:	09 f0       	breq	.+2      	; 0x288c <MB_M_Timer_ISR+0x2a8>
    288a:	6b c0       	rjmp	.+214    	; 0x2962 <MB_M_Timer_ISR+0x37e>
    288c:	80 91 db 06 	lds	r24, 0x06DB
    2890:	88 23       	and	r24, r24
    2892:	71 f0       	breq	.+28     	; 0x28b0 <MB_M_Timer_ISR+0x2cc>
    2894:	fe 01       	movw	r30, r28
    2896:	ee 0f       	add	r30, r30
    2898:	ff 1f       	adc	r31, r31
    289a:	ee 0f       	add	r30, r30
    289c:	ff 1f       	adc	r31, r31
    289e:	ee 0f       	add	r30, r30
    28a0:	ff 1f       	adc	r31, r31
    28a2:	e4 52       	subi	r30, 0x24	; 36
    28a4:	f9 4f       	sbci	r31, 0xF9	; 249
    28a6:	84 81       	ldd	r24, Z+4	; 0x04
    28a8:	95 81       	ldd	r25, Z+5	; 0x05
    28aa:	88 0f       	add	r24, r24
    28ac:	99 1f       	adc	r25, r25
    28ae:	06 c0       	rjmp	.+12     	; 0x28bc <MB_M_Timer_ISR+0x2d8>
    28b0:	f9 01       	movw	r30, r18
    28b2:	33 96       	adiw	r30, 0x03	; 3
    28b4:	85 91       	lpm	r24, Z+
    28b6:	94 91       	lpm	r25, Z
    28b8:	88 0f       	add	r24, r24
    28ba:	99 1f       	adc	r25, r25
    28bc:	47 2f       	mov	r20, r23
    28be:	50 e0       	ldi	r21, 0x00	; 0
    28c0:	48 17       	cp	r20, r24
    28c2:	59 07       	cpc	r21, r25
    28c4:	09 f0       	breq	.+2      	; 0x28c8 <MB_M_Timer_ISR+0x2e4>
    28c6:	4f c0       	rjmp	.+158    	; 0x2966 <MB_M_Timer_ISR+0x382>
    28c8:	80 91 db 06 	lds	r24, 0x06DB
    28cc:	88 23       	and	r24, r24
    28ce:	61 f0       	breq	.+24     	; 0x28e8 <MB_M_Timer_ISR+0x304>
    28d0:	fe 01       	movw	r30, r28
    28d2:	ee 0f       	add	r30, r30
    28d4:	ff 1f       	adc	r31, r31
    28d6:	ee 0f       	add	r30, r30
    28d8:	ff 1f       	adc	r31, r31
    28da:	ee 0f       	add	r30, r30
    28dc:	ff 1f       	adc	r31, r31
    28de:	e4 52       	subi	r30, 0x24	; 36
    28e0:	f9 4f       	sbci	r31, 0xF9	; 249
    28e2:	a6 80       	ldd	r10, Z+6	; 0x06
    28e4:	b7 80       	ldd	r11, Z+7	; 0x07
    28e6:	23 c0       	rjmp	.+70     	; 0x292e <MB_M_Timer_ISR+0x34a>
    28e8:	63 30       	cpi	r22, 0x03	; 3
    28ea:	61 f4       	brne	.+24     	; 0x2904 <MB_M_Timer_ISR+0x320>
    28ec:	fe 01       	movw	r30, r28
    28ee:	e2 95       	swap	r30
    28f0:	f2 95       	swap	r31
    28f2:	f0 7f       	andi	r31, 0xF0	; 240
    28f4:	fe 27       	eor	r31, r30
    28f6:	e0 7f       	andi	r30, 0xF0	; 240
    28f8:	fe 27       	eor	r31, r30
    28fa:	e4 56       	subi	r30, 0x64	; 100
    28fc:	fc 4f       	sbci	r31, 0xFC	; 252
    28fe:	85 91       	lpm	r24, Z+
    2900:	94 91       	lpm	r25, Z
    2902:	0b c0       	rjmp	.+22     	; 0x291a <MB_M_Timer_ISR+0x336>
    2904:	fe 01       	movw	r30, r28
    2906:	e2 95       	swap	r30
    2908:	f2 95       	swap	r31
    290a:	f0 7f       	andi	r31, 0xF0	; 240
    290c:	fe 27       	eor	r31, r30
    290e:	e0 7f       	andi	r30, 0xF0	; 240
    2910:	fe 27       	eor	r31, r30
    2912:	e0 56       	subi	r30, 0x60	; 96
    2914:	fc 4f       	sbci	r31, 0xFC	; 252
    2916:	85 91       	lpm	r24, Z+
    2918:	94 91       	lpm	r25, Z
    291a:	2b 5f       	subi	r18, 0xFB	; 251
    291c:	3f 4f       	sbci	r19, 0xFF	; 255
    291e:	f9 01       	movw	r30, r18
    2920:	25 91       	lpm	r18, Z+
    2922:	34 91       	lpm	r19, Z
    2924:	22 0f       	add	r18, r18
    2926:	33 1f       	adc	r19, r19
    2928:	5c 01       	movw	r10, r24
    292a:	a2 0e       	add	r10, r18
    292c:	b3 1e       	adc	r11, r19
    292e:	76 95       	lsr	r23
    2930:	cc 24       	eor	r12, r12
    2932:	ca 94       	dec	r12
    2934:	c7 0e       	add	r12, r23
    2936:	ca f0       	brmi	.+50     	; 0x296a <MB_M_Timer_ISR+0x386>
    2938:	77 0f       	add	r23, r23
    293a:	99 24       	eor	r9, r9
    293c:	93 94       	inc	r9
    293e:	97 0e       	add	r9, r23
    2940:	ec 2c       	mov	r14, r12
    2942:	ee 0c       	add	r14, r14
    2944:	ff 08       	sbc	r15, r15
    2946:	ea 0c       	add	r14, r10
    2948:	fb 1c       	adc	r15, r11
    294a:	69 2d       	mov	r22, r9
    294c:	8d 2d       	mov	r24, r13
    294e:	9e d8       	rcall	.-3780   	; 0x1a8c <MB_FrameReg>
    2950:	f7 01       	movw	r30, r14
    2952:	91 83       	std	Z+1, r25	; 0x01
    2954:	80 83       	st	Z, r24
    2956:	ca 94       	dec	r12
    2958:	9a 94       	dec	r9
    295a:	9a 94       	dec	r9
    295c:	cc 20       	and	r12, r12
    295e:	84 f7       	brge	.-32     	; 0x2940 <MB_M_Timer_ISR+0x35c>
    2960:	06 c0       	rjmp	.+12     	; 0x296e <MB_M_Timer_ISR+0x38a>
    2962:	81 e0       	ldi	r24, 0x01	; 1
    2964:	84 c0       	rjmp	.+264    	; 0x2a6e <MB_M_Timer_ISR+0x48a>
    2966:	81 e0       	ldi	r24, 0x01	; 1
    2968:	82 c0       	rjmp	.+260    	; 0x2a6e <MB_M_Timer_ISR+0x48a>
    296a:	80 e0       	ldi	r24, 0x00	; 0
    296c:	80 c0       	rjmp	.+256    	; 0x2a6e <MB_M_Timer_ISR+0x48a>
    296e:	80 e0       	ldi	r24, 0x00	; 0
    2970:	7e c0       	rjmp	.+252    	; 0x2a6e <MB_M_Timer_ISR+0x48a>
    2972:	80 91 db 06 	lds	r24, 0x06DB
    2976:	88 23       	and	r24, r24
    2978:	71 f0       	breq	.+28     	; 0x2996 <MB_M_Timer_ISR+0x3b2>
    297a:	fe 01       	movw	r30, r28
    297c:	ee 0f       	add	r30, r30
    297e:	ff 1f       	adc	r31, r31
    2980:	ee 0f       	add	r30, r30
    2982:	ff 1f       	adc	r31, r31
    2984:	ee 0f       	add	r30, r30
    2986:	ff 1f       	adc	r31, r31
    2988:	e4 52       	subi	r30, 0x24	; 36
    298a:	f9 4f       	sbci	r31, 0xF9	; 249
    298c:	e2 80       	ldd	r14, Z+2	; 0x02
    298e:	f3 80       	ldd	r15, Z+3	; 0x03
    2990:	a6 80       	ldd	r10, Z+6	; 0x06
    2992:	b7 80       	ldd	r11, Z+7	; 0x07
    2994:	19 c0       	rjmp	.+50     	; 0x29c8 <MB_M_Timer_ISR+0x3e4>
    2996:	f9 01       	movw	r30, r18
    2998:	31 96       	adiw	r30, 0x01	; 1
    299a:	e5 90       	lpm	r14, Z+
    299c:	f4 90       	lpm	r15, Z
    299e:	fe 01       	movw	r30, r28
    29a0:	e2 95       	swap	r30
    29a2:	f2 95       	swap	r31
    29a4:	f0 7f       	andi	r31, 0xF0	; 240
    29a6:	fe 27       	eor	r31, r30
    29a8:	e0 7f       	andi	r30, 0xF0	; 240
    29aa:	fe 27       	eor	r31, r30
    29ac:	e4 56       	subi	r30, 0x64	; 100
    29ae:	fc 4f       	sbci	r31, 0xFC	; 252
    29b0:	85 91       	lpm	r24, Z+
    29b2:	94 91       	lpm	r25, Z
    29b4:	2b 5f       	subi	r18, 0xFB	; 251
    29b6:	3f 4f       	sbci	r19, 0xFF	; 255
    29b8:	f9 01       	movw	r30, r18
    29ba:	25 91       	lpm	r18, Z+
    29bc:	34 91       	lpm	r19, Z
    29be:	22 0f       	add	r18, r18
    29c0:	33 1f       	adc	r19, r19
    29c2:	5c 01       	movw	r10, r24
    29c4:	a2 0e       	add	r10, r18
    29c6:	b3 1e       	adc	r11, r19
    29c8:	fe 01       	movw	r30, r28
    29ca:	e3 5c       	subi	r30, 0xC3	; 195
    29cc:	f5 4f       	sbci	r31, 0xF5	; 245
    29ce:	80 81       	ld	r24, Z
    29d0:	88 30       	cpi	r24, 0x08	; 8
    29d2:	99 f4       	brne	.+38     	; 0x29fa <MB_M_Timer_ISR+0x416>
    29d4:	62 e0       	ldi	r22, 0x02	; 2
    29d6:	8d 2d       	mov	r24, r13
    29d8:	59 d8       	rcall	.-3918   	; 0x1a8c <MB_FrameReg>
    29da:	8e 15       	cp	r24, r14
    29dc:	9f 05       	cpc	r25, r15
    29de:	79 f4       	brne	.+30     	; 0x29fe <MB_M_Timer_ISR+0x41a>
    29e0:	64 e0       	ldi	r22, 0x04	; 4
    29e2:	8d 2d       	mov	r24, r13
    29e4:	53 d8       	rcall	.-3930   	; 0x1a8c <MB_FrameReg>
    29e6:	41 e0       	ldi	r20, 0x01	; 1
    29e8:	f5 01       	movw	r30, r10
    29ea:	20 81       	ld	r18, Z
    29ec:	31 81       	ldd	r19, Z+1	; 0x01
    29ee:	82 17       	cp	r24, r18
    29f0:	93 07       	cpc	r25, r19
    29f2:	09 f4       	brne	.+2      	; 0x29f6 <MB_M_Timer_ISR+0x412>
    29f4:	40 e0       	ldi	r20, 0x00	; 0
    29f6:	84 2f       	mov	r24, r20
    29f8:	3a c0       	rjmp	.+116    	; 0x2a6e <MB_M_Timer_ISR+0x48a>
    29fa:	81 e0       	ldi	r24, 0x01	; 1
    29fc:	38 c0       	rjmp	.+112    	; 0x2a6e <MB_M_Timer_ISR+0x48a>
    29fe:	81 e0       	ldi	r24, 0x01	; 1
    2a00:	36 c0       	rjmp	.+108    	; 0x2a6e <MB_M_Timer_ISR+0x48a>
    2a02:	80 91 db 06 	lds	r24, 0x06DB
    2a06:	88 23       	and	r24, r24
    2a08:	71 f0       	breq	.+28     	; 0x2a26 <MB_M_Timer_ISR+0x442>
    2a0a:	fe 01       	movw	r30, r28
    2a0c:	ee 0f       	add	r30, r30
    2a0e:	ff 1f       	adc	r31, r31
    2a10:	ee 0f       	add	r30, r30
    2a12:	ff 1f       	adc	r31, r31
    2a14:	ee 0f       	add	r30, r30
    2a16:	ff 1f       	adc	r31, r31
    2a18:	e4 52       	subi	r30, 0x24	; 36
    2a1a:	f9 4f       	sbci	r31, 0xF9	; 249
    2a1c:	e2 80       	ldd	r14, Z+2	; 0x02
    2a1e:	f3 80       	ldd	r15, Z+3	; 0x03
    2a20:	a4 80       	ldd	r10, Z+4	; 0x04
    2a22:	b5 80       	ldd	r11, Z+5	; 0x05
    2a24:	09 c0       	rjmp	.+18     	; 0x2a38 <MB_M_Timer_ISR+0x454>
    2a26:	f9 01       	movw	r30, r18
    2a28:	31 96       	adiw	r30, 0x01	; 1
    2a2a:	e5 90       	lpm	r14, Z+
    2a2c:	f4 90       	lpm	r15, Z
    2a2e:	2d 5f       	subi	r18, 0xFD	; 253
    2a30:	3f 4f       	sbci	r19, 0xFF	; 255
    2a32:	f9 01       	movw	r30, r18
    2a34:	a5 90       	lpm	r10, Z+
    2a36:	b4 90       	lpm	r11, Z
    2a38:	fe 01       	movw	r30, r28
    2a3a:	e3 5c       	subi	r30, 0xC3	; 195
    2a3c:	f5 4f       	sbci	r31, 0xF5	; 245
    2a3e:	80 81       	ld	r24, Z
    2a40:	88 30       	cpi	r24, 0x08	; 8
    2a42:	81 f4       	brne	.+32     	; 0x2a64 <MB_M_Timer_ISR+0x480>
    2a44:	62 e0       	ldi	r22, 0x02	; 2
    2a46:	8d 2d       	mov	r24, r13
    2a48:	21 d8       	rcall	.-4030   	; 0x1a8c <MB_FrameReg>
    2a4a:	8e 15       	cp	r24, r14
    2a4c:	9f 05       	cpc	r25, r15
    2a4e:	61 f4       	brne	.+24     	; 0x2a68 <MB_M_Timer_ISR+0x484>
    2a50:	64 e0       	ldi	r22, 0x04	; 4
    2a52:	8d 2d       	mov	r24, r13
    2a54:	1b d8       	rcall	.-4042   	; 0x1a8c <MB_FrameReg>
    2a56:	21 e0       	ldi	r18, 0x01	; 1
    2a58:	8a 15       	cp	r24, r10
    2a5a:	9b 05       	cpc	r25, r11
    2a5c:	09 f4       	brne	.+2      	; 0x2a60 <MB_M_Timer_ISR+0x47c>
    2a5e:	20 e0       	ldi	r18, 0x00	; 0
    2a60:	82 2f       	mov	r24, r18
    2a62:	05 c0       	rjmp	.+10     	; 0x2a6e <MB_M_Timer_ISR+0x48a>
    2a64:	81 e0       	ldi	r24, 0x01	; 1
    2a66:	03 c0       	rjmp	.+6      	; 0x2a6e <MB_M_Timer_ISR+0x48a>
    2a68:	81 e0       	ldi	r24, 0x01	; 1
    2a6a:	01 c0       	rjmp	.+2      	; 0x2a6e <MB_M_Timer_ISR+0x48a>
    2a6c:	80 e0       	ldi	r24, 0x00	; 0
    2a6e:	88 23       	and	r24, r24
    2a70:	91 f0       	breq	.+36     	; 0x2a96 <MB_M_Timer_ISR+0x4b2>
    2a72:	fe 01       	movw	r30, r28
    2a74:	e2 95       	swap	r30
    2a76:	f2 95       	swap	r31
    2a78:	f0 7f       	andi	r31, 0xF0	; 240
    2a7a:	fe 27       	eor	r31, r30
    2a7c:	e0 7f       	andi	r30, 0xF0	; 240
    2a7e:	fe 27       	eor	r31, r30
    2a80:	e0 59       	subi	r30, 0x90	; 144
    2a82:	fd 4e       	sbci	r31, 0xED	; 237
    2a84:	84 81       	ldd	r24, Z+4	; 0x04
    2a86:	95 81       	ldd	r25, Z+5	; 0x05
    2a88:	01 96       	adiw	r24, 0x01	; 1
    2a8a:	95 83       	std	Z+5, r25	; 0x05
    2a8c:	84 83       	std	Z+4, r24	; 0x04
    2a8e:	8d 2d       	mov	r24, r13
    2a90:	0e 94 d9 07 	call	0xfb2	; 0xfb2 <FailSlave>
    2a94:	47 c0       	rjmp	.+142    	; 0x2b24 <MB_M_Timer_ISR+0x540>
    2a96:	80 91 db 06 	lds	r24, 0x06DB
    2a9a:	88 23       	and	r24, r24
    2a9c:	31 f0       	breq	.+12     	; 0x2aaa <MB_M_Timer_ISR+0x4c6>
    2a9e:	ce 50       	subi	r28, 0x0E	; 14
    2aa0:	d6 4f       	sbci	r29, 0xF6	; 246
    2aa2:	18 82       	st	Y, r1
    2aa4:	65 e0       	ldi	r22, 0x05	; 5
    2aa6:	70 e0       	ldi	r23, 0x00	; 0
    2aa8:	48 c0       	rjmp	.+144    	; 0x2b3a <MB_M_Timer_ISR+0x556>
    2aaa:	fe 01       	movw	r30, r28
    2aac:	ee 0f       	add	r30, r30
    2aae:	ff 1f       	adc	r31, r31
    2ab0:	ee 0f       	add	r30, r30
    2ab2:	ff 1f       	adc	r31, r31
    2ab4:	bf 01       	movw	r22, r30
    2ab6:	60 5a       	subi	r22, 0xA0	; 160
    2ab8:	7d 4e       	sbci	r23, 0xED	; 237
    2aba:	81 e0       	ldi	r24, 0x01	; 1
    2abc:	90 e0       	ldi	r25, 0x00	; 0
    2abe:	a0 e0       	ldi	r26, 0x00	; 0
    2ac0:	b0 e0       	ldi	r27, 0x00	; 0
    2ac2:	9e 01       	movw	r18, r28
    2ac4:	20 52       	subi	r18, 0x20	; 32
    2ac6:	36 4f       	sbci	r19, 0xF6	; 246
    2ac8:	f9 01       	movw	r30, r18
    2aca:	00 80       	ld	r0, Z
    2acc:	04 c0       	rjmp	.+8      	; 0x2ad6 <MB_M_Timer_ISR+0x4f2>
    2ace:	88 0f       	add	r24, r24
    2ad0:	99 1f       	adc	r25, r25
    2ad2:	aa 1f       	adc	r26, r26
    2ad4:	bb 1f       	adc	r27, r27
    2ad6:	0a 94       	dec	r0
    2ad8:	d2 f7       	brpl	.-12     	; 0x2ace <MB_M_Timer_ISR+0x4ea>
    2ada:	80 95       	com	r24
    2adc:	90 95       	com	r25
    2ade:	a0 95       	com	r26
    2ae0:	b0 95       	com	r27
    2ae2:	fb 01       	movw	r30, r22
    2ae4:	40 81       	ld	r20, Z
    2ae6:	51 81       	ldd	r21, Z+1	; 0x01
    2ae8:	62 81       	ldd	r22, Z+2	; 0x02
    2aea:	73 81       	ldd	r23, Z+3	; 0x03
    2aec:	84 23       	and	r24, r20
    2aee:	95 23       	and	r25, r21
    2af0:	a6 23       	and	r26, r22
    2af2:	b7 23       	and	r27, r23
    2af4:	80 83       	st	Z, r24
    2af6:	91 83       	std	Z+1, r25	; 0x01
    2af8:	a2 83       	std	Z+2, r26	; 0x02
    2afa:	b3 83       	std	Z+3, r27	; 0x03
    2afc:	fe 01       	movw	r30, r28
    2afe:	eb 51       	subi	r30, 0x1B	; 27
    2b00:	f6 4f       	sbci	r31, 0xF6	; 246
    2b02:	80 81       	ld	r24, Z
    2b04:	8f 5f       	subi	r24, 0xFF	; 255
    2b06:	80 83       	st	Z, r24
    2b08:	f8 01       	movw	r30, r16
    2b0a:	33 96       	adiw	r30, 0x03	; 3
    2b0c:	e4 91       	lpm	r30, Z
    2b0e:	8e 13       	cpse	r24, r30
    2b10:	04 c0       	rjmp	.+8      	; 0x2b1a <MB_M_Timer_ISR+0x536>
    2b12:	8d 2d       	mov	r24, r13
    2b14:	0e 94 3a 07 	call	0xe74	; 0xe74 <NextSlave>
    2b18:	01 c0       	rjmp	.+2      	; 0x2b1c <MB_M_Timer_ISR+0x538>
    2b1a:	80 e0       	ldi	r24, 0x00	; 0
    2b1c:	fe 01       	movw	r30, r28
    2b1e:	e6 52       	subi	r30, 0x26	; 38
    2b20:	f9 4f       	sbci	r31, 0xF9	; 249
    2b22:	10 82       	st	Z, r1
    2b24:	88 23       	and	r24, r24
    2b26:	39 f0       	breq	.+14     	; 0x2b36 <MB_M_Timer_ISR+0x552>
    2b28:	cc 0f       	add	r28, r28
    2b2a:	dd 1f       	adc	r29, r29
    2b2c:	c0 51       	subi	r28, 0x10	; 16
    2b2e:	d6 4f       	sbci	r29, 0xF6	; 246
    2b30:	68 81       	ld	r22, Y
    2b32:	79 81       	ldd	r23, Y+1	; 0x01
    2b34:	02 c0       	rjmp	.+4      	; 0x2b3a <MB_M_Timer_ISR+0x556>
    2b36:	65 e0       	ldi	r22, 0x05	; 5
    2b38:	70 e0       	ldi	r23, 0x00	; 0
    2b3a:	80 91 d5 06 	lds	r24, 0x06D5
    2b3e:	8d 0d       	add	r24, r13
    2b40:	0e 94 e2 06 	call	0xdc4	; 0xdc4 <StartTimer16>
    2b44:	df 91       	pop	r29
    2b46:	cf 91       	pop	r28
    2b48:	1f 91       	pop	r17
    2b4a:	0f 91       	pop	r16
    2b4c:	ff 90       	pop	r15
    2b4e:	ef 90       	pop	r14
    2b50:	df 90       	pop	r13
    2b52:	cf 90       	pop	r12
    2b54:	bf 90       	pop	r11
    2b56:	af 90       	pop	r10
    2b58:	9f 90       	pop	r9
    2b5a:	7f 90       	pop	r7
    2b5c:	6f 90       	pop	r6
    2b5e:	08 95       	ret

00002b60 <MB_M_Tx>:
    2b60:	e8 2f       	mov	r30, r24
    2b62:	f0 e0       	ldi	r31, 0x00	; 0
    2b64:	e2 5a       	subi	r30, 0xA2	; 162
    2b66:	fd 4e       	sbci	r31, 0xED	; 237
    2b68:	60 81       	ld	r22, Z
    2b6a:	70 e0       	ldi	r23, 0x00	; 0
    2b6c:	90 91 d5 06 	lds	r25, 0x06D5
    2b70:	89 0f       	add	r24, r25
    2b72:	0c 94 e2 06 	jmp	0xdc4	; 0xdc4 <StartTimer16>
    2b76:	08 95       	ret

00002b78 <Modbus_TX>:
    2b78:	1f 93       	push	r17
    2b7a:	cf 93       	push	r28
    2b7c:	df 93       	push	r29
    2b7e:	e5 e6       	ldi	r30, 0x65	; 101
    2b80:	f3 e0       	ldi	r31, 0x03	; 3
    2b82:	25 91       	lpm	r18, Z+
    2b84:	34 91       	lpm	r19, Z
    2b86:	82 17       	cp	r24, r18
    2b88:	93 07       	cpc	r25, r19
    2b8a:	91 f0       	breq	.+36     	; 0x2bb0 <Modbus_TX+0x38>
    2b8c:	10 e0       	ldi	r17, 0x00	; 0
    2b8e:	44 e1       	ldi	r20, 0x14	; 20
    2b90:	1f 5f       	subi	r17, 0xFF	; 255
    2b92:	c1 2f       	mov	r28, r17
    2b94:	d0 e0       	ldi	r29, 0x00	; 0
    2b96:	4c 9f       	mul	r20, r28
    2b98:	f0 01       	movw	r30, r0
    2b9a:	4d 9f       	mul	r20, r29
    2b9c:	f0 0d       	add	r31, r0
    2b9e:	11 24       	eor	r1, r1
    2ba0:	eb 59       	subi	r30, 0x9B	; 155
    2ba2:	fc 4f       	sbci	r31, 0xFC	; 252
    2ba4:	25 91       	lpm	r18, Z+
    2ba6:	34 91       	lpm	r19, Z
    2ba8:	82 17       	cp	r24, r18
    2baa:	93 07       	cpc	r25, r19
    2bac:	89 f7       	brne	.-30     	; 0x2b90 <Modbus_TX+0x18>
    2bae:	03 c0       	rjmp	.+6      	; 0x2bb6 <Modbus_TX+0x3e>
    2bb0:	c0 e0       	ldi	r28, 0x00	; 0
    2bb2:	d0 e0       	ldi	r29, 0x00	; 0
    2bb4:	10 e0       	ldi	r17, 0x00	; 0
    2bb6:	fe 01       	movw	r30, r28
    2bb8:	e9 53       	subi	r30, 0x39	; 57
    2bba:	f9 4f       	sbci	r31, 0xF9	; 249
    2bbc:	60 81       	ld	r22, Z
    2bbe:	46 2f       	mov	r20, r22
    2bc0:	50 e0       	ldi	r21, 0x00	; 0
    2bc2:	fe 01       	movw	r30, r28
    2bc4:	e3 5c       	subi	r30, 0xC3	; 195
    2bc6:	f5 4f       	sbci	r31, 0xF5	; 245
    2bc8:	20 81       	ld	r18, Z
    2bca:	30 e0       	ldi	r19, 0x00	; 0
    2bcc:	22 50       	subi	r18, 0x02	; 2
    2bce:	31 09       	sbc	r19, r1
    2bd0:	42 17       	cp	r20, r18
    2bd2:	53 07       	cpc	r21, r19
    2bd4:	09 f5       	brne	.+66     	; 0x2c18 <Modbus_TX+0xa0>
    2bd6:	44 e1       	ldi	r20, 0x14	; 20
    2bd8:	4c 9f       	mul	r20, r28
    2bda:	90 01       	movw	r18, r0
    2bdc:	4d 9f       	mul	r20, r29
    2bde:	30 0d       	add	r19, r0
    2be0:	11 24       	eor	r1, r1
    2be2:	27 59       	subi	r18, 0x97	; 151
    2be4:	3c 4f       	sbci	r19, 0xFC	; 252
    2be6:	f9 01       	movw	r30, r18
    2be8:	a5 91       	lpm	r26, Z+
    2bea:	b4 91       	lpm	r27, Z
    2bec:	4c 91       	ld	r20, X
    2bee:	4f 7d       	andi	r20, 0xDF	; 223
    2bf0:	4c 93       	st	X, r20
    2bf2:	f9 01       	movw	r30, r18
    2bf4:	a5 91       	lpm	r26, Z+
    2bf6:	b4 91       	lpm	r27, Z
    2bf8:	2c 91       	ld	r18, X
    2bfa:	20 64       	ori	r18, 0x40	; 64
    2bfc:	2c 93       	st	X, r18
    2bfe:	24 e1       	ldi	r18, 0x14	; 20
    2c00:	2c 9f       	mul	r18, r28
    2c02:	f0 01       	movw	r30, r0
    2c04:	2d 9f       	mul	r18, r29
    2c06:	f0 0d       	add	r31, r0
    2c08:	11 24       	eor	r1, r1
    2c0a:	e9 59       	subi	r30, 0x99	; 153
    2c0c:	fc 4f       	sbci	r31, 0xFC	; 252
    2c0e:	a5 91       	lpm	r26, Z+
    2c10:	b4 91       	lpm	r27, Z
    2c12:	2c 91       	ld	r18, X
    2c14:	20 64       	ori	r18, 0x40	; 64
    2c16:	2c 93       	st	X, r18
    2c18:	6f 5f       	subi	r22, 0xFF	; 255
    2c1a:	fe 01       	movw	r30, r28
    2c1c:	e9 53       	subi	r30, 0x39	; 57
    2c1e:	f9 4f       	sbci	r31, 0xF9	; 249
    2c20:	60 83       	st	Z, r22
    2c22:	fe 01       	movw	r30, r28
    2c24:	e3 5c       	subi	r30, 0xC3	; 195
    2c26:	f5 4f       	sbci	r31, 0xF5	; 245
    2c28:	20 81       	ld	r18, Z
    2c2a:	62 17       	cp	r22, r18
    2c2c:	50 f4       	brcc	.+20     	; 0x2c42 <Modbus_TX+0xca>
    2c2e:	dc 2f       	mov	r29, r28
    2c30:	cc 27       	eor	r28, r28
    2c32:	c6 0f       	add	r28, r22
    2c34:	d1 1d       	adc	r29, r1
    2c36:	c1 5f       	subi	r28, 0xF1	; 241
    2c38:	dc 4e       	sbci	r29, 0xEC	; 236
    2c3a:	28 81       	ld	r18, Y
    2c3c:	fc 01       	movw	r30, r24
    2c3e:	20 83       	st	Z, r18
    2c40:	30 c0       	rjmp	.+96     	; 0x2ca2 <Modbus_TX+0x12a>
    2c42:	84 e1       	ldi	r24, 0x14	; 20
    2c44:	8c 9f       	mul	r24, r28
    2c46:	f0 01       	movw	r30, r0
    2c48:	8d 9f       	mul	r24, r29
    2c4a:	f0 0d       	add	r31, r0
    2c4c:	11 24       	eor	r1, r1
    2c4e:	e7 59       	subi	r30, 0x97	; 151
    2c50:	fc 4f       	sbci	r31, 0xFC	; 252
    2c52:	a5 91       	lpm	r26, Z+
    2c54:	b4 91       	lpm	r27, Z
    2c56:	8c 91       	ld	r24, X
    2c58:	8f 79       	andi	r24, 0x9F	; 159
    2c5a:	8c 93       	st	X, r24
    2c5c:	84 e1       	ldi	r24, 0x14	; 20
    2c5e:	8c 9f       	mul	r24, r28
    2c60:	f0 01       	movw	r30, r0
    2c62:	8d 9f       	mul	r24, r29
    2c64:	f0 0d       	add	r31, r0
    2c66:	11 24       	eor	r1, r1
    2c68:	ef 58       	subi	r30, 0x8F	; 143
    2c6a:	fc 4f       	sbci	r31, 0xFC	; 252
    2c6c:	85 91       	lpm	r24, Z+
    2c6e:	94 91       	lpm	r25, Z
    2c70:	fc 01       	movw	r30, r24
    2c72:	19 95       	eicall
    2c74:	fe 01       	movw	r30, r28
    2c76:	e9 53       	subi	r30, 0x39	; 57
    2c78:	f9 4f       	sbci	r31, 0xF9	; 249
    2c7a:	10 82       	st	Z, r1
    2c7c:	c5 53       	subi	r28, 0x35	; 53
    2c7e:	d7 4f       	sbci	r29, 0xF7	; 247
    2c80:	81 e0       	ldi	r24, 0x01	; 1
    2c82:	88 83       	st	Y, r24
    2c84:	e1 2f       	mov	r30, r17
    2c86:	f0 e0       	ldi	r31, 0x00	; 0
    2c88:	ec 55       	subi	r30, 0x5C	; 92
    2c8a:	fc 4f       	sbci	r31, 0xFC	; 252
    2c8c:	e4 91       	lpm	r30, Z
    2c8e:	ee 23       	and	r30, r30
    2c90:	19 f0       	breq	.+6      	; 0x2c98 <Modbus_TX+0x120>
    2c92:	e1 30       	cpi	r30, 0x01	; 1
    2c94:	21 f0       	breq	.+8      	; 0x2c9e <Modbus_TX+0x126>
    2c96:	05 c0       	rjmp	.+10     	; 0x2ca2 <Modbus_TX+0x12a>
    2c98:	81 2f       	mov	r24, r17
    2c9a:	22 dc       	rcall	.-1980   	; 0x24e0 <MB_S_Tx>
    2c9c:	02 c0       	rjmp	.+4      	; 0x2ca2 <Modbus_TX+0x12a>
    2c9e:	81 2f       	mov	r24, r17
    2ca0:	5f df       	rcall	.-322    	; 0x2b60 <MB_M_Tx>
    2ca2:	df 91       	pop	r29
    2ca4:	cf 91       	pop	r28
    2ca6:	1f 91       	pop	r17
    2ca8:	08 95       	ret

00002caa <MB_M_Cycle>:
    2caa:	1f 93       	push	r17
    2cac:	cf 93       	push	r28
    2cae:	df 93       	push	r29
    2cb0:	18 2f       	mov	r17, r24
    2cb2:	c0 91 d5 06 	lds	r28, 0x06D5
    2cb6:	c8 0f       	add	r28, r24
    2cb8:	81 e0       	ldi	r24, 0x01	; 1
    2cba:	8c 0f       	add	r24, r28
    2cbc:	0e 94 8e 08 	call	0x111c	; 0x111c <Timer16Stopp>
    2cc0:	88 23       	and	r24, r24
    2cc2:	19 f0       	breq	.+6      	; 0x2cca <MB_M_Cycle+0x20>
    2cc4:	81 2f       	mov	r24, r17
    2cc6:	0e 94 1f 07 	call	0xe3e	; 0xe3e <SlavesOn>
    2cca:	8c 2f       	mov	r24, r28
    2ccc:	0e 94 8e 08 	call	0x111c	; 0x111c <Timer16Stopp>
    2cd0:	88 23       	and	r24, r24
    2cd2:	09 f4       	brne	.+2      	; 0x2cd6 <MB_M_Cycle+0x2c>
    2cd4:	6d c0       	rjmp	.+218    	; 0x2db0 <MB_M_Cycle+0x106>
    2cd6:	f8 94       	cli
    2cd8:	c1 2f       	mov	r28, r17
    2cda:	d0 e0       	ldi	r29, 0x00	; 0
    2cdc:	fe 01       	movw	r30, r28
    2cde:	e5 53       	subi	r30, 0x35	; 53
    2ce0:	f7 4f       	sbci	r31, 0xF7	; 247
    2ce2:	80 81       	ld	r24, Z
    2ce4:	81 30       	cpi	r24, 0x01	; 1
    2ce6:	29 f4       	brne	.+10     	; 0x2cf2 <MB_M_Cycle+0x48>
    2ce8:	85 e0       	ldi	r24, 0x05	; 5
    2cea:	fe 01       	movw	r30, r28
    2cec:	e5 53       	subi	r30, 0x35	; 53
    2cee:	f7 4f       	sbci	r31, 0xF7	; 247
    2cf0:	80 83       	st	Z, r24
    2cf2:	78 94       	sei
    2cf4:	fe 01       	movw	r30, r28
    2cf6:	e5 53       	subi	r30, 0x35	; 53
    2cf8:	f7 4f       	sbci	r31, 0xF7	; 247
    2cfa:	80 81       	ld	r24, Z
    2cfc:	84 30       	cpi	r24, 0x04	; 4
    2cfe:	39 f1       	breq	.+78     	; 0x2d4e <MB_M_Cycle+0xa4>
    2d00:	85 30       	cpi	r24, 0x05	; 5
    2d02:	09 f0       	breq	.+2      	; 0x2d06 <MB_M_Cycle+0x5c>
    2d04:	55 c0       	rjmp	.+170    	; 0x2db0 <MB_M_Cycle+0x106>
    2d06:	81 2f       	mov	r24, r17
    2d08:	0e 94 d9 07 	call	0xfb2	; 0xfb2 <FailSlave>
    2d0c:	fe 01       	movw	r30, r28
    2d0e:	ee 50       	subi	r30, 0x0E	; 14
    2d10:	f6 4f       	sbci	r31, 0xF6	; 246
    2d12:	80 81       	ld	r24, Z
    2d14:	88 23       	and	r24, r24
    2d16:	19 f0       	breq	.+6      	; 0x2d1e <MB_M_Cycle+0x74>
    2d18:	81 30       	cpi	r24, 0x01	; 1
    2d1a:	29 f0       	breq	.+10     	; 0x2d26 <MB_M_Cycle+0x7c>
    2d1c:	0b c0       	rjmp	.+22     	; 0x2d34 <MB_M_Cycle+0x8a>
    2d1e:	81 2f       	mov	r24, r17
    2d20:	0e 94 63 0e 	call	0x1cc6	; 0x1cc6 <FormQuery>
    2d24:	07 c0       	rjmp	.+14     	; 0x2d34 <MB_M_Cycle+0x8a>
    2d26:	c6 52       	subi	r28, 0x26	; 38
    2d28:	d9 4f       	sbci	r29, 0xF9	; 249
    2d2a:	88 81       	ld	r24, Y
    2d2c:	81 11       	cpse	r24, r1
    2d2e:	02 c0       	rjmp	.+4      	; 0x2d34 <MB_M_Cycle+0x8a>
    2d30:	81 2f       	mov	r24, r17
    2d32:	13 d8       	rcall	.-4058   	; 0x1d5a <FormSingle>
    2d34:	80 91 d5 06 	lds	r24, 0x06D5
    2d38:	6f ef       	ldi	r22, 0xFF	; 255
    2d3a:	7f ef       	ldi	r23, 0xFF	; 255
    2d3c:	81 0f       	add	r24, r17
    2d3e:	0e 94 e2 06 	call	0xdc4	; 0xdc4 <StartTimer16>
    2d42:	f8 94       	cli
    2d44:	81 2f       	mov	r24, r17
    2d46:	0e 94 f5 0b 	call	0x17ea	; 0x17ea <MB_Transm>
    2d4a:	78 94       	sei
    2d4c:	31 c0       	rjmp	.+98     	; 0x2db0 <MB_M_Cycle+0x106>
    2d4e:	f8 94       	cli
    2d50:	84 e1       	ldi	r24, 0x14	; 20
    2d52:	8c 9f       	mul	r24, r28
    2d54:	f0 01       	movw	r30, r0
    2d56:	8d 9f       	mul	r24, r29
    2d58:	f0 0d       	add	r31, r0
    2d5a:	11 24       	eor	r1, r1
    2d5c:	ed 58       	subi	r30, 0x8D	; 141
    2d5e:	fc 4f       	sbci	r31, 0xFC	; 252
    2d60:	25 91       	lpm	r18, Z+
    2d62:	34 91       	lpm	r19, Z
    2d64:	f9 01       	movw	r30, r18
    2d66:	19 95       	eicall
    2d68:	78 94       	sei
    2d6a:	ce 50       	subi	r28, 0x0E	; 14
    2d6c:	d6 4f       	sbci	r29, 0xF6	; 246
    2d6e:	88 81       	ld	r24, Y
    2d70:	88 23       	and	r24, r24
    2d72:	19 f0       	breq	.+6      	; 0x2d7a <MB_M_Cycle+0xd0>
    2d74:	81 30       	cpi	r24, 0x01	; 1
    2d76:	29 f0       	breq	.+10     	; 0x2d82 <MB_M_Cycle+0xd8>
    2d78:	0f c0       	rjmp	.+30     	; 0x2d98 <MB_M_Cycle+0xee>
    2d7a:	81 2f       	mov	r24, r17
    2d7c:	0e 94 63 0e 	call	0x1cc6	; 0x1cc6 <FormQuery>
    2d80:	0b c0       	rjmp	.+22     	; 0x2d98 <MB_M_Cycle+0xee>
    2d82:	80 91 db 06 	lds	r24, 0x06DB
    2d86:	88 23       	and	r24, r24
    2d88:	21 f0       	breq	.+8      	; 0x2d92 <MB_M_Cycle+0xe8>
    2d8a:	81 2f       	mov	r24, r17
    2d8c:	0e 94 63 0e 	call	0x1cc6	; 0x1cc6 <FormQuery>
    2d90:	03 c0       	rjmp	.+6      	; 0x2d98 <MB_M_Cycle+0xee>
    2d92:	81 2f       	mov	r24, r17
    2d94:	0e 94 ad 0e 	call	0x1d5a	; 0x1d5a <FormSingle>
    2d98:	80 91 d5 06 	lds	r24, 0x06D5
    2d9c:	6f ef       	ldi	r22, 0xFF	; 255
    2d9e:	7f ef       	ldi	r23, 0xFF	; 255
    2da0:	81 0f       	add	r24, r17
    2da2:	0e 94 e2 06 	call	0xdc4	; 0xdc4 <StartTimer16>
    2da6:	f8 94       	cli
    2da8:	81 2f       	mov	r24, r17
    2daa:	0e 94 f5 0b 	call	0x17ea	; 0x17ea <MB_Transm>
    2dae:	78 94       	sei
    2db0:	df 91       	pop	r29
    2db2:	cf 91       	pop	r28
    2db4:	1f 91       	pop	r17
    2db6:	08 95       	ret

00002db8 <MB_Cycle>:
    2db8:	80 91 5f 12 	lds	r24, 0x125F
    2dbc:	80 ff       	sbrs	r24, 0
    2dbe:	15 c0       	rjmp	.+42     	; 0x2dea <MB_Cycle+0x32>
    2dc0:	f8 94       	cli
    2dc2:	80 91 5f 12 	lds	r24, 0x125F
    2dc6:	8e 7f       	andi	r24, 0xFE	; 254
    2dc8:	80 93 5f 12 	sts	0x125F, r24
    2dcc:	78 94       	sei
    2dce:	e4 ea       	ldi	r30, 0xA4	; 164
    2dd0:	f3 e0       	ldi	r31, 0x03	; 3
    2dd2:	e4 91       	lpm	r30, Z
    2dd4:	ee 23       	and	r30, r30
    2dd6:	19 f0       	breq	.+6      	; 0x2dde <MB_Cycle+0x26>
    2dd8:	e1 30       	cpi	r30, 0x01	; 1
    2dda:	29 f0       	breq	.+10     	; 0x2de6 <MB_Cycle+0x2e>
    2ddc:	06 c0       	rjmp	.+12     	; 0x2dea <MB_Cycle+0x32>
    2dde:	80 e0       	ldi	r24, 0x00	; 0
    2de0:	0e 94 d8 0e 	call	0x1db0	; 0x1db0 <MB_S_Timer_ISR>
    2de4:	02 c0       	rjmp	.+4      	; 0x2dea <MB_Cycle+0x32>
    2de6:	80 e0       	ldi	r24, 0x00	; 0
    2de8:	fd db       	rcall	.-2054   	; 0x25e4 <MB_M_Timer_ISR>
    2dea:	e4 ea       	ldi	r30, 0xA4	; 164
    2dec:	f3 e0       	ldi	r31, 0x03	; 3
    2dee:	e4 91       	lpm	r30, Z
    2df0:	e1 30       	cpi	r30, 0x01	; 1
    2df2:	11 f4       	brne	.+4      	; 0x2df8 <MB_Cycle+0x40>
    2df4:	80 e0       	ldi	r24, 0x00	; 0
    2df6:	59 cf       	rjmp	.-334    	; 0x2caa <MB_M_Cycle>
    2df8:	08 95       	ret

00002dfa <SNMP_TO_MODUS>:
    2dfa:	60 91 6f 0b 	lds	r22, 0x0B6F
    2dfe:	ea e0       	ldi	r30, 0x0A	; 10
    2e00:	f9 e0       	ldi	r31, 0x09	; 9
    2e02:	80 e0       	ldi	r24, 0x00	; 0
    2e04:	90 e0       	ldi	r25, 0x00	; 0
    2e06:	41 e0       	ldi	r20, 0x01	; 1
    2e08:	50 e0       	ldi	r21, 0x00	; 0
    2e0a:	21 91       	ld	r18, Z+
    2e0c:	31 91       	ld	r19, Z+
    2e0e:	23 2b       	or	r18, r19
    2e10:	49 f0       	breq	.+18     	; 0x2e24 <SNMP_TO_MODUS+0x2a>
    2e12:	9a 01       	movw	r18, r20
    2e14:	08 2e       	mov	r0, r24
    2e16:	02 c0       	rjmp	.+4      	; 0x2e1c <SNMP_TO_MODUS+0x22>
    2e18:	22 0f       	add	r18, r18
    2e1a:	33 1f       	adc	r19, r19
    2e1c:	0a 94       	dec	r0
    2e1e:	e2 f7       	brpl	.-8      	; 0x2e18 <SNMP_TO_MODUS+0x1e>
    2e20:	62 2b       	or	r22, r18
    2e22:	09 c0       	rjmp	.+18     	; 0x2e36 <SNMP_TO_MODUS+0x3c>
    2e24:	9a 01       	movw	r18, r20
    2e26:	08 2e       	mov	r0, r24
    2e28:	02 c0       	rjmp	.+4      	; 0x2e2e <SNMP_TO_MODUS+0x34>
    2e2a:	22 0f       	add	r18, r18
    2e2c:	33 1f       	adc	r19, r19
    2e2e:	0a 94       	dec	r0
    2e30:	e2 f7       	brpl	.-8      	; 0x2e2a <SNMP_TO_MODUS+0x30>
    2e32:	20 95       	com	r18
    2e34:	62 23       	and	r22, r18
    2e36:	01 96       	adiw	r24, 0x01	; 1
    2e38:	88 30       	cpi	r24, 0x08	; 8
    2e3a:	91 05       	cpc	r25, r1
    2e3c:	31 f7       	brne	.-52     	; 0x2e0a <SNMP_TO_MODUS+0x10>
    2e3e:	60 93 6f 0b 	sts	0x0B6F, r22
    2e42:	08 95       	ret

00002e44 <MODUS_TO_SNMP>:
    2e44:	cf 93       	push	r28
    2e46:	df 93       	push	r29
    2e48:	a0 91 84 12 	lds	r26, 0x1284
    2e4c:	b0 e0       	ldi	r27, 0x00	; 0
    2e4e:	e8 e2       	ldi	r30, 0x28	; 40
    2e50:	fa e0       	ldi	r31, 0x0A	; 10
    2e52:	80 e0       	ldi	r24, 0x00	; 0
    2e54:	90 e0       	ldi	r25, 0x00	; 0
    2e56:	41 e0       	ldi	r20, 0x01	; 1
    2e58:	50 e0       	ldi	r21, 0x00	; 0
    2e5a:	d0 e0       	ldi	r29, 0x00	; 0
    2e5c:	c0 e0       	ldi	r28, 0x00	; 0
    2e5e:	ba 01       	movw	r22, r20
    2e60:	08 2e       	mov	r0, r24
    2e62:	02 c0       	rjmp	.+4      	; 0x2e68 <MODUS_TO_SNMP+0x24>
    2e64:	66 0f       	add	r22, r22
    2e66:	77 1f       	adc	r23, r23
    2e68:	0a 94       	dec	r0
    2e6a:	e2 f7       	brpl	.-8      	; 0x2e64 <MODUS_TO_SNMP+0x20>
    2e6c:	6a 23       	and	r22, r26
    2e6e:	7b 23       	and	r23, r27
    2e70:	9a 01       	movw	r18, r20
    2e72:	16 16       	cp	r1, r22
    2e74:	17 06       	cpc	r1, r23
    2e76:	14 f0       	brlt	.+4      	; 0x2e7c <MODUS_TO_SNMP+0x38>
    2e78:	2d 2f       	mov	r18, r29
    2e7a:	3c 2f       	mov	r19, r28
    2e7c:	21 93       	st	Z+, r18
    2e7e:	31 93       	st	Z+, r19
    2e80:	01 96       	adiw	r24, 0x01	; 1
    2e82:	88 30       	cpi	r24, 0x08	; 8
    2e84:	91 05       	cpc	r25, r1
    2e86:	59 f7       	brne	.-42     	; 0x2e5e <MODUS_TO_SNMP+0x1a>
    2e88:	df 91       	pop	r29
    2e8a:	cf 91       	pop	r28
    2e8c:	08 95       	ret

00002e8e <USART_Cycle>:
    2e8e:	b5 df       	rcall	.-150    	; 0x2dfa <SNMP_TO_MODUS>
    2e90:	93 df       	rcall	.-218    	; 0x2db8 <MB_Cycle>
    2e92:	d8 cf       	rjmp	.-80     	; 0x2e44 <MODUS_TO_SNMP>
    2e94:	08 95       	ret

00002e96 <__vector_25>:
    2e96:	1f 92       	push	r1
    2e98:	0f 92       	push	r0
    2e9a:	0f b6       	in	r0, 0x3f	; 63
    2e9c:	0f 92       	push	r0
    2e9e:	11 24       	eor	r1, r1
    2ea0:	0b b6       	in	r0, 0x3b	; 59
    2ea2:	0f 92       	push	r0
    2ea4:	2f 93       	push	r18
    2ea6:	3f 93       	push	r19
    2ea8:	4f 93       	push	r20
    2eaa:	5f 93       	push	r21
    2eac:	6f 93       	push	r22
    2eae:	7f 93       	push	r23
    2eb0:	8f 93       	push	r24
    2eb2:	9f 93       	push	r25
    2eb4:	af 93       	push	r26
    2eb6:	bf 93       	push	r27
    2eb8:	ef 93       	push	r30
    2eba:	ff 93       	push	r31
    2ebc:	86 ec       	ldi	r24, 0xC6	; 198
    2ebe:	90 e0       	ldi	r25, 0x00	; 0
    2ec0:	0e 94 37 0c 	call	0x186e	; 0x186e <Modbus_RX>
    2ec4:	ff 91       	pop	r31
    2ec6:	ef 91       	pop	r30
    2ec8:	bf 91       	pop	r27
    2eca:	af 91       	pop	r26
    2ecc:	9f 91       	pop	r25
    2ece:	8f 91       	pop	r24
    2ed0:	7f 91       	pop	r23
    2ed2:	6f 91       	pop	r22
    2ed4:	5f 91       	pop	r21
    2ed6:	4f 91       	pop	r20
    2ed8:	3f 91       	pop	r19
    2eda:	2f 91       	pop	r18
    2edc:	0f 90       	pop	r0
    2ede:	0b be       	out	0x3b, r0	; 59
    2ee0:	0f 90       	pop	r0
    2ee2:	0f be       	out	0x3f, r0	; 63
    2ee4:	0f 90       	pop	r0
    2ee6:	1f 90       	pop	r1
    2ee8:	18 95       	reti

00002eea <__vector_27>:
    2eea:	1f 92       	push	r1
    2eec:	0f 92       	push	r0
    2eee:	0f b6       	in	r0, 0x3f	; 63
    2ef0:	0f 92       	push	r0
    2ef2:	11 24       	eor	r1, r1
    2ef4:	0b b6       	in	r0, 0x3b	; 59
    2ef6:	0f 92       	push	r0
    2ef8:	2f 93       	push	r18
    2efa:	3f 93       	push	r19
    2efc:	4f 93       	push	r20
    2efe:	5f 93       	push	r21
    2f00:	6f 93       	push	r22
    2f02:	7f 93       	push	r23
    2f04:	8f 93       	push	r24
    2f06:	9f 93       	push	r25
    2f08:	af 93       	push	r26
    2f0a:	bf 93       	push	r27
    2f0c:	ef 93       	push	r30
    2f0e:	ff 93       	push	r31
    2f10:	86 ec       	ldi	r24, 0xC6	; 198
    2f12:	90 e0       	ldi	r25, 0x00	; 0
    2f14:	31 de       	rcall	.-926    	; 0x2b78 <Modbus_TX>
    2f16:	ff 91       	pop	r31
    2f18:	ef 91       	pop	r30
    2f1a:	bf 91       	pop	r27
    2f1c:	af 91       	pop	r26
    2f1e:	9f 91       	pop	r25
    2f20:	8f 91       	pop	r24
    2f22:	7f 91       	pop	r23
    2f24:	6f 91       	pop	r22
    2f26:	5f 91       	pop	r21
    2f28:	4f 91       	pop	r20
    2f2a:	3f 91       	pop	r19
    2f2c:	2f 91       	pop	r18
    2f2e:	0f 90       	pop	r0
    2f30:	0b be       	out	0x3b, r0	; 59
    2f32:	0f 90       	pop	r0
    2f34:	0f be       	out	0x3f, r0	; 63
    2f36:	0f 90       	pop	r0
    2f38:	1f 90       	pop	r1
    2f3a:	18 95       	reti

00002f3c <__vector_26>:
    2f3c:	1f 92       	push	r1
    2f3e:	0f 92       	push	r0
    2f40:	0f b6       	in	r0, 0x3f	; 63
    2f42:	0f 92       	push	r0
    2f44:	11 24       	eor	r1, r1
    2f46:	0b b6       	in	r0, 0x3b	; 59
    2f48:	0f 92       	push	r0
    2f4a:	2f 93       	push	r18
    2f4c:	3f 93       	push	r19
    2f4e:	4f 93       	push	r20
    2f50:	5f 93       	push	r21
    2f52:	6f 93       	push	r22
    2f54:	7f 93       	push	r23
    2f56:	8f 93       	push	r24
    2f58:	9f 93       	push	r25
    2f5a:	af 93       	push	r26
    2f5c:	bf 93       	push	r27
    2f5e:	ef 93       	push	r30
    2f60:	ff 93       	push	r31
    2f62:	86 ec       	ldi	r24, 0xC6	; 198
    2f64:	90 e0       	ldi	r25, 0x00	; 0
    2f66:	08 de       	rcall	.-1008   	; 0x2b78 <Modbus_TX>
    2f68:	ff 91       	pop	r31
    2f6a:	ef 91       	pop	r30
    2f6c:	bf 91       	pop	r27
    2f6e:	af 91       	pop	r26
    2f70:	9f 91       	pop	r25
    2f72:	8f 91       	pop	r24
    2f74:	7f 91       	pop	r23
    2f76:	6f 91       	pop	r22
    2f78:	5f 91       	pop	r21
    2f7a:	4f 91       	pop	r20
    2f7c:	3f 91       	pop	r19
    2f7e:	2f 91       	pop	r18
    2f80:	0f 90       	pop	r0
    2f82:	0b be       	out	0x3b, r0	; 59
    2f84:	0f 90       	pop	r0
    2f86:	0f be       	out	0x3f, r0	; 63
    2f88:	0f 90       	pop	r0
    2f8a:	1f 90       	pop	r1
    2f8c:	18 95       	reti

00002f8e <__vector_36>:
    2f8e:	1f 92       	push	r1
    2f90:	0f 92       	push	r0
    2f92:	0f b6       	in	r0, 0x3f	; 63
    2f94:	0f 92       	push	r0
    2f96:	11 24       	eor	r1, r1
    2f98:	0b b6       	in	r0, 0x3b	; 59
    2f9a:	0f 92       	push	r0
    2f9c:	2f 93       	push	r18
    2f9e:	3f 93       	push	r19
    2fa0:	4f 93       	push	r20
    2fa2:	5f 93       	push	r21
    2fa4:	6f 93       	push	r22
    2fa6:	7f 93       	push	r23
    2fa8:	8f 93       	push	r24
    2faa:	9f 93       	push	r25
    2fac:	af 93       	push	r26
    2fae:	bf 93       	push	r27
    2fb0:	ef 93       	push	r30
    2fb2:	ff 93       	push	r31
    2fb4:	8e ec       	ldi	r24, 0xCE	; 206
    2fb6:	90 e0       	ldi	r25, 0x00	; 0
    2fb8:	0e 94 37 0c 	call	0x186e	; 0x186e <Modbus_RX>
    2fbc:	ff 91       	pop	r31
    2fbe:	ef 91       	pop	r30
    2fc0:	bf 91       	pop	r27
    2fc2:	af 91       	pop	r26
    2fc4:	9f 91       	pop	r25
    2fc6:	8f 91       	pop	r24
    2fc8:	7f 91       	pop	r23
    2fca:	6f 91       	pop	r22
    2fcc:	5f 91       	pop	r21
    2fce:	4f 91       	pop	r20
    2fd0:	3f 91       	pop	r19
    2fd2:	2f 91       	pop	r18
    2fd4:	0f 90       	pop	r0
    2fd6:	0b be       	out	0x3b, r0	; 59
    2fd8:	0f 90       	pop	r0
    2fda:	0f be       	out	0x3f, r0	; 63
    2fdc:	0f 90       	pop	r0
    2fde:	1f 90       	pop	r1
    2fe0:	18 95       	reti

00002fe2 <__vector_38>:
    2fe2:	1f 92       	push	r1
    2fe4:	0f 92       	push	r0
    2fe6:	0f b6       	in	r0, 0x3f	; 63
    2fe8:	0f 92       	push	r0
    2fea:	11 24       	eor	r1, r1
    2fec:	0b b6       	in	r0, 0x3b	; 59
    2fee:	0f 92       	push	r0
    2ff0:	2f 93       	push	r18
    2ff2:	3f 93       	push	r19
    2ff4:	4f 93       	push	r20
    2ff6:	5f 93       	push	r21
    2ff8:	6f 93       	push	r22
    2ffa:	7f 93       	push	r23
    2ffc:	8f 93       	push	r24
    2ffe:	9f 93       	push	r25
    3000:	af 93       	push	r26
    3002:	bf 93       	push	r27
    3004:	ef 93       	push	r30
    3006:	ff 93       	push	r31
    3008:	8e ec       	ldi	r24, 0xCE	; 206
    300a:	90 e0       	ldi	r25, 0x00	; 0
    300c:	b5 dd       	rcall	.-1174   	; 0x2b78 <Modbus_TX>
    300e:	ff 91       	pop	r31
    3010:	ef 91       	pop	r30
    3012:	bf 91       	pop	r27
    3014:	af 91       	pop	r26
    3016:	9f 91       	pop	r25
    3018:	8f 91       	pop	r24
    301a:	7f 91       	pop	r23
    301c:	6f 91       	pop	r22
    301e:	5f 91       	pop	r21
    3020:	4f 91       	pop	r20
    3022:	3f 91       	pop	r19
    3024:	2f 91       	pop	r18
    3026:	0f 90       	pop	r0
    3028:	0b be       	out	0x3b, r0	; 59
    302a:	0f 90       	pop	r0
    302c:	0f be       	out	0x3f, r0	; 63
    302e:	0f 90       	pop	r0
    3030:	1f 90       	pop	r1
    3032:	18 95       	reti

00003034 <__vector_37>:
    3034:	1f 92       	push	r1
    3036:	0f 92       	push	r0
    3038:	0f b6       	in	r0, 0x3f	; 63
    303a:	0f 92       	push	r0
    303c:	11 24       	eor	r1, r1
    303e:	0b b6       	in	r0, 0x3b	; 59
    3040:	0f 92       	push	r0
    3042:	2f 93       	push	r18
    3044:	3f 93       	push	r19
    3046:	4f 93       	push	r20
    3048:	5f 93       	push	r21
    304a:	6f 93       	push	r22
    304c:	7f 93       	push	r23
    304e:	8f 93       	push	r24
    3050:	9f 93       	push	r25
    3052:	af 93       	push	r26
    3054:	bf 93       	push	r27
    3056:	ef 93       	push	r30
    3058:	ff 93       	push	r31
    305a:	8e ec       	ldi	r24, 0xCE	; 206
    305c:	90 e0       	ldi	r25, 0x00	; 0
    305e:	8c dd       	rcall	.-1256   	; 0x2b78 <Modbus_TX>
    3060:	ff 91       	pop	r31
    3062:	ef 91       	pop	r30
    3064:	bf 91       	pop	r27
    3066:	af 91       	pop	r26
    3068:	9f 91       	pop	r25
    306a:	8f 91       	pop	r24
    306c:	7f 91       	pop	r23
    306e:	6f 91       	pop	r22
    3070:	5f 91       	pop	r21
    3072:	4f 91       	pop	r20
    3074:	3f 91       	pop	r19
    3076:	2f 91       	pop	r18
    3078:	0f 90       	pop	r0
    307a:	0b be       	out	0x3b, r0	; 59
    307c:	0f 90       	pop	r0
    307e:	0f be       	out	0x3f, r0	; 63
    3080:	0f 90       	pop	r0
    3082:	1f 90       	pop	r1
    3084:	18 95       	reti

00003086 <UDPbegin1_Automat>:
    3086:	1f 93       	push	r17
    3088:	cf 93       	push	r28
    308a:	df 93       	push	r29
    308c:	d6 2f       	mov	r29, r22
    308e:	17 2f       	mov	r17, r23
    3090:	c0 91 c6 06 	lds	r28, 0x06C6
    3094:	88 23       	and	r24, r24
    3096:	31 f0       	breq	.+12     	; 0x30a4 <UDPbegin1_Automat+0x1e>
    3098:	c1 30       	cpi	r28, 0x01	; 1
    309a:	51 f0       	breq	.+20     	; 0x30b0 <UDPbegin1_Automat+0x2a>
    309c:	18 f0       	brcs	.+6      	; 0x30a4 <UDPbegin1_Automat+0x1e>
    309e:	c2 30       	cpi	r28, 0x02	; 2
    30a0:	29 f1       	breq	.+74     	; 0x30ec <UDPbegin1_Automat+0x66>
    30a2:	2d c0       	rjmp	.+90     	; 0x30fe <UDPbegin1_Automat+0x78>
    30a4:	81 e0       	ldi	r24, 0x01	; 1
    30a6:	80 93 c6 06 	sts	0x06C6, r24
    30aa:	c1 30       	cpi	r28, 0x01	; 1
    30ac:	89 f5       	brne	.+98     	; 0x3110 <UDPbegin1_Automat+0x8a>
    30ae:	39 c0       	rjmp	.+114    	; 0x3122 <UDPbegin1_Automat+0x9c>
    30b0:	60 e1       	ldi	r22, 0x10	; 16
    30b2:	81 e0       	ldi	r24, 0x01	; 1
    30b4:	0e 94 10 05 	call	0xa20	; 0xa20 <execCmdS1_Automat>
    30b8:	8f 3f       	cpi	r24, 0xFF	; 255
    30ba:	09 f5       	brne	.+66     	; 0x30fe <UDPbegin1_Automat+0x78>
    30bc:	6f ef       	ldi	r22, 0xFF	; 255
    30be:	82 e0       	ldi	r24, 0x02	; 2
    30c0:	95 e0       	ldi	r25, 0x05	; 5
    30c2:	0e 94 29 04 	call	0x852	; 0x852 <W5100write>
    30c6:	62 e0       	ldi	r22, 0x02	; 2
    30c8:	80 e0       	ldi	r24, 0x00	; 0
    30ca:	95 e0       	ldi	r25, 0x05	; 5
    30cc:	0e 94 29 04 	call	0x852	; 0x852 <W5100write>
    30d0:	61 2f       	mov	r22, r17
    30d2:	84 e0       	ldi	r24, 0x04	; 4
    30d4:	95 e0       	ldi	r25, 0x05	; 5
    30d6:	0e 94 29 04 	call	0x852	; 0x852 <W5100write>
    30da:	6d 2f       	mov	r22, r29
    30dc:	85 e0       	ldi	r24, 0x05	; 5
    30de:	95 e0       	ldi	r25, 0x05	; 5
    30e0:	0e 94 29 04 	call	0x852	; 0x852 <W5100write>
    30e4:	82 e0       	ldi	r24, 0x02	; 2
    30e6:	80 93 c6 06 	sts	0x06C6, r24
    30ea:	17 c0       	rjmp	.+46     	; 0x311a <UDPbegin1_Automat+0x94>
    30ec:	61 e0       	ldi	r22, 0x01	; 1
    30ee:	81 e0       	ldi	r24, 0x01	; 1
    30f0:	0e 94 10 05 	call	0xa20	; 0xa20 <execCmdS1_Automat>
    30f4:	8f 3f       	cpi	r24, 0xFF	; 255
    30f6:	19 f4       	brne	.+6      	; 0x30fe <UDPbegin1_Automat+0x78>
    30f8:	80 93 c6 06 	sts	0x06C6, r24
    30fc:	12 c0       	rjmp	.+36     	; 0x3122 <UDPbegin1_Automat+0x9c>
    30fe:	80 91 c6 06 	lds	r24, 0x06C6
    3102:	8c 17       	cp	r24, r28
    3104:	71 f0       	breq	.+28     	; 0x3122 <UDPbegin1_Automat+0x9c>
    3106:	81 30       	cpi	r24, 0x01	; 1
    3108:	19 f0       	breq	.+6      	; 0x3110 <UDPbegin1_Automat+0x8a>
    310a:	82 30       	cpi	r24, 0x02	; 2
    310c:	31 f0       	breq	.+12     	; 0x311a <UDPbegin1_Automat+0x94>
    310e:	09 c0       	rjmp	.+18     	; 0x3122 <UDPbegin1_Automat+0x9c>
    3110:	60 e0       	ldi	r22, 0x00	; 0
    3112:	80 e0       	ldi	r24, 0x00	; 0
    3114:	0e 94 10 05 	call	0xa20	; 0xa20 <execCmdS1_Automat>
    3118:	04 c0       	rjmp	.+8      	; 0x3122 <UDPbegin1_Automat+0x9c>
    311a:	60 e0       	ldi	r22, 0x00	; 0
    311c:	80 e0       	ldi	r24, 0x00	; 0
    311e:	0e 94 10 05 	call	0xa20	; 0xa20 <execCmdS1_Automat>
    3122:	80 91 c6 06 	lds	r24, 0x06C6
    3126:	df 91       	pop	r29
    3128:	cf 91       	pop	r28
    312a:	1f 91       	pop	r17
    312c:	08 95       	ret

0000312e <startUDP>:
    312e:	cf 93       	push	r28
    3130:	df 93       	push	r29
    3132:	ea 01       	movw	r28, r20
    3134:	fb 01       	movw	r30, r22
    3136:	90 81       	ld	r25, Z
    3138:	91 11       	cpse	r25, r1
    313a:	09 c0       	rjmp	.+18     	; 0x314e <startUDP+0x20>
    313c:	91 81       	ldd	r25, Z+1	; 0x01
    313e:	91 11       	cpse	r25, r1
    3140:	06 c0       	rjmp	.+12     	; 0x314e <startUDP+0x20>
    3142:	92 81       	ldd	r25, Z+2	; 0x02
    3144:	91 11       	cpse	r25, r1
    3146:	03 c0       	rjmp	.+6      	; 0x314e <startUDP+0x20>
    3148:	93 81       	ldd	r25, Z+3	; 0x03
    314a:	99 23       	and	r25, r25
    314c:	19 f1       	breq	.+70     	; 0x3194 <startUDP+0x66>
    314e:	20 97       	sbiw	r28, 0x00	; 0
    3150:	21 f1       	breq	.+72     	; 0x319a <startUDP+0x6c>
    3152:	81 11       	cpse	r24, r1
    3154:	09 c0       	rjmp	.+18     	; 0x3168 <startUDP+0x3a>
    3156:	cb 01       	movw	r24, r22
    3158:	0e 94 7e 05 	call	0xafc	; 0xafc <W5100_writeS0DIPR>
    315c:	ce 01       	movw	r24, r28
    315e:	0e 94 72 05 	call	0xae4	; 0xae4 <W5100_writeS0DPORT>
    3162:	81 e0       	ldi	r24, 0x01	; 1
    3164:	90 e0       	ldi	r25, 0x00	; 0
    3166:	1e c0       	rjmp	.+60     	; 0x31a4 <startUDP+0x76>
    3168:	81 30       	cpi	r24, 0x01	; 1
    316a:	49 f4       	brne	.+18     	; 0x317e <startUDP+0x50>
    316c:	cb 01       	movw	r24, r22
    316e:	0e 94 a0 05 	call	0xb40	; 0xb40 <W5100_writeS1DIPR>
    3172:	ce 01       	movw	r24, r28
    3174:	0e 94 94 05 	call	0xb28	; 0xb28 <W5100_writeS1DPORT>
    3178:	81 e0       	ldi	r24, 0x01	; 1
    317a:	90 e0       	ldi	r25, 0x00	; 0
    317c:	13 c0       	rjmp	.+38     	; 0x31a4 <startUDP+0x76>
    317e:	82 30       	cpi	r24, 0x02	; 2
    3180:	79 f4       	brne	.+30     	; 0x31a0 <startUDP+0x72>
    3182:	cb 01       	movw	r24, r22
    3184:	0e 94 c2 05 	call	0xb84	; 0xb84 <W5100_writeS2DIPR>
    3188:	ce 01       	movw	r24, r28
    318a:	0e 94 b6 05 	call	0xb6c	; 0xb6c <W5100_writeS2DPORT>
    318e:	81 e0       	ldi	r24, 0x01	; 1
    3190:	90 e0       	ldi	r25, 0x00	; 0
    3192:	08 c0       	rjmp	.+16     	; 0x31a4 <startUDP+0x76>
    3194:	80 e0       	ldi	r24, 0x00	; 0
    3196:	90 e0       	ldi	r25, 0x00	; 0
    3198:	05 c0       	rjmp	.+10     	; 0x31a4 <startUDP+0x76>
    319a:	80 e0       	ldi	r24, 0x00	; 0
    319c:	90 e0       	ldi	r25, 0x00	; 0
    319e:	02 c0       	rjmp	.+4      	; 0x31a4 <startUDP+0x76>
    31a0:	81 e0       	ldi	r24, 0x01	; 1
    31a2:	90 e0       	ldi	r25, 0x00	; 0
    31a4:	df 91       	pop	r29
    31a6:	cf 91       	pop	r28
    31a8:	08 95       	ret

000031aa <_UDPtoSerialSocket_beginPacket>:
    31aa:	ab 01       	movw	r20, r22
    31ac:	10 92 c7 09 	sts	0x09C7, r1
    31b0:	10 92 c6 09 	sts	0x09C6, r1
    31b4:	bc 01       	movw	r22, r24
    31b6:	81 e0       	ldi	r24, 0x01	; 1
    31b8:	ba cf       	rjmp	.-140    	; 0x312e <startUDP>
    31ba:	08 95       	ret

000031bc <_UDPtoSerialSocket_write>:
    31bc:	9b 01       	movw	r18, r22
    31be:	60 91 c6 09 	lds	r22, 0x09C6
    31c2:	70 91 c7 09 	lds	r23, 0x09C7
    31c6:	ac 01       	movw	r20, r24
    31c8:	81 e0       	ldi	r24, 0x01	; 1
    31ca:	0e 94 5f 06 	call	0xcbe	; 0xcbe <bufferData>
    31ce:	20 91 c6 09 	lds	r18, 0x09C6
    31d2:	30 91 c7 09 	lds	r19, 0x09C7
    31d6:	28 0f       	add	r18, r24
    31d8:	39 1f       	adc	r19, r25
    31da:	30 93 c7 09 	sts	0x09C7, r19
    31de:	20 93 c6 09 	sts	0x09C6, r18
    31e2:	08 95       	ret

000031e4 <_UDPtoSerialSocket_endPacket_Automat>:
    31e4:	cf 93       	push	r28
    31e6:	c0 91 c5 06 	lds	r28, 0x06C5
    31ea:	88 23       	and	r24, r24
    31ec:	31 f0       	breq	.+12     	; 0x31fa <_UDPtoSerialSocket_endPacket_Automat+0x16>
    31ee:	c1 30       	cpi	r28, 0x01	; 1
    31f0:	51 f0       	breq	.+20     	; 0x3206 <_UDPtoSerialSocket_endPacket_Automat+0x22>
    31f2:	18 f0       	brcs	.+6      	; 0x31fa <_UDPtoSerialSocket_endPacket_Automat+0x16>
    31f4:	c2 30       	cpi	r28, 0x02	; 2
    31f6:	89 f0       	breq	.+34     	; 0x321a <_UDPtoSerialSocket_endPacket_Automat+0x36>
    31f8:	2e c0       	rjmp	.+92     	; 0x3256 <_UDPtoSerialSocket_endPacket_Automat+0x72>
    31fa:	81 e0       	ldi	r24, 0x01	; 1
    31fc:	80 93 c5 06 	sts	0x06C5, r24
    3200:	c1 30       	cpi	r28, 0x01	; 1
    3202:	79 f5       	brne	.+94     	; 0x3262 <_UDPtoSerialSocket_endPacket_Automat+0x7e>
    3204:	32 c0       	rjmp	.+100    	; 0x326a <_UDPtoSerialSocket_endPacket_Automat+0x86>
    3206:	60 e2       	ldi	r22, 0x20	; 32
    3208:	81 e0       	ldi	r24, 0x01	; 1
    320a:	0e 94 10 05 	call	0xa20	; 0xa20 <execCmdS1_Automat>
    320e:	8f 3f       	cpi	r24, 0xFF	; 255
    3210:	11 f5       	brne	.+68     	; 0x3256 <_UDPtoSerialSocket_endPacket_Automat+0x72>
    3212:	82 e0       	ldi	r24, 0x02	; 2
    3214:	80 93 c5 06 	sts	0x06C5, r24
    3218:	28 c0       	rjmp	.+80     	; 0x326a <_UDPtoSerialSocket_endPacket_Automat+0x86>
    321a:	62 e0       	ldi	r22, 0x02	; 2
    321c:	70 e0       	ldi	r23, 0x00	; 0
    321e:	81 e0       	ldi	r24, 0x01	; 1
    3220:	0e 94 d2 04 	call	0x9a4	; 0x9a4 <readSn>
    3224:	84 fd       	sbrc	r24, 4
    3226:	0d c0       	rjmp	.+26     	; 0x3242 <_UDPtoSerialSocket_endPacket_Automat+0x5e>
    3228:	62 e0       	ldi	r22, 0x02	; 2
    322a:	70 e0       	ldi	r23, 0x00	; 0
    322c:	81 e0       	ldi	r24, 0x01	; 1
    322e:	0e 94 d2 04 	call	0x9a4	; 0x9a4 <readSn>
    3232:	83 ff       	sbrs	r24, 3
    3234:	10 c0       	rjmp	.+32     	; 0x3256 <_UDPtoSerialSocket_endPacket_Automat+0x72>
    3236:	48 e1       	ldi	r20, 0x18	; 24
    3238:	62 e0       	ldi	r22, 0x02	; 2
    323a:	70 e0       	ldi	r23, 0x00	; 0
    323c:	81 e0       	ldi	r24, 0x01	; 1
    323e:	0e 94 06 05 	call	0xa0c	; 0xa0c <writeSn>
    3242:	40 e1       	ldi	r20, 0x10	; 16
    3244:	62 e0       	ldi	r22, 0x02	; 2
    3246:	70 e0       	ldi	r23, 0x00	; 0
    3248:	81 e0       	ldi	r24, 0x01	; 1
    324a:	0e 94 06 05 	call	0xa0c	; 0xa0c <writeSn>
    324e:	8f ef       	ldi	r24, 0xFF	; 255
    3250:	80 93 c5 06 	sts	0x06C5, r24
    3254:	0a c0       	rjmp	.+20     	; 0x326a <_UDPtoSerialSocket_endPacket_Automat+0x86>
    3256:	80 91 c5 06 	lds	r24, 0x06C5
    325a:	8c 17       	cp	r24, r28
    325c:	31 f0       	breq	.+12     	; 0x326a <_UDPtoSerialSocket_endPacket_Automat+0x86>
    325e:	81 30       	cpi	r24, 0x01	; 1
    3260:	21 f4       	brne	.+8      	; 0x326a <_UDPtoSerialSocket_endPacket_Automat+0x86>
    3262:	60 e2       	ldi	r22, 0x20	; 32
    3264:	80 e0       	ldi	r24, 0x00	; 0
    3266:	0e 94 10 05 	call	0xa20	; 0xa20 <execCmdS1_Automat>
    326a:	80 91 c5 06 	lds	r24, 0x06C5
    326e:	cf 91       	pop	r28
    3270:	08 95       	ret

00003272 <UDPbegin2_Automat>:
    3272:	1f 93       	push	r17
    3274:	cf 93       	push	r28
    3276:	df 93       	push	r29
    3278:	d6 2f       	mov	r29, r22
    327a:	17 2f       	mov	r17, r23
    327c:	c0 91 c4 06 	lds	r28, 0x06C4
    3280:	88 23       	and	r24, r24
    3282:	31 f0       	breq	.+12     	; 0x3290 <UDPbegin2_Automat+0x1e>
    3284:	c1 30       	cpi	r28, 0x01	; 1
    3286:	51 f0       	breq	.+20     	; 0x329c <UDPbegin2_Automat+0x2a>
    3288:	18 f0       	brcs	.+6      	; 0x3290 <UDPbegin2_Automat+0x1e>
    328a:	c2 30       	cpi	r28, 0x02	; 2
    328c:	29 f1       	breq	.+74     	; 0x32d8 <UDPbegin2_Automat+0x66>
    328e:	2d c0       	rjmp	.+90     	; 0x32ea <UDPbegin2_Automat+0x78>
    3290:	81 e0       	ldi	r24, 0x01	; 1
    3292:	80 93 c4 06 	sts	0x06C4, r24
    3296:	c1 30       	cpi	r28, 0x01	; 1
    3298:	89 f5       	brne	.+98     	; 0x32fc <UDPbegin2_Automat+0x8a>
    329a:	39 c0       	rjmp	.+114    	; 0x330e <UDPbegin2_Automat+0x9c>
    329c:	60 e1       	ldi	r22, 0x10	; 16
    329e:	81 e0       	ldi	r24, 0x01	; 1
    32a0:	0e 94 41 05 	call	0xa82	; 0xa82 <execCmdS2_Automat>
    32a4:	8f 3f       	cpi	r24, 0xFF	; 255
    32a6:	09 f5       	brne	.+66     	; 0x32ea <UDPbegin2_Automat+0x78>
    32a8:	6f ef       	ldi	r22, 0xFF	; 255
    32aa:	82 e0       	ldi	r24, 0x02	; 2
    32ac:	96 e0       	ldi	r25, 0x06	; 6
    32ae:	0e 94 29 04 	call	0x852	; 0x852 <W5100write>
    32b2:	62 e0       	ldi	r22, 0x02	; 2
    32b4:	80 e0       	ldi	r24, 0x00	; 0
    32b6:	96 e0       	ldi	r25, 0x06	; 6
    32b8:	0e 94 29 04 	call	0x852	; 0x852 <W5100write>
    32bc:	61 2f       	mov	r22, r17
    32be:	84 e0       	ldi	r24, 0x04	; 4
    32c0:	96 e0       	ldi	r25, 0x06	; 6
    32c2:	0e 94 29 04 	call	0x852	; 0x852 <W5100write>
    32c6:	6d 2f       	mov	r22, r29
    32c8:	85 e0       	ldi	r24, 0x05	; 5
    32ca:	96 e0       	ldi	r25, 0x06	; 6
    32cc:	0e 94 29 04 	call	0x852	; 0x852 <W5100write>
    32d0:	82 e0       	ldi	r24, 0x02	; 2
    32d2:	80 93 c4 06 	sts	0x06C4, r24
    32d6:	17 c0       	rjmp	.+46     	; 0x3306 <UDPbegin2_Automat+0x94>
    32d8:	61 e0       	ldi	r22, 0x01	; 1
    32da:	81 e0       	ldi	r24, 0x01	; 1
    32dc:	0e 94 41 05 	call	0xa82	; 0xa82 <execCmdS2_Automat>
    32e0:	8f 3f       	cpi	r24, 0xFF	; 255
    32e2:	19 f4       	brne	.+6      	; 0x32ea <UDPbegin2_Automat+0x78>
    32e4:	80 93 c4 06 	sts	0x06C4, r24
    32e8:	12 c0       	rjmp	.+36     	; 0x330e <UDPbegin2_Automat+0x9c>
    32ea:	80 91 c4 06 	lds	r24, 0x06C4
    32ee:	8c 17       	cp	r24, r28
    32f0:	71 f0       	breq	.+28     	; 0x330e <UDPbegin2_Automat+0x9c>
    32f2:	81 30       	cpi	r24, 0x01	; 1
    32f4:	19 f0       	breq	.+6      	; 0x32fc <UDPbegin2_Automat+0x8a>
    32f6:	82 30       	cpi	r24, 0x02	; 2
    32f8:	31 f0       	breq	.+12     	; 0x3306 <UDPbegin2_Automat+0x94>
    32fa:	09 c0       	rjmp	.+18     	; 0x330e <UDPbegin2_Automat+0x9c>
    32fc:	60 e1       	ldi	r22, 0x10	; 16
    32fe:	80 e0       	ldi	r24, 0x00	; 0
    3300:	0e 94 41 05 	call	0xa82	; 0xa82 <execCmdS2_Automat>
    3304:	04 c0       	rjmp	.+8      	; 0x330e <UDPbegin2_Automat+0x9c>
    3306:	61 e0       	ldi	r22, 0x01	; 1
    3308:	80 e0       	ldi	r24, 0x00	; 0
    330a:	0e 94 41 05 	call	0xa82	; 0xa82 <execCmdS2_Automat>
    330e:	80 91 c4 06 	lds	r24, 0x06C4
    3312:	df 91       	pop	r29
    3314:	cf 91       	pop	r28
    3316:	1f 91       	pop	r17
    3318:	08 95       	ret

0000331a <_Socket2_beginPacket>:
    331a:	ab 01       	movw	r20, r22
    331c:	10 92 6b 0b 	sts	0x0B6B, r1
    3320:	10 92 6a 0b 	sts	0x0B6A, r1
    3324:	bc 01       	movw	r22, r24
    3326:	82 e0       	ldi	r24, 0x02	; 2
    3328:	02 cf       	rjmp	.-508    	; 0x312e <startUDP>
    332a:	08 95       	ret

0000332c <_Socket2_write>:
    332c:	9b 01       	movw	r18, r22
    332e:	60 91 6a 0b 	lds	r22, 0x0B6A
    3332:	70 91 6b 0b 	lds	r23, 0x0B6B
    3336:	ac 01       	movw	r20, r24
    3338:	82 e0       	ldi	r24, 0x02	; 2
    333a:	0e 94 5f 06 	call	0xcbe	; 0xcbe <bufferData>
    333e:	20 91 6a 0b 	lds	r18, 0x0B6A
    3342:	30 91 6b 0b 	lds	r19, 0x0B6B
    3346:	28 0f       	add	r18, r24
    3348:	39 1f       	adc	r19, r25
    334a:	30 93 6b 0b 	sts	0x0B6B, r19
    334e:	20 93 6a 0b 	sts	0x0B6A, r18
    3352:	08 95       	ret

00003354 <read_data>:
    3354:	af 92       	push	r10
    3356:	bf 92       	push	r11
    3358:	cf 92       	push	r12
    335a:	df 92       	push	r13
    335c:	ef 92       	push	r14
    335e:	ff 92       	push	r15
    3360:	0f 93       	push	r16
    3362:	1f 93       	push	r17
    3364:	cf 93       	push	r28
    3366:	df 93       	push	r29
    3368:	1f 92       	push	r1
    336a:	1f 92       	push	r1
    336c:	cd b7       	in	r28, 0x3d	; 61
    336e:	de b7       	in	r29, 0x3e	; 62
    3370:	7a 83       	std	Y+2, r23	; 0x02
    3372:	69 83       	std	Y+1, r22	; 0x01
    3374:	7a 01       	movw	r14, r20
    3376:	89 01       	movw	r16, r18
    3378:	e9 81       	ldd	r30, Y+1	; 0x01
    337a:	fa 81       	ldd	r31, Y+2	; 0x02
    337c:	f7 70       	andi	r31, 0x07	; 7
    337e:	c8 2e       	mov	r12, r24
    3380:	d1 2c       	mov	r13, r1
    3382:	d6 01       	movw	r26, r12
    3384:	aa 0f       	add	r26, r26
    3386:	bb 1f       	adc	r27, r27
    3388:	a2 54       	subi	r26, 0x42	; 66
    338a:	b6 4f       	sbci	r27, 0xF6	; 246
    338c:	8d 91       	ld	r24, X+
    338e:	9c 91       	ld	r25, X
    3390:	8e 0f       	add	r24, r30
    3392:	9f 1f       	adc	r25, r31
    3394:	2e 0f       	add	r18, r30
    3396:	3f 1f       	adc	r19, r31
    3398:	21 30       	cpi	r18, 0x01	; 1
    339a:	38 40       	sbci	r19, 0x08	; 8
    339c:	c8 f0       	brcs	.+50     	; 0x33d0 <read_data+0x7c>
    339e:	20 e0       	ldi	r18, 0x00	; 0
    33a0:	38 e0       	ldi	r19, 0x08	; 8
    33a2:	59 01       	movw	r10, r18
    33a4:	ae 1a       	sub	r10, r30
    33a6:	bf 0a       	sbc	r11, r31
    33a8:	a5 01       	movw	r20, r10
    33aa:	b7 01       	movw	r22, r14
    33ac:	0e 94 40 03 	call	0x680	; 0x680 <W5100readBlock>
    33b0:	a8 01       	movw	r20, r16
    33b2:	4a 19       	sub	r20, r10
    33b4:	5b 09       	sbc	r21, r11
    33b6:	b7 01       	movw	r22, r14
    33b8:	6a 0d       	add	r22, r10
    33ba:	7b 1d       	adc	r23, r11
    33bc:	f6 01       	movw	r30, r12
    33be:	ee 0f       	add	r30, r30
    33c0:	ff 1f       	adc	r31, r31
    33c2:	e2 54       	subi	r30, 0x42	; 66
    33c4:	f6 4f       	sbci	r31, 0xF6	; 246
    33c6:	80 81       	ld	r24, Z
    33c8:	91 81       	ldd	r25, Z+1	; 0x01
    33ca:	0e 94 40 03 	call	0x680	; 0x680 <W5100readBlock>
    33ce:	04 c0       	rjmp	.+8      	; 0x33d8 <read_data+0x84>
    33d0:	a8 01       	movw	r20, r16
    33d2:	b7 01       	movw	r22, r14
    33d4:	0e 94 40 03 	call	0x680	; 0x680 <W5100readBlock>
    33d8:	0f 90       	pop	r0
    33da:	0f 90       	pop	r0
    33dc:	df 91       	pop	r29
    33de:	cf 91       	pop	r28
    33e0:	1f 91       	pop	r17
    33e2:	0f 91       	pop	r16
    33e4:	ff 90       	pop	r15
    33e6:	ef 90       	pop	r14
    33e8:	df 90       	pop	r13
    33ea:	cf 90       	pop	r12
    33ec:	bf 90       	pop	r11
    33ee:	af 90       	pop	r10
    33f0:	08 95       	ret

000033f2 <W5100_recv_data_processing>:
    33f2:	df 92       	push	r13
    33f4:	ef 92       	push	r14
    33f6:	ff 92       	push	r15
    33f8:	0f 93       	push	r16
    33fa:	1f 93       	push	r17
    33fc:	cf 93       	push	r28
    33fe:	df 93       	push	r29
    3400:	d8 2e       	mov	r13, r24
    3402:	7b 01       	movw	r14, r22
    3404:	8a 01       	movw	r16, r20
    3406:	68 e2       	ldi	r22, 0x28	; 40
    3408:	70 e0       	ldi	r23, 0x00	; 0
    340a:	0e 94 d2 04 	call	0x9a4	; 0x9a4 <readSn>
    340e:	c8 2f       	mov	r28, r24
    3410:	d0 e0       	ldi	r29, 0x00	; 0
    3412:	69 e2       	ldi	r22, 0x29	; 41
    3414:	70 e0       	ldi	r23, 0x00	; 0
    3416:	8d 2d       	mov	r24, r13
    3418:	0e 94 d2 04 	call	0x9a4	; 0x9a4 <readSn>
    341c:	dc 2f       	mov	r29, r28
    341e:	cc 27       	eor	r28, r28
    3420:	c8 2b       	or	r28, r24
    3422:	98 01       	movw	r18, r16
    3424:	a7 01       	movw	r20, r14
    3426:	be 01       	movw	r22, r28
    3428:	8d 2d       	mov	r24, r13
    342a:	94 df       	rcall	.-216    	; 0x3354 <read_data>
    342c:	c0 0f       	add	r28, r16
    342e:	d1 1f       	adc	r29, r17
    3430:	4d 2f       	mov	r20, r29
    3432:	68 e2       	ldi	r22, 0x28	; 40
    3434:	70 e0       	ldi	r23, 0x00	; 0
    3436:	8d 2d       	mov	r24, r13
    3438:	0e 94 06 05 	call	0xa0c	; 0xa0c <writeSn>
    343c:	4c 2f       	mov	r20, r28
    343e:	69 e2       	ldi	r22, 0x29	; 41
    3440:	70 e0       	ldi	r23, 0x00	; 0
    3442:	8d 2d       	mov	r24, r13
    3444:	0e 94 06 05 	call	0xa0c	; 0xa0c <writeSn>
    3448:	df 91       	pop	r29
    344a:	cf 91       	pop	r28
    344c:	1f 91       	pop	r17
    344e:	0f 91       	pop	r16
    3450:	ff 90       	pop	r15
    3452:	ef 90       	pop	r14
    3454:	df 90       	pop	r13
    3456:	08 95       	ret

00003458 <W5100_getRXReceivedSize>:
    3458:	df 92       	push	r13
    345a:	ef 92       	push	r14
    345c:	ff 92       	push	r15
    345e:	0f 93       	push	r16
    3460:	1f 93       	push	r17
    3462:	cf 93       	push	r28
    3464:	df 93       	push	r29
    3466:	d8 2e       	mov	r13, r24
    3468:	0f ef       	ldi	r16, 0xFF	; 255
    346a:	1f ef       	ldi	r17, 0xFF	; 255
    346c:	e1 2c       	mov	r14, r1
    346e:	f1 2c       	mov	r15, r1
    3470:	8d 2d       	mov	r24, r13
    3472:	0e 94 f0 04 	call	0x9e0	; 0x9e0 <readSnRX_RSR>
    3476:	ec 01       	movw	r28, r24
    3478:	00 97       	sbiw	r24, 0x00	; 0
    347a:	21 f0       	breq	.+8      	; 0x3484 <W5100_getRXReceivedSize+0x2c>
    347c:	8d 2d       	mov	r24, r13
    347e:	0e 94 f0 04 	call	0x9e0	; 0x9e0 <readSnRX_RSR>
    3482:	7c 01       	movw	r14, r24
    3484:	ec 16       	cp	r14, r28
    3486:	fd 06       	cpc	r15, r29
    3488:	29 f0       	breq	.+10     	; 0x3494 <W5100_getRXReceivedSize+0x3c>
    348a:	01 50       	subi	r16, 0x01	; 1
    348c:	11 09       	sbc	r17, r1
    348e:	01 15       	cp	r16, r1
    3490:	11 05       	cpc	r17, r1
    3492:	71 f7       	brne	.-36     	; 0x3470 <W5100_getRXReceivedSize+0x18>
    3494:	c7 01       	movw	r24, r14
    3496:	df 91       	pop	r29
    3498:	cf 91       	pop	r28
    349a:	1f 91       	pop	r17
    349c:	0f 91       	pop	r16
    349e:	ff 90       	pop	r15
    34a0:	ef 90       	pop	r14
    34a2:	df 90       	pop	r13
    34a4:	08 95       	ret

000034a6 <recv>:
    34a6:	df 92       	push	r13
    34a8:	ef 92       	push	r14
    34aa:	ff 92       	push	r15
    34ac:	0f 93       	push	r16
    34ae:	1f 93       	push	r17
    34b0:	cf 93       	push	r28
    34b2:	df 93       	push	r29
    34b4:	d8 2e       	mov	r13, r24
    34b6:	7b 01       	movw	r14, r22
    34b8:	8a 01       	movw	r16, r20
    34ba:	ce df       	rcall	.-100    	; 0x3458 <W5100_getRXReceivedSize>
    34bc:	ec 01       	movw	r28, r24
    34be:	00 97       	sbiw	r24, 0x00	; 0
    34c0:	99 f4       	brne	.+38     	; 0x34e8 <recv+0x42>
    34c2:	63 e0       	ldi	r22, 0x03	; 3
    34c4:	70 e0       	ldi	r23, 0x00	; 0
    34c6:	8d 2d       	mov	r24, r13
    34c8:	0e 94 d2 04 	call	0x9a4	; 0x9a4 <readSn>
    34cc:	84 31       	cpi	r24, 0x14	; 20
    34ce:	d9 f0       	breq	.+54     	; 0x3506 <recv+0x60>
    34d0:	88 23       	and	r24, r24
    34d2:	c9 f0       	breq	.+50     	; 0x3506 <recv+0x60>
    34d4:	c1 e0       	ldi	r28, 0x01	; 1
    34d6:	d0 e0       	ldi	r29, 0x00	; 0
    34d8:	8c 31       	cpi	r24, 0x1C	; 28
    34da:	11 f4       	brne	.+4      	; 0x34e0 <recv+0x3a>
    34dc:	c0 e0       	ldi	r28, 0x00	; 0
    34de:	d0 e0       	ldi	r29, 0x00	; 0
    34e0:	d1 95       	neg	r29
    34e2:	c1 95       	neg	r28
    34e4:	d1 09       	sbc	r29, r1
    34e6:	04 c0       	rjmp	.+8      	; 0x34f0 <recv+0x4a>
    34e8:	08 17       	cp	r16, r24
    34ea:	19 07       	cpc	r17, r25
    34ec:	0c f4       	brge	.+2      	; 0x34f0 <recv+0x4a>
    34ee:	e8 01       	movw	r28, r16
    34f0:	1c 16       	cp	r1, r28
    34f2:	1d 06       	cpc	r1, r29
    34f4:	44 f4       	brge	.+16     	; 0x3506 <recv+0x60>
    34f6:	ae 01       	movw	r20, r28
    34f8:	b7 01       	movw	r22, r14
    34fa:	8d 2d       	mov	r24, r13
    34fc:	7a df       	rcall	.-268    	; 0x33f2 <W5100_recv_data_processing>
    34fe:	60 e4       	ldi	r22, 0x40	; 64
    3500:	8d 2d       	mov	r24, r13
    3502:	0e 94 42 04 	call	0x884	; 0x884 <execCmdSn>
    3506:	ce 01       	movw	r24, r28
    3508:	df 91       	pop	r29
    350a:	cf 91       	pop	r28
    350c:	1f 91       	pop	r17
    350e:	0f 91       	pop	r16
    3510:	ff 90       	pop	r15
    3512:	ef 90       	pop	r14
    3514:	df 90       	pop	r13
    3516:	08 95       	ret

00003518 <UDP_read>:
    3518:	0f 93       	push	r16
    351a:	1f 93       	push	r17
    351c:	cf 93       	push	r28
    351e:	df 93       	push	r29
    3520:	1f 92       	push	r1
    3522:	cd b7       	in	r28, 0x3d	; 61
    3524:	de b7       	in	r29, 0x3e	; 62
    3526:	08 2f       	mov	r16, r24
    3528:	10 e0       	ldi	r17, 0x00	; 0
    352a:	f8 01       	movw	r30, r16
    352c:	ee 0f       	add	r30, r30
    352e:	ff 1f       	adc	r31, r31
    3530:	e8 5f       	subi	r30, 0xF8	; 248
    3532:	f5 4f       	sbci	r31, 0xF5	; 245
    3534:	20 81       	ld	r18, Z
    3536:	31 81       	ldd	r19, Z+1	; 0x01
    3538:	23 2b       	or	r18, r19
    353a:	b1 f0       	breq	.+44     	; 0x3568 <UDP_read+0x50>
    353c:	41 e0       	ldi	r20, 0x01	; 1
    353e:	50 e0       	ldi	r21, 0x00	; 0
    3540:	be 01       	movw	r22, r28
    3542:	6f 5f       	subi	r22, 0xFF	; 255
    3544:	7f 4f       	sbci	r23, 0xFF	; 255
    3546:	af df       	rcall	.-162    	; 0x34a6 <recv>
    3548:	18 16       	cp	r1, r24
    354a:	19 06       	cpc	r1, r25
    354c:	84 f4       	brge	.+32     	; 0x356e <UDP_read+0x56>
    354e:	f8 01       	movw	r30, r16
    3550:	ee 0f       	add	r30, r30
    3552:	ff 1f       	adc	r31, r31
    3554:	e8 5f       	subi	r30, 0xF8	; 248
    3556:	f5 4f       	sbci	r31, 0xF5	; 245
    3558:	80 81       	ld	r24, Z
    355a:	91 81       	ldd	r25, Z+1	; 0x01
    355c:	01 97       	sbiw	r24, 0x01	; 1
    355e:	91 83       	std	Z+1, r25	; 0x01
    3560:	80 83       	st	Z, r24
    3562:	89 81       	ldd	r24, Y+1	; 0x01
    3564:	90 e0       	ldi	r25, 0x00	; 0
    3566:	05 c0       	rjmp	.+10     	; 0x3572 <UDP_read+0x5a>
    3568:	8f ef       	ldi	r24, 0xFF	; 255
    356a:	9f ef       	ldi	r25, 0xFF	; 255
    356c:	02 c0       	rjmp	.+4      	; 0x3572 <UDP_read+0x5a>
    356e:	8f ef       	ldi	r24, 0xFF	; 255
    3570:	9f ef       	ldi	r25, 0xFF	; 255
    3572:	0f 90       	pop	r0
    3574:	df 91       	pop	r29
    3576:	cf 91       	pop	r28
    3578:	1f 91       	pop	r17
    357a:	0f 91       	pop	r16
    357c:	08 95       	ret

0000357e <UDP_parsePacket>:
    357e:	df 92       	push	r13
    3580:	ef 92       	push	r14
    3582:	ff 92       	push	r15
    3584:	0f 93       	push	r16
    3586:	1f 93       	push	r17
    3588:	cf 93       	push	r28
    358a:	df 93       	push	r29
    358c:	cd b7       	in	r28, 0x3d	; 61
    358e:	de b7       	in	r29, 0x3e	; 62
    3590:	28 97       	sbiw	r28, 0x08	; 8
    3592:	0f b6       	in	r0, 0x3f	; 63
    3594:	f8 94       	cli
    3596:	de bf       	out	0x3e, r29	; 62
    3598:	0f be       	out	0x3f, r0	; 63
    359a:	cd bf       	out	0x3d, r28	; 61
    359c:	d8 2e       	mov	r13, r24
    359e:	e8 2e       	mov	r14, r24
    35a0:	f1 2c       	mov	r15, r1
    35a2:	f7 01       	movw	r30, r14
    35a4:	ee 0f       	add	r30, r30
    35a6:	ff 1f       	adc	r31, r31
    35a8:	e8 5f       	subi	r30, 0xF8	; 248
    35aa:	f5 4f       	sbci	r31, 0xF5	; 245
    35ac:	20 81       	ld	r18, Z
    35ae:	31 81       	ldd	r19, Z+1	; 0x01
    35b0:	23 2b       	or	r18, r19
    35b2:	41 f0       	breq	.+16     	; 0x35c4 <UDP_parsePacket+0x46>
    35b4:	8f 01       	movw	r16, r30
    35b6:	8d 2d       	mov	r24, r13
    35b8:	af df       	rcall	.-162    	; 0x3518 <UDP_read>
    35ba:	f8 01       	movw	r30, r16
    35bc:	20 81       	ld	r18, Z
    35be:	31 81       	ldd	r19, Z+1	; 0x01
    35c0:	23 2b       	or	r18, r19
    35c2:	c9 f7       	brne	.-14     	; 0x35b6 <UDP_parsePacket+0x38>
    35c4:	8d 2d       	mov	r24, r13
    35c6:	48 df       	rcall	.-368    	; 0x3458 <W5100_getRXReceivedSize>
    35c8:	18 16       	cp	r1, r24
    35ca:	19 06       	cpc	r1, r25
    35cc:	ac f5       	brge	.+106    	; 0x3638 <UDP_parsePacket+0xba>
    35ce:	48 e0       	ldi	r20, 0x08	; 8
    35d0:	50 e0       	ldi	r21, 0x00	; 0
    35d2:	be 01       	movw	r22, r28
    35d4:	6f 5f       	subi	r22, 0xFF	; 255
    35d6:	7f 4f       	sbci	r23, 0xFF	; 255
    35d8:	8d 2d       	mov	r24, r13
    35da:	65 df       	rcall	.-310    	; 0x34a6 <recv>
    35dc:	9c 01       	movw	r18, r24
    35de:	18 16       	cp	r1, r24
    35e0:	19 06       	cpc	r1, r25
    35e2:	3c f5       	brge	.+78     	; 0x3632 <UDP_parsePacket+0xb4>
    35e4:	89 81       	ldd	r24, Y+1	; 0x01
    35e6:	80 93 6c 12 	sts	0x126C, r24
    35ea:	8a 81       	ldd	r24, Y+2	; 0x02
    35ec:	80 93 6d 12 	sts	0x126D, r24
    35f0:	8b 81       	ldd	r24, Y+3	; 0x03
    35f2:	80 93 6e 12 	sts	0x126E, r24
    35f6:	8c 81       	ldd	r24, Y+4	; 0x04
    35f8:	80 93 6f 12 	sts	0x126F, r24
    35fc:	c7 01       	movw	r24, r14
    35fe:	88 0f       	add	r24, r24
    3600:	99 1f       	adc	r25, r25
    3602:	fc 01       	movw	r30, r24
    3604:	ec 59       	subi	r30, 0x9C	; 156
    3606:	fd 4e       	sbci	r31, 0xED	; 237
    3608:	2d 81       	ldd	r18, Y+5	; 0x05
    360a:	30 e0       	ldi	r19, 0x00	; 0
    360c:	32 2f       	mov	r19, r18
    360e:	22 27       	eor	r18, r18
    3610:	4e 81       	ldd	r20, Y+6	; 0x06
    3612:	24 0f       	add	r18, r20
    3614:	31 1d       	adc	r19, r1
    3616:	31 83       	std	Z+1, r19	; 0x01
    3618:	20 83       	st	Z, r18
    361a:	2f 81       	ldd	r18, Y+7	; 0x07
    361c:	30 e0       	ldi	r19, 0x00	; 0
    361e:	32 2f       	mov	r19, r18
    3620:	22 27       	eor	r18, r18
    3622:	48 85       	ldd	r20, Y+8	; 0x08
    3624:	24 0f       	add	r18, r20
    3626:	31 1d       	adc	r19, r1
    3628:	fc 01       	movw	r30, r24
    362a:	e8 5f       	subi	r30, 0xF8	; 248
    362c:	f5 4f       	sbci	r31, 0xF5	; 245
    362e:	31 83       	std	Z+1, r19	; 0x01
    3630:	20 83       	st	Z, r18
    3632:	82 2f       	mov	r24, r18
    3634:	93 2f       	mov	r25, r19
    3636:	02 c0       	rjmp	.+4      	; 0x363c <UDP_parsePacket+0xbe>
    3638:	80 e0       	ldi	r24, 0x00	; 0
    363a:	90 e0       	ldi	r25, 0x00	; 0
    363c:	28 96       	adiw	r28, 0x08	; 8
    363e:	0f b6       	in	r0, 0x3f	; 63
    3640:	f8 94       	cli
    3642:	de bf       	out	0x3e, r29	; 62
    3644:	0f be       	out	0x3f, r0	; 63
    3646:	cd bf       	out	0x3d, r28	; 61
    3648:	df 91       	pop	r29
    364a:	cf 91       	pop	r28
    364c:	1f 91       	pop	r17
    364e:	0f 91       	pop	r16
    3650:	ff 90       	pop	r15
    3652:	ef 90       	pop	r14
    3654:	df 90       	pop	r13
    3656:	08 95       	ret

00003658 <_UDPtoSerialSocket_parsePacket>:
    3658:	81 e0       	ldi	r24, 0x01	; 1
    365a:	91 cf       	rjmp	.-222    	; 0x357e <UDP_parsePacket>
    365c:	08 95       	ret

0000365e <_SNMPSocket_read>:
    365e:	40 91 0a 0a 	lds	r20, 0x0A0A
    3662:	50 91 0b 0a 	lds	r21, 0x0A0B
    3666:	41 15       	cp	r20, r1
    3668:	51 05       	cpc	r21, r1
    366a:	d9 f0       	breq	.+54     	; 0x36a2 <_SNMPSocket_read+0x44>
    366c:	64 17       	cp	r22, r20
    366e:	75 07       	cpc	r23, r21
    3670:	28 f0       	brcs	.+10     	; 0x367c <_SNMPSocket_read+0x1e>
    3672:	bc 01       	movw	r22, r24
    3674:	81 e0       	ldi	r24, 0x01	; 1
    3676:	17 df       	rcall	.-466    	; 0x34a6 <recv>
    3678:	9c 01       	movw	r18, r24
    367a:	05 c0       	rjmp	.+10     	; 0x3686 <_SNMPSocket_read+0x28>
    367c:	ab 01       	movw	r20, r22
    367e:	bc 01       	movw	r22, r24
    3680:	81 e0       	ldi	r24, 0x01	; 1
    3682:	11 df       	rcall	.-478    	; 0x34a6 <recv>
    3684:	9c 01       	movw	r18, r24
    3686:	12 16       	cp	r1, r18
    3688:	13 06       	cpc	r1, r19
    368a:	74 f4       	brge	.+28     	; 0x36a8 <_SNMPSocket_read+0x4a>
    368c:	ea e0       	ldi	r30, 0x0A	; 10
    368e:	fa e0       	ldi	r31, 0x0A	; 10
    3690:	80 81       	ld	r24, Z
    3692:	91 81       	ldd	r25, Z+1	; 0x01
    3694:	82 1b       	sub	r24, r18
    3696:	93 0b       	sbc	r25, r19
    3698:	91 83       	std	Z+1, r25	; 0x01
    369a:	80 83       	st	Z, r24
    369c:	82 2f       	mov	r24, r18
    369e:	93 2f       	mov	r25, r19
    36a0:	08 95       	ret
    36a2:	8f ef       	ldi	r24, 0xFF	; 255
    36a4:	9f ef       	ldi	r25, 0xFF	; 255
    36a6:	08 95       	ret
    36a8:	8f ef       	ldi	r24, 0xFF	; 255
    36aa:	9f ef       	ldi	r25, 0xFF	; 255
    36ac:	08 95       	ret

000036ae <resetTEST>:
    36ae:	80 91 d1 06 	lds	r24, 0x06D1
    36b2:	90 91 d2 06 	lds	r25, 0x06D2
    36b6:	a0 91 d3 06 	lds	r26, 0x06D3
    36ba:	b0 91 d4 06 	lds	r27, 0x06D4
    36be:	01 96       	adiw	r24, 0x01	; 1
    36c0:	a1 1d       	adc	r26, r1
    36c2:	b1 1d       	adc	r27, r1
    36c4:	80 93 d1 06 	sts	0x06D1, r24
    36c8:	90 93 d2 06 	sts	0x06D2, r25
    36cc:	a0 93 d3 06 	sts	0x06D3, r26
    36d0:	b0 93 d4 06 	sts	0x06D4, r27
    36d4:	80 e0       	ldi	r24, 0x00	; 0
    36d6:	a3 c0       	rjmp	.+326    	; 0x381e <TEST_Automat>
    36d8:	08 95       	ret

000036da <_Socket2_endPacket_Automat>:
    36da:	cf 93       	push	r28
    36dc:	c0 91 c3 06 	lds	r28, 0x06C3
    36e0:	81 11       	cpse	r24, r1
    36e2:	03 c0       	rjmp	.+6      	; 0x36ea <_Socket2_endPacket_Automat+0x10>
    36e4:	10 92 c3 06 	sts	0x06C3, r1
    36e8:	06 c0       	rjmp	.+12     	; 0x36f6 <_Socket2_endPacket_Automat+0x1c>
    36ea:	c1 30       	cpi	r28, 0x01	; 1
    36ec:	99 f0       	breq	.+38     	; 0x3714 <_Socket2_endPacket_Automat+0x3a>
    36ee:	18 f0       	brcs	.+6      	; 0x36f6 <_Socket2_endPacket_Automat+0x1c>
    36f0:	c2 30       	cpi	r28, 0x02	; 2
    36f2:	01 f1       	breq	.+64     	; 0x3734 <_Socket2_endPacket_Automat+0x5a>
    36f4:	49 c0       	rjmp	.+146    	; 0x3788 <_Socket2_endPacket_Automat+0xae>
    36f6:	80 91 c2 06 	lds	r24, 0x06C2
    36fa:	81 11       	cpse	r24, r1
    36fc:	04 c0       	rjmp	.+8      	; 0x3706 <_Socket2_endPacket_Automat+0x2c>
    36fe:	0e 94 9c 06 	call	0xd38	; 0xd38 <Timer16Alloc>
    3702:	80 93 c2 06 	sts	0x06C2, r24
    3706:	81 e0       	ldi	r24, 0x01	; 1
    3708:	80 93 c3 06 	sts	0x06C3, r24
    370c:	c1 30       	cpi	r28, 0x01	; 1
    370e:	09 f0       	breq	.+2      	; 0x3712 <_Socket2_endPacket_Automat+0x38>
    3710:	41 c0       	rjmp	.+130    	; 0x3794 <_Socket2_endPacket_Automat+0xba>
    3712:	44 c0       	rjmp	.+136    	; 0x379c <_Socket2_endPacket_Automat+0xc2>
    3714:	60 e2       	ldi	r22, 0x20	; 32
    3716:	81 e0       	ldi	r24, 0x01	; 1
    3718:	0e 94 41 05 	call	0xa82	; 0xa82 <execCmdS2_Automat>
    371c:	8f 3f       	cpi	r24, 0xFF	; 255
    371e:	a1 f5       	brne	.+104    	; 0x3788 <_Socket2_endPacket_Automat+0xae>
    3720:	68 ee       	ldi	r22, 0xE8	; 232
    3722:	73 e0       	ldi	r23, 0x03	; 3
    3724:	80 91 c2 06 	lds	r24, 0x06C2
    3728:	0e 94 e2 06 	call	0xdc4	; 0xdc4 <StartTimer16>
    372c:	82 e0       	ldi	r24, 0x02	; 2
    372e:	80 93 c3 06 	sts	0x06C3, r24
    3732:	34 c0       	rjmp	.+104    	; 0x379c <_Socket2_endPacket_Automat+0xc2>
    3734:	62 e0       	ldi	r22, 0x02	; 2
    3736:	70 e0       	ldi	r23, 0x00	; 0
    3738:	82 e0       	ldi	r24, 0x02	; 2
    373a:	0e 94 d2 04 	call	0x9a4	; 0x9a4 <readSn>
    373e:	84 fd       	sbrc	r24, 4
    3740:	19 c0       	rjmp	.+50     	; 0x3774 <_Socket2_endPacket_Automat+0x9a>
    3742:	62 e0       	ldi	r22, 0x02	; 2
    3744:	70 e0       	ldi	r23, 0x00	; 0
    3746:	82 e0       	ldi	r24, 0x02	; 2
    3748:	0e 94 d2 04 	call	0x9a4	; 0x9a4 <readSn>
    374c:	83 ff       	sbrs	r24, 3
    374e:	07 c0       	rjmp	.+14     	; 0x375e <_Socket2_endPacket_Automat+0x84>
    3750:	48 e1       	ldi	r20, 0x18	; 24
    3752:	62 e0       	ldi	r22, 0x02	; 2
    3754:	70 e0       	ldi	r23, 0x00	; 0
    3756:	82 e0       	ldi	r24, 0x02	; 2
    3758:	0e 94 06 05 	call	0xa0c	; 0xa0c <writeSn>
    375c:	15 c0       	rjmp	.+42     	; 0x3788 <_Socket2_endPacket_Automat+0xae>
    375e:	80 91 c2 06 	lds	r24, 0x06C2
    3762:	0e 94 8e 08 	call	0x111c	; 0x111c <Timer16Stopp>
    3766:	88 23       	and	r24, r24
    3768:	79 f0       	breq	.+30     	; 0x3788 <_Socket2_endPacket_Automat+0xae>
    376a:	a1 df       	rcall	.-190    	; 0x36ae <resetTEST>
    376c:	8f ef       	ldi	r24, 0xFF	; 255
    376e:	80 93 c3 06 	sts	0x06C3, r24
    3772:	14 c0       	rjmp	.+40     	; 0x379c <_Socket2_endPacket_Automat+0xc2>
    3774:	40 e1       	ldi	r20, 0x10	; 16
    3776:	62 e0       	ldi	r22, 0x02	; 2
    3778:	70 e0       	ldi	r23, 0x00	; 0
    377a:	82 e0       	ldi	r24, 0x02	; 2
    377c:	0e 94 06 05 	call	0xa0c	; 0xa0c <writeSn>
    3780:	8f ef       	ldi	r24, 0xFF	; 255
    3782:	80 93 c3 06 	sts	0x06C3, r24
    3786:	0a c0       	rjmp	.+20     	; 0x379c <_Socket2_endPacket_Automat+0xc2>
    3788:	80 91 c3 06 	lds	r24, 0x06C3
    378c:	8c 17       	cp	r24, r28
    378e:	31 f0       	breq	.+12     	; 0x379c <_Socket2_endPacket_Automat+0xc2>
    3790:	81 30       	cpi	r24, 0x01	; 1
    3792:	21 f4       	brne	.+8      	; 0x379c <_Socket2_endPacket_Automat+0xc2>
    3794:	60 e2       	ldi	r22, 0x20	; 32
    3796:	80 e0       	ldi	r24, 0x00	; 0
    3798:	0e 94 41 05 	call	0xa82	; 0xa82 <execCmdS2_Automat>
    379c:	80 91 c3 06 	lds	r24, 0x06C3
    37a0:	cf 91       	pop	r28
    37a2:	08 95       	ret

000037a4 <Socket2_sendmessage_Automat>:
    37a4:	bf 92       	push	r11
    37a6:	cf 92       	push	r12
    37a8:	df 92       	push	r13
    37aa:	ef 92       	push	r14
    37ac:	ff 92       	push	r15
    37ae:	0f 93       	push	r16
    37b0:	1f 93       	push	r17
    37b2:	cf 93       	push	r28
    37b4:	df 93       	push	r29
    37b6:	7b 01       	movw	r14, r22
    37b8:	6a 01       	movw	r12, r20
    37ba:	e9 01       	movw	r28, r18
    37bc:	b0 90 c1 06 	lds	r11, 0x06C1
    37c0:	88 23       	and	r24, r24
    37c2:	31 f0       	breq	.+12     	; 0x37d0 <Socket2_sendmessage_Automat+0x2c>
    37c4:	bb 20       	and	r11, r11
    37c6:	21 f0       	breq	.+8      	; 0x37d0 <Socket2_sendmessage_Automat+0x2c>
    37c8:	81 e0       	ldi	r24, 0x01	; 1
    37ca:	b8 16       	cp	r11, r24
    37cc:	39 f0       	breq	.+14     	; 0x37dc <Socket2_sendmessage_Automat+0x38>
    37ce:	0d c0       	rjmp	.+26     	; 0x37ea <Socket2_sendmessage_Automat+0x46>
    37d0:	81 e0       	ldi	r24, 0x01	; 1
    37d2:	80 93 c1 06 	sts	0x06C1, r24
    37d6:	b8 12       	cpse	r11, r24
    37d8:	0e c0       	rjmp	.+28     	; 0x37f6 <Socket2_sendmessage_Automat+0x52>
    37da:	15 c0       	rjmp	.+42     	; 0x3806 <Socket2_sendmessage_Automat+0x62>
    37dc:	81 e0       	ldi	r24, 0x01	; 1
    37de:	7d df       	rcall	.-262    	; 0x36da <_Socket2_endPacket_Automat>
    37e0:	8f 3f       	cpi	r24, 0xFF	; 255
    37e2:	19 f4       	brne	.+6      	; 0x37ea <Socket2_sendmessage_Automat+0x46>
    37e4:	80 93 c1 06 	sts	0x06C1, r24
    37e8:	0e c0       	rjmp	.+28     	; 0x3806 <Socket2_sendmessage_Automat+0x62>
    37ea:	80 91 c1 06 	lds	r24, 0x06C1
    37ee:	8b 15       	cp	r24, r11
    37f0:	51 f0       	breq	.+20     	; 0x3806 <Socket2_sendmessage_Automat+0x62>
    37f2:	81 30       	cpi	r24, 0x01	; 1
    37f4:	41 f4       	brne	.+16     	; 0x3806 <Socket2_sendmessage_Automat+0x62>
    37f6:	b6 01       	movw	r22, r12
    37f8:	c7 01       	movw	r24, r14
    37fa:	8f dd       	rcall	.-1250   	; 0x331a <_Socket2_beginPacket>
    37fc:	b8 01       	movw	r22, r16
    37fe:	ce 01       	movw	r24, r28
    3800:	95 dd       	rcall	.-1238   	; 0x332c <_Socket2_write>
    3802:	80 e0       	ldi	r24, 0x00	; 0
    3804:	6a df       	rcall	.-300    	; 0x36da <_Socket2_endPacket_Automat>
    3806:	80 91 c1 06 	lds	r24, 0x06C1
    380a:	df 91       	pop	r29
    380c:	cf 91       	pop	r28
    380e:	1f 91       	pop	r17
    3810:	0f 91       	pop	r16
    3812:	ff 90       	pop	r15
    3814:	ef 90       	pop	r14
    3816:	df 90       	pop	r13
    3818:	cf 90       	pop	r12
    381a:	bf 90       	pop	r11
    381c:	08 95       	ret

0000381e <TEST_Automat>:
    381e:	0f 93       	push	r16
    3820:	1f 93       	push	r17
    3822:	cf 93       	push	r28
    3824:	c0 91 c0 06 	lds	r28, 0x06C0
    3828:	81 11       	cpse	r24, r1
    382a:	03 c0       	rjmp	.+6      	; 0x3832 <TEST_Automat+0x14>
    382c:	10 92 c0 06 	sts	0x06C0, r1
    3830:	08 c0       	rjmp	.+16     	; 0x3842 <TEST_Automat+0x24>
    3832:	c1 30       	cpi	r28, 0x01	; 1
    3834:	a9 f0       	breq	.+42     	; 0x3860 <TEST_Automat+0x42>
    3836:	28 f0       	brcs	.+10     	; 0x3842 <TEST_Automat+0x24>
    3838:	c2 30       	cpi	r28, 0x02	; 2
    383a:	11 f1       	breq	.+68     	; 0x3880 <TEST_Automat+0x62>
    383c:	c4 30       	cpi	r28, 0x04	; 4
    383e:	51 f1       	breq	.+84     	; 0x3894 <TEST_Automat+0x76>
    3840:	4b c0       	rjmp	.+150    	; 0x38d8 <TEST_Automat+0xba>
    3842:	80 91 bf 06 	lds	r24, 0x06BF
    3846:	81 11       	cpse	r24, r1
    3848:	04 c0       	rjmp	.+8      	; 0x3852 <TEST_Automat+0x34>
    384a:	0e 94 9c 06 	call	0xd38	; 0xd38 <Timer16Alloc>
    384e:	80 93 bf 06 	sts	0x06BF, r24
    3852:	81 e0       	ldi	r24, 0x01	; 1
    3854:	80 93 c0 06 	sts	0x06C0, r24
    3858:	c1 30       	cpi	r28, 0x01	; 1
    385a:	09 f0       	breq	.+2      	; 0x385e <TEST_Automat+0x40>
    385c:	47 c0       	rjmp	.+142    	; 0x38ec <TEST_Automat+0xce>
    385e:	f1 c0       	rjmp	.+482    	; 0x3a42 <TEST_Automat+0x224>
    3860:	69 ee       	ldi	r22, 0xE9	; 233
    3862:	77 e0       	ldi	r23, 0x07	; 7
    3864:	81 e0       	ldi	r24, 0x01	; 1
    3866:	05 dd       	rcall	.-1526   	; 0x3272 <UDPbegin2_Automat>
    3868:	8f 3f       	cpi	r24, 0xFF	; 255
    386a:	b1 f5       	brne	.+108    	; 0x38d8 <TEST_Automat+0xba>
    386c:	68 ee       	ldi	r22, 0xE8	; 232
    386e:	73 e0       	ldi	r23, 0x03	; 3
    3870:	80 91 bf 06 	lds	r24, 0x06BF
    3874:	0e 94 e2 06 	call	0xdc4	; 0xdc4 <StartTimer16>
    3878:	82 e0       	ldi	r24, 0x02	; 2
    387a:	80 93 c0 06 	sts	0x06C0, r24
    387e:	e1 c0       	rjmp	.+450    	; 0x3a42 <TEST_Automat+0x224>
    3880:	80 91 bf 06 	lds	r24, 0x06BF
    3884:	0e 94 8e 08 	call	0x111c	; 0x111c <Timer16Stopp>
    3888:	88 23       	and	r24, r24
    388a:	31 f1       	breq	.+76     	; 0x38d8 <TEST_Automat+0xba>
    388c:	84 e0       	ldi	r24, 0x04	; 4
    388e:	80 93 c0 06 	sts	0x06C0, r24
    3892:	31 c0       	rjmp	.+98     	; 0x38f6 <TEST_Automat+0xd8>
    3894:	63 e0       	ldi	r22, 0x03	; 3
    3896:	70 e0       	ldi	r23, 0x00	; 0
    3898:	82 e0       	ldi	r24, 0x02	; 2
    389a:	0e 94 d2 04 	call	0x9a4	; 0x9a4 <readSn>
    389e:	82 32       	cpi	r24, 0x22	; 34
    38a0:	19 f0       	breq	.+6      	; 0x38a8 <TEST_Automat+0x8a>
    38a2:	10 92 c0 06 	sts	0x06C0, r1
    38a6:	cd c0       	rjmp	.+410    	; 0x3a42 <TEST_Automat+0x224>
    38a8:	40 91 65 03 	lds	r20, 0x0365
    38ac:	50 91 66 03 	lds	r21, 0x0366
    38b0:	0e e3       	ldi	r16, 0x3E	; 62
    38b2:	10 e0       	ldi	r17, 0x00	; 0
    38b4:	2c ec       	ldi	r18, 0xCC	; 204
    38b6:	38 e0       	ldi	r19, 0x08	; 8
    38b8:	67 e6       	ldi	r22, 0x67	; 103
    38ba:	73 e0       	ldi	r23, 0x03	; 3
    38bc:	81 e0       	ldi	r24, 0x01	; 1
    38be:	72 df       	rcall	.-284    	; 0x37a4 <Socket2_sendmessage_Automat>
    38c0:	8f 3f       	cpi	r24, 0xFF	; 255
    38c2:	51 f4       	brne	.+20     	; 0x38d8 <TEST_Automat+0xba>
    38c4:	68 ee       	ldi	r22, 0xE8	; 232
    38c6:	73 e0       	ldi	r23, 0x03	; 3
    38c8:	80 91 bf 06 	lds	r24, 0x06BF
    38cc:	0e 94 e2 06 	call	0xdc4	; 0xdc4 <StartTimer16>
    38d0:	82 e0       	ldi	r24, 0x02	; 2
    38d2:	80 93 c0 06 	sts	0x06C0, r24
    38d6:	b5 c0       	rjmp	.+362    	; 0x3a42 <TEST_Automat+0x224>
    38d8:	80 91 c0 06 	lds	r24, 0x06C0
    38dc:	8c 17       	cp	r24, r28
    38de:	09 f4       	brne	.+2      	; 0x38e2 <TEST_Automat+0xc4>
    38e0:	b0 c0       	rjmp	.+352    	; 0x3a42 <TEST_Automat+0x224>
    38e2:	81 30       	cpi	r24, 0x01	; 1
    38e4:	19 f0       	breq	.+6      	; 0x38ec <TEST_Automat+0xce>
    38e6:	84 30       	cpi	r24, 0x04	; 4
    38e8:	31 f0       	breq	.+12     	; 0x38f6 <TEST_Automat+0xd8>
    38ea:	ab c0       	rjmp	.+342    	; 0x3a42 <TEST_Automat+0x224>
    38ec:	69 ee       	ldi	r22, 0xE9	; 233
    38ee:	77 e0       	ldi	r23, 0x07	; 7
    38f0:	80 e0       	ldi	r24, 0x00	; 0
    38f2:	bf dc       	rcall	.-1666   	; 0x3272 <UDPbegin2_Automat>
    38f4:	a6 c0       	rjmp	.+332    	; 0x3a42 <TEST_Automat+0x224>
    38f6:	ec ec       	ldi	r30, 0xCC	; 204
    38f8:	f8 e0       	ldi	r31, 0x08	; 8
    38fa:	85 e0       	ldi	r24, 0x05	; 5
    38fc:	80 83       	st	Z, r24
    38fe:	81 e0       	ldi	r24, 0x01	; 1
    3900:	80 93 cd 08 	sts	0x08CD, r24
    3904:	90 91 63 03 	lds	r25, 0x0363
    3908:	20 91 64 03 	lds	r18, 0x0364
    390c:	20 93 ce 08 	sts	0x08CE, r18
    3910:	90 93 cf 08 	sts	0x08CF, r25
    3914:	80 93 d0 08 	sts	0x08D0, r24
    3918:	82 e0       	ldi	r24, 0x02	; 2
    391a:	80 93 d1 08 	sts	0x08D1, r24
    391e:	83 e1       	ldi	r24, 0x13	; 19
    3920:	80 93 d2 08 	sts	0x08D2, r24
    3924:	86 e3       	ldi	r24, 0x36	; 54
    3926:	80 93 d3 08 	sts	0x08D3, r24
    392a:	80 91 c8 09 	lds	r24, 0x09C8
    392e:	80 93 d4 08 	sts	0x08D4, r24
    3932:	80 91 c9 09 	lds	r24, 0x09C9
    3936:	80 93 d5 08 	sts	0x08D5, r24
    393a:	80 91 ca 09 	lds	r24, 0x09CA
    393e:	80 93 d6 08 	sts	0x08D6, r24
    3942:	80 91 cb 09 	lds	r24, 0x09CB
    3946:	80 93 d7 08 	sts	0x08D7, r24
    394a:	87 e5       	ldi	r24, 0x57	; 87
    394c:	80 93 d8 08 	sts	0x08D8, r24
    3950:	85 e3       	ldi	r24, 0x35	; 53
    3952:	80 93 d9 08 	sts	0x08D9, r24
    3956:	81 e3       	ldi	r24, 0x31	; 49
    3958:	80 93 da 08 	sts	0x08DA, r24
    395c:	80 e3       	ldi	r24, 0x30	; 48
    395e:	80 93 db 08 	sts	0x08DB, r24
    3962:	80 93 dc 08 	sts	0x08DC, r24
    3966:	80 e2       	ldi	r24, 0x20	; 32
    3968:	80 93 dd 08 	sts	0x08DD, r24
    396c:	84 e5       	ldi	r24, 0x54	; 84
    396e:	80 93 de 08 	sts	0x08DE, r24
    3972:	95 e4       	ldi	r25, 0x45	; 69
    3974:	90 93 df 08 	sts	0x08DF, r25
    3978:	93 e5       	ldi	r25, 0x53	; 83
    397a:	90 93 e0 08 	sts	0x08E0, r25
    397e:	80 93 e1 08 	sts	0x08E1, r24
    3982:	87 ee       	ldi	r24, 0xE7	; 231
    3984:	98 e0       	ldi	r25, 0x08	; 8
    3986:	90 93 f6 09 	sts	0x09F6, r25
    398a:	80 93 f5 09 	sts	0x09F5, r24
    398e:	10 a2       	std	Z+32, r1	; 0x20
    3990:	17 8e       	std	Z+31, r1	; 0x1f
    3992:	12 a2       	std	Z+34, r1	; 0x22
    3994:	11 a2       	std	Z+33, r1	; 0x21
    3996:	80 91 5b 03 	lds	r24, 0x035B
    399a:	90 91 5c 03 	lds	r25, 0x035C
    399e:	94 a3       	std	Z+36, r25	; 0x24
    39a0:	83 a3       	std	Z+35, r24	; 0x23
    39a2:	80 91 5f 03 	lds	r24, 0x035F
    39a6:	90 91 60 03 	lds	r25, 0x0360
    39aa:	96 a3       	std	Z+38, r25	; 0x26
    39ac:	85 a3       	std	Z+37, r24	; 0x25
    39ae:	8b e7       	ldi	r24, 0x7B	; 123
    39b0:	90 e0       	ldi	r25, 0x00	; 0
    39b2:	90 a7       	std	Z+40, r25	; 0x28
    39b4:	87 a3       	std	Z+39, r24	; 0x27
    39b6:	88 e0       	ldi	r24, 0x08	; 8
    39b8:	97 e0       	ldi	r25, 0x07	; 7
    39ba:	92 a7       	std	Z+42, r25	; 0x2a
    39bc:	81 a7       	std	Z+41, r24	; 0x29
    39be:	88 e9       	ldi	r24, 0x98	; 152
    39c0:	98 e0       	ldi	r25, 0x08	; 8
    39c2:	94 a7       	std	Z+44, r25	; 0x2c
    39c4:	83 a7       	std	Z+43, r24	; 0x2b
    39c6:	89 ef       	ldi	r24, 0xF9	; 249
    39c8:	98 e0       	ldi	r25, 0x08	; 8
    39ca:	90 93 ca 08 	sts	0x08CA, r25
    39ce:	80 93 c9 08 	sts	0x08C9, r24
    39d2:	80 91 cc 06 	lds	r24, 0x06CC
    39d6:	90 91 cd 06 	lds	r25, 0x06CD
    39da:	a0 91 ce 06 	lds	r26, 0x06CE
    39de:	b0 91 cf 06 	lds	r27, 0x06CF
    39e2:	88 0f       	add	r24, r24
    39e4:	99 1f       	adc	r25, r25
    39e6:	aa 1f       	adc	r26, r26
    39e8:	bb 1f       	adc	r27, r27
    39ea:	ac 01       	movw	r20, r24
    39ec:	bd 01       	movw	r22, r26
    39ee:	44 0f       	add	r20, r20
    39f0:	55 1f       	adc	r21, r21
    39f2:	66 1f       	adc	r22, r22
    39f4:	77 1f       	adc	r23, r23
    39f6:	44 0f       	add	r20, r20
    39f8:	55 1f       	adc	r21, r21
    39fa:	66 1f       	adc	r22, r22
    39fc:	77 1f       	adc	r23, r23
    39fe:	84 0f       	add	r24, r20
    3a00:	95 1f       	adc	r25, r21
    3a02:	a6 1f       	adc	r26, r22
    3a04:	b7 1f       	adc	r27, r23
    3a06:	85 a7       	std	Z+45, r24	; 0x2d
    3a08:	96 a7       	std	Z+46, r25	; 0x2e
    3a0a:	a7 a7       	std	Z+47, r26	; 0x2f
    3a0c:	b0 ab       	std	Z+48, r27	; 0x30
    3a0e:	80 91 e1 09 	lds	r24, 0x09E1
    3a12:	90 91 e2 09 	lds	r25, 0x09E2
    3a16:	a0 91 e3 09 	lds	r26, 0x09E3
    3a1a:	b0 91 e4 09 	lds	r27, 0x09E4
    3a1e:	81 af       	std	Z+57, r24	; 0x39
    3a20:	92 af       	std	Z+58, r25	; 0x3a
    3a22:	a3 af       	std	Z+59, r26	; 0x3b
    3a24:	b4 af       	std	Z+60, r27	; 0x3c
    3a26:	8a e1       	ldi	r24, 0x1A	; 26
    3a28:	80 93 09 09 	sts	0x0909, r24
    3a2c:	40 91 65 03 	lds	r20, 0x0365
    3a30:	50 91 66 03 	lds	r21, 0x0366
    3a34:	0e e3       	ldi	r16, 0x3E	; 62
    3a36:	10 e0       	ldi	r17, 0x00	; 0
    3a38:	9f 01       	movw	r18, r30
    3a3a:	67 e6       	ldi	r22, 0x67	; 103
    3a3c:	73 e0       	ldi	r23, 0x03	; 3
    3a3e:	80 e0       	ldi	r24, 0x00	; 0
    3a40:	b1 de       	rcall	.-670    	; 0x37a4 <Socket2_sendmessage_Automat>
    3a42:	80 91 c0 06 	lds	r24, 0x06C0
    3a46:	cf 91       	pop	r28
    3a48:	1f 91       	pop	r17
    3a4a:	0f 91       	pop	r16
    3a4c:	08 95       	ret

00003a4e <SNMP_OID_toString>:
    3a4e:	af 92       	push	r10
    3a50:	bf 92       	push	r11
    3a52:	cf 92       	push	r12
    3a54:	df 92       	push	r13
    3a56:	ef 92       	push	r14
    3a58:	ff 92       	push	r15
    3a5a:	0f 93       	push	r16
    3a5c:	1f 93       	push	r17
    3a5e:	cf 93       	push	r28
    3a60:	df 93       	push	r29
    3a62:	cd b7       	in	r28, 0x3d	; 61
    3a64:	de b7       	in	r29, 0x3e	; 62
    3a66:	60 97       	sbiw	r28, 0x10	; 16
    3a68:	0f b6       	in	r0, 0x3f	; 63
    3a6a:	f8 94       	cli
    3a6c:	de bf       	out	0x3e, r29	; 62
    3a6e:	0f be       	out	0x3f, r0	; 63
    3a70:	cd bf       	out	0x3d, r28	; 61
    3a72:	a2 96       	adiw	r28, 0x22	; 34
    3a74:	0e ad       	ldd	r16, Y+62	; 0x3e
    3a76:	1f ad       	ldd	r17, Y+63	; 0x3f
    3a78:	a2 97       	sbiw	r28, 0x22	; 34
    3a7a:	81 e3       	ldi	r24, 0x31	; 49
    3a7c:	f8 01       	movw	r30, r16
    3a7e:	80 83       	st	Z, r24
    3a80:	8e e2       	ldi	r24, 0x2E	; 46
    3a82:	81 83       	std	Z+1, r24	; 0x01
    3a84:	83 e3       	ldi	r24, 0x33	; 51
    3a86:	82 83       	std	Z+2, r24	; 0x02
    3a88:	13 82       	std	Z+3, r1	; 0x03
    3a8a:	6f 96       	adiw	r28, 0x1f	; 31
    3a8c:	df ac       	ldd	r13, Y+63	; 0x3f
    3a8e:	6f 97       	sbiw	r28, 0x1f	; 31
    3a90:	da 94       	dec	r13
    3a92:	09 f4       	brne	.+2      	; 0x3a96 <SNMP_OID_toString+0x48>
    3a94:	4e c0       	rjmp	.+156    	; 0x3b32 <SNMP_OID_toString+0xe4>
    3a96:	21 e0       	ldi	r18, 0x01	; 1
    3a98:	a1 2c       	mov	r10, r1
    3a9a:	b1 2c       	mov	r11, r1
    3a9c:	0f 2e       	mov	r0, r31
    3a9e:	fe e2       	ldi	r31, 0x2E	; 46
    3aa0:	ef 2e       	mov	r14, r31
    3aa2:	f1 2c       	mov	r15, r1
    3aa4:	f0 2d       	mov	r31, r0
    3aa6:	8a 2d       	mov	r24, r10
    3aa8:	9b 2d       	mov	r25, r11
    3aaa:	cc 24       	eor	r12, r12
    3aac:	c3 94       	inc	r12
    3aae:	c2 0e       	add	r12, r18
    3ab0:	ee e1       	ldi	r30, 0x1E	; 30
    3ab2:	f0 e0       	ldi	r31, 0x00	; 0
    3ab4:	ec 0f       	add	r30, r28
    3ab6:	fd 1f       	adc	r31, r29
    3ab8:	e2 0f       	add	r30, r18
    3aba:	f1 1d       	adc	r31, r1
    3abc:	20 81       	ld	r18, Z
    3abe:	96 95       	lsr	r25
    3ac0:	98 2f       	mov	r25, r24
    3ac2:	88 27       	eor	r24, r24
    3ac4:	97 95       	ror	r25
    3ac6:	87 95       	ror	r24
    3ac8:	32 2f       	mov	r19, r18
    3aca:	3f 77       	andi	r19, 0x7F	; 127
    3acc:	83 0f       	add	r24, r19
    3ace:	91 1d       	adc	r25, r1
    3ad0:	da 94       	dec	r13
    3ad2:	21 f0       	breq	.+8      	; 0x3adc <SNMP_OID_toString+0x8e>
    3ad4:	22 23       	and	r18, r18
    3ad6:	c4 f4       	brge	.+48     	; 0x3b08 <SNMP_OID_toString+0xba>
    3ad8:	2c 2d       	mov	r18, r12
    3ada:	e7 cf       	rjmp	.-50     	; 0x3aaa <SNMP_OID_toString+0x5c>
    3adc:	4a e0       	ldi	r20, 0x0A	; 10
    3ade:	be 01       	movw	r22, r28
    3ae0:	6f 5f       	subi	r22, 0xFF	; 255
    3ae2:	7f 4f       	sbci	r23, 0xFF	; 255
    3ae4:	0e 94 5a 31 	call	0x62b4	; 0x62b4 <__utoa_ncheck>
    3ae8:	f8 01       	movw	r30, r16
    3aea:	01 90       	ld	r0, Z+
    3aec:	00 20       	and	r0, r0
    3aee:	e9 f7       	brne	.-6      	; 0x3aea <SNMP_OID_toString+0x9c>
    3af0:	31 97       	sbiw	r30, 0x01	; 1
    3af2:	8e e2       	ldi	r24, 0x2E	; 46
    3af4:	90 e0       	ldi	r25, 0x00	; 0
    3af6:	91 83       	std	Z+1, r25	; 0x01
    3af8:	80 83       	st	Z, r24
    3afa:	be 01       	movw	r22, r28
    3afc:	6f 5f       	subi	r22, 0xFF	; 255
    3afe:	7f 4f       	sbci	r23, 0xFF	; 255
    3b00:	c8 01       	movw	r24, r16
    3b02:	0e 94 29 31 	call	0x6252	; 0x6252 <strcat>
    3b06:	15 c0       	rjmp	.+42     	; 0x3b32 <SNMP_OID_toString+0xe4>
    3b08:	4a e0       	ldi	r20, 0x0A	; 10
    3b0a:	be 01       	movw	r22, r28
    3b0c:	6f 5f       	subi	r22, 0xFF	; 255
    3b0e:	7f 4f       	sbci	r23, 0xFF	; 255
    3b10:	0e 94 5a 31 	call	0x62b4	; 0x62b4 <__utoa_ncheck>
    3b14:	f8 01       	movw	r30, r16
    3b16:	01 90       	ld	r0, Z+
    3b18:	00 20       	and	r0, r0
    3b1a:	e9 f7       	brne	.-6      	; 0x3b16 <SNMP_OID_toString+0xc8>
    3b1c:	31 97       	sbiw	r30, 0x01	; 1
    3b1e:	f1 82       	std	Z+1, r15	; 0x01
    3b20:	e0 82       	st	Z, r14
    3b22:	be 01       	movw	r22, r28
    3b24:	6f 5f       	subi	r22, 0xFF	; 255
    3b26:	7f 4f       	sbci	r23, 0xFF	; 255
    3b28:	c8 01       	movw	r24, r16
    3b2a:	0e 94 29 31 	call	0x6252	; 0x6252 <strcat>
    3b2e:	2c 2d       	mov	r18, r12
    3b30:	ba cf       	rjmp	.-140    	; 0x3aa6 <SNMP_OID_toString+0x58>
    3b32:	60 96       	adiw	r28, 0x10	; 16
    3b34:	0f b6       	in	r0, 0x3f	; 63
    3b36:	f8 94       	cli
    3b38:	de bf       	out	0x3e, r29	; 62
    3b3a:	0f be       	out	0x3f, r0	; 63
    3b3c:	cd bf       	out	0x3d, r28	; 61
    3b3e:	df 91       	pop	r29
    3b40:	cf 91       	pop	r28
    3b42:	1f 91       	pop	r17
    3b44:	0f 91       	pop	r16
    3b46:	ff 90       	pop	r15
    3b48:	ef 90       	pop	r14
    3b4a:	df 90       	pop	r13
    3b4c:	cf 90       	pop	r12
    3b4e:	bf 90       	pop	r11
    3b50:	af 90       	pop	r10
    3b52:	08 95       	ret

00003b54 <SNMP_OID_fromString>:
    3b54:	3f 92       	push	r3
    3b56:	4f 92       	push	r4
    3b58:	5f 92       	push	r5
    3b5a:	6f 92       	push	r6
    3b5c:	7f 92       	push	r7
    3b5e:	8f 92       	push	r8
    3b60:	9f 92       	push	r9
    3b62:	af 92       	push	r10
    3b64:	bf 92       	push	r11
    3b66:	cf 92       	push	r12
    3b68:	df 92       	push	r13
    3b6a:	ef 92       	push	r14
    3b6c:	ff 92       	push	r15
    3b6e:	0f 93       	push	r16
    3b70:	1f 93       	push	r17
    3b72:	cf 93       	push	r28
    3b74:	df 93       	push	r29
    3b76:	00 d0       	rcall	.+0      	; 0x3b78 <SNMP_OID_fromString+0x24>
    3b78:	1f 92       	push	r1
    3b7a:	1f 92       	push	r1
    3b7c:	cd b7       	in	r28, 0x3d	; 61
    3b7e:	de b7       	in	r29, 0x3e	; 62
    3b80:	8c 01       	movw	r16, r24
    3b82:	db 01       	movw	r26, r22
    3b84:	8c 91       	ld	r24, X
    3b86:	81 33       	cpi	r24, 0x31	; 49
    3b88:	09 f0       	breq	.+2      	; 0x3b8c <SNMP_OID_fromString+0x38>
    3b8a:	e5 c0       	rjmp	.+458    	; 0x3d56 <SNMP_OID_fromString+0x202>
    3b8c:	11 96       	adiw	r26, 0x01	; 1
    3b8e:	8c 91       	ld	r24, X
    3b90:	11 97       	sbiw	r26, 0x01	; 1
    3b92:	8e 32       	cpi	r24, 0x2E	; 46
    3b94:	09 f0       	breq	.+2      	; 0x3b98 <SNMP_OID_fromString+0x44>
    3b96:	df c0       	rjmp	.+446    	; 0x3d56 <SNMP_OID_fromString+0x202>
    3b98:	12 96       	adiw	r26, 0x02	; 2
    3b9a:	8c 91       	ld	r24, X
    3b9c:	12 97       	sbiw	r26, 0x02	; 2
    3b9e:	83 33       	cpi	r24, 0x33	; 51
    3ba0:	09 f0       	breq	.+2      	; 0x3ba4 <SNMP_OID_fromString+0x50>
    3ba2:	d9 c0       	rjmp	.+434    	; 0x3d56 <SNMP_OID_fromString+0x202>
    3ba4:	13 96       	adiw	r26, 0x03	; 3
    3ba6:	8c 91       	ld	r24, X
    3ba8:	8e 32       	cpi	r24, 0x2E	; 46
    3baa:	09 f0       	breq	.+2      	; 0x3bae <SNMP_OID_fromString+0x5a>
    3bac:	d4 c0       	rjmp	.+424    	; 0x3d56 <SNMP_OID_fromString+0x202>
    3bae:	80 e4       	ldi	r24, 0x40	; 64
    3bb0:	f8 01       	movw	r30, r16
    3bb2:	11 92       	st	Z+, r1
    3bb4:	8a 95       	dec	r24
    3bb6:	e9 f7       	brne	.-6      	; 0x3bb2 <SNMP_OID_fromString+0x5e>
    3bb8:	8b e2       	ldi	r24, 0x2B	; 43
    3bba:	d8 01       	movw	r26, r16
    3bbc:	8c 93       	st	X, r24
    3bbe:	fb 01       	movw	r30, r22
    3bc0:	01 90       	ld	r0, Z+
    3bc2:	00 20       	and	r0, r0
    3bc4:	e9 f7       	brne	.-6      	; 0x3bc0 <SNMP_OID_fromString+0x6c>
    3bc6:	31 97       	sbiw	r30, 0x01	; 1
    3bc8:	3f 01       	movw	r6, r30
    3bca:	66 1a       	sub	r6, r22
    3bcc:	77 0a       	sbc	r7, r23
    3bce:	fe 01       	movw	r30, r28
    3bd0:	31 96       	adiw	r30, 0x01	; 1
    3bd2:	85 e0       	ldi	r24, 0x05	; 5
    3bd4:	df 01       	movw	r26, r30
    3bd6:	1d 92       	st	X+, r1
    3bd8:	8a 95       	dec	r24
    3bda:	e9 f7       	brne	.-6      	; 0x3bd6 <SNMP_OID_fromString+0x82>
    3bdc:	b5 e0       	ldi	r27, 0x05	; 5
    3bde:	6b 16       	cp	r6, r27
    3be0:	71 04       	cpc	r7, r1
    3be2:	0c f4       	brge	.+2      	; 0x3be6 <SNMP_OID_fromString+0x92>
    3be4:	71 c0       	rjmp	.+226    	; 0x3cc8 <SNMP_OID_fromString+0x174>
    3be6:	6b 01       	movw	r12, r22
    3be8:	e4 e0       	ldi	r30, 0x04	; 4
    3bea:	ce 0e       	add	r12, r30
    3bec:	d1 1c       	adc	r13, r1
    3bee:	68 94       	set
    3bf0:	ee 24       	eor	r14, r14
    3bf2:	e2 f8       	bld	r14, 2
    3bf4:	f1 2c       	mov	r15, r1
    3bf6:	aa 24       	eor	r10, r10
    3bf8:	a3 94       	inc	r10
    3bfa:	b1 2c       	mov	r11, r1
    3bfc:	80 e0       	ldi	r24, 0x00	; 0
    3bfe:	90 e0       	ldi	r25, 0x00	; 0
    3c00:	9e 01       	movw	r18, r28
    3c02:	2f 5f       	subi	r18, 0xFF	; 255
    3c04:	3f 4f       	sbci	r19, 0xFF	; 255
    3c06:	49 01       	movw	r8, r18
    3c08:	0f 2e       	mov	r0, r31
    3c0a:	f5 e0       	ldi	r31, 0x05	; 5
    3c0c:	3f 2e       	mov	r3, r31
    3c0e:	f0 2d       	mov	r31, r0
    3c10:	41 2c       	mov	r4, r1
    3c12:	51 2c       	mov	r5, r1
    3c14:	d6 01       	movw	r26, r12
    3c16:	2d 91       	ld	r18, X+
    3c18:	6d 01       	movw	r12, r26
    3c1a:	2e 32       	cpi	r18, 0x2E	; 46
    3c1c:	09 f0       	breq	.+2      	; 0x3c20 <SNMP_OID_fromString+0xcc>
    3c1e:	47 c0       	rjmp	.+142    	; 0x3cae <SNMP_OID_fromString+0x15a>
    3c20:	c4 01       	movw	r24, r8
    3c22:	0e 94 03 31 	call	0x6206	; 0x6206 <atol>
    3c26:	27 2f       	mov	r18, r23
    3c28:	86 2f       	mov	r24, r22
    3c2a:	92 2f       	mov	r25, r18
    3c2c:	80 38       	cpi	r24, 0x80	; 128
    3c2e:	91 05       	cpc	r25, r1
    3c30:	28 f4       	brcc	.+10     	; 0x3c3c <SNMP_OID_fromString+0xe8>
    3c32:	f8 01       	movw	r30, r16
    3c34:	ea 0d       	add	r30, r10
    3c36:	fb 1d       	adc	r31, r11
    3c38:	60 83       	st	Z, r22
    3c3a:	2e c0       	rjmp	.+92     	; 0x3c98 <SNMP_OID_fromString+0x144>
    3c3c:	81 15       	cp	r24, r1
    3c3e:	b0 e4       	ldi	r27, 0x40	; 64
    3c40:	9b 07       	cpc	r25, r27
    3c42:	88 f4       	brcc	.+34     	; 0x3c66 <SNMP_OID_fromString+0x112>
    3c44:	f8 01       	movw	r30, r16
    3c46:	ea 0d       	add	r30, r10
    3c48:	fb 1d       	adc	r31, r11
    3c4a:	88 0f       	add	r24, r24
    3c4c:	99 1f       	adc	r25, r25
    3c4e:	89 2f       	mov	r24, r25
    3c50:	80 68       	ori	r24, 0x80	; 128
    3c52:	80 83       	st	Z, r24
    3c54:	ef ef       	ldi	r30, 0xFF	; 255
    3c56:	ae 1a       	sub	r10, r30
    3c58:	be 0a       	sbc	r11, r30
    3c5a:	f8 01       	movw	r30, r16
    3c5c:	ea 0d       	add	r30, r10
    3c5e:	fb 1d       	adc	r31, r11
    3c60:	6f 77       	andi	r22, 0x7F	; 127
    3c62:	60 83       	st	Z, r22
    3c64:	19 c0       	rjmp	.+50     	; 0x3c98 <SNMP_OID_fromString+0x144>
    3c66:	f8 01       	movw	r30, r16
    3c68:	ea 0d       	add	r30, r10
    3c6a:	fb 1d       	adc	r31, r11
    3c6c:	9c 01       	movw	r18, r24
    3c6e:	24 e0       	ldi	r18, 0x04	; 4
    3c70:	32 9f       	mul	r19, r18
    3c72:	21 2d       	mov	r18, r1
    3c74:	33 27       	eor	r19, r19
    3c76:	11 24       	eor	r1, r1
    3c78:	23 70       	andi	r18, 0x03	; 3
    3c7a:	20 68       	ori	r18, 0x80	; 128
    3c7c:	20 83       	st	Z, r18
    3c7e:	88 0f       	add	r24, r24
    3c80:	99 1f       	adc	r25, r25
    3c82:	89 2f       	mov	r24, r25
    3c84:	80 68       	ori	r24, 0x80	; 128
    3c86:	81 83       	std	Z+1, r24	; 0x01
    3c88:	f2 e0       	ldi	r31, 0x02	; 2
    3c8a:	af 0e       	add	r10, r31
    3c8c:	b1 1c       	adc	r11, r1
    3c8e:	f8 01       	movw	r30, r16
    3c90:	ea 0d       	add	r30, r10
    3c92:	fb 1d       	adc	r31, r11
    3c94:	6f 77       	andi	r22, 0x7F	; 127
    3c96:	60 83       	st	Z, r22
    3c98:	d4 01       	movw	r26, r8
    3c9a:	e3 2d       	mov	r30, r3
    3c9c:	1d 92       	st	X+, r1
    3c9e:	ea 95       	dec	r30
    3ca0:	e9 f7       	brne	.-6      	; 0x3c9c <SNMP_OID_fromString+0x148>
    3ca2:	ff ef       	ldi	r31, 0xFF	; 255
    3ca4:	af 1a       	sub	r10, r31
    3ca6:	bf 0a       	sbc	r11, r31
    3ca8:	84 2d       	mov	r24, r4
    3caa:	95 2d       	mov	r25, r5
    3cac:	05 c0       	rjmp	.+10     	; 0x3cb8 <SNMP_OID_fromString+0x164>
    3cae:	f4 01       	movw	r30, r8
    3cb0:	e8 0f       	add	r30, r24
    3cb2:	f9 1f       	adc	r31, r25
    3cb4:	20 83       	st	Z, r18
    3cb6:	01 96       	adiw	r24, 0x01	; 1
    3cb8:	2f ef       	ldi	r18, 0xFF	; 255
    3cba:	e2 1a       	sub	r14, r18
    3cbc:	f2 0a       	sbc	r15, r18
    3cbe:	6e 14       	cp	r6, r14
    3cc0:	7f 04       	cpc	r7, r15
    3cc2:	09 f0       	breq	.+2      	; 0x3cc6 <SNMP_OID_fromString+0x172>
    3cc4:	a7 cf       	rjmp	.-178    	; 0x3c14 <SNMP_OID_fromString+0xc0>
    3cc6:	03 c0       	rjmp	.+6      	; 0x3cce <SNMP_OID_fromString+0x17a>
    3cc8:	aa 24       	eor	r10, r10
    3cca:	a3 94       	inc	r10
    3ccc:	b1 2c       	mov	r11, r1
    3cce:	ce 01       	movw	r24, r28
    3cd0:	01 96       	adiw	r24, 0x01	; 1
    3cd2:	0e 94 e6 30 	call	0x61cc	; 0x61cc <atoi>
    3cd6:	28 2f       	mov	r18, r24
    3cd8:	39 2f       	mov	r19, r25
    3cda:	20 38       	cpi	r18, 0x80	; 128
    3cdc:	31 05       	cpc	r19, r1
    3cde:	28 f4       	brcc	.+10     	; 0x3cea <SNMP_OID_fromString+0x196>
    3ce0:	f8 01       	movw	r30, r16
    3ce2:	ea 0d       	add	r30, r10
    3ce4:	fb 1d       	adc	r31, r11
    3ce6:	80 83       	st	Z, r24
    3ce8:	2e c0       	rjmp	.+92     	; 0x3d46 <SNMP_OID_fromString+0x1f2>
    3cea:	21 15       	cp	r18, r1
    3cec:	90 e4       	ldi	r25, 0x40	; 64
    3cee:	39 07       	cpc	r19, r25
    3cf0:	88 f4       	brcc	.+34     	; 0x3d14 <SNMP_OID_fromString+0x1c0>
    3cf2:	f8 01       	movw	r30, r16
    3cf4:	ea 0d       	add	r30, r10
    3cf6:	fb 1d       	adc	r31, r11
    3cf8:	22 0f       	add	r18, r18
    3cfa:	33 1f       	adc	r19, r19
    3cfc:	93 2f       	mov	r25, r19
    3cfe:	90 68       	ori	r25, 0x80	; 128
    3d00:	90 83       	st	Z, r25
    3d02:	af ef       	ldi	r26, 0xFF	; 255
    3d04:	aa 1a       	sub	r10, r26
    3d06:	ba 0a       	sbc	r11, r26
    3d08:	f8 01       	movw	r30, r16
    3d0a:	ea 0d       	add	r30, r10
    3d0c:	fb 1d       	adc	r31, r11
    3d0e:	8f 77       	andi	r24, 0x7F	; 127
    3d10:	80 83       	st	Z, r24
    3d12:	19 c0       	rjmp	.+50     	; 0x3d46 <SNMP_OID_fromString+0x1f2>
    3d14:	f8 01       	movw	r30, r16
    3d16:	ea 0d       	add	r30, r10
    3d18:	fb 1d       	adc	r31, r11
    3d1a:	a9 01       	movw	r20, r18
    3d1c:	44 e0       	ldi	r20, 0x04	; 4
    3d1e:	54 9f       	mul	r21, r20
    3d20:	41 2d       	mov	r20, r1
    3d22:	55 27       	eor	r21, r21
    3d24:	11 24       	eor	r1, r1
    3d26:	43 70       	andi	r20, 0x03	; 3
    3d28:	40 68       	ori	r20, 0x80	; 128
    3d2a:	40 83       	st	Z, r20
    3d2c:	22 0f       	add	r18, r18
    3d2e:	33 1f       	adc	r19, r19
    3d30:	93 2f       	mov	r25, r19
    3d32:	90 68       	ori	r25, 0x80	; 128
    3d34:	91 83       	std	Z+1, r25	; 0x01
    3d36:	b2 e0       	ldi	r27, 0x02	; 2
    3d38:	ab 0e       	add	r10, r27
    3d3a:	b1 1c       	adc	r11, r1
    3d3c:	f8 01       	movw	r30, r16
    3d3e:	ea 0d       	add	r30, r10
    3d40:	fb 1d       	adc	r31, r11
    3d42:	8f 77       	andi	r24, 0x7F	; 127
    3d44:	80 83       	st	Z, r24
    3d46:	f8 01       	movw	r30, r16
    3d48:	e0 5c       	subi	r30, 0xC0	; 192
    3d4a:	ff 4f       	sbci	r31, 0xFF	; 255
    3d4c:	2f ef       	ldi	r18, 0xFF	; 255
    3d4e:	a2 1a       	sub	r10, r18
    3d50:	b2 0a       	sbc	r11, r18
    3d52:	b1 82       	std	Z+1, r11	; 0x01
    3d54:	a0 82       	st	Z, r10
    3d56:	0f 90       	pop	r0
    3d58:	0f 90       	pop	r0
    3d5a:	0f 90       	pop	r0
    3d5c:	0f 90       	pop	r0
    3d5e:	0f 90       	pop	r0
    3d60:	df 91       	pop	r29
    3d62:	cf 91       	pop	r28
    3d64:	1f 91       	pop	r17
    3d66:	0f 91       	pop	r16
    3d68:	ff 90       	pop	r15
    3d6a:	ef 90       	pop	r14
    3d6c:	df 90       	pop	r13
    3d6e:	cf 90       	pop	r12
    3d70:	bf 90       	pop	r11
    3d72:	af 90       	pop	r10
    3d74:	9f 90       	pop	r9
    3d76:	8f 90       	pop	r8
    3d78:	7f 90       	pop	r7
    3d7a:	6f 90       	pop	r6
    3d7c:	5f 90       	pop	r5
    3d7e:	4f 90       	pop	r4
    3d80:	3f 90       	pop	r3
    3d82:	08 95       	ret

00003d84 <clear>:
    3d84:	20 e4       	ldi	r18, 0x40	; 64
    3d86:	fc 01       	movw	r30, r24
    3d88:	11 92       	st	Z+, r1
    3d8a:	2a 95       	dec	r18
    3d8c:	e9 f7       	brne	.-6      	; 0x3d88 <clear+0x4>
    3d8e:	fc 01       	movw	r30, r24
    3d90:	e0 5c       	subi	r30, 0xC0	; 192
    3d92:	ff 4f       	sbci	r31, 0xFF	; 255
    3d94:	11 82       	std	Z+1, r1	; 0x01
    3d96:	10 82       	st	Z, r1
    3d98:	08 95       	ret

00003d9a <decodeOctetStringToString>:
    3d9a:	8f 92       	push	r8
    3d9c:	9f 92       	push	r9
    3d9e:	af 92       	push	r10
    3da0:	bf 92       	push	r11
    3da2:	cf 92       	push	r12
    3da4:	df 92       	push	r13
    3da6:	ef 92       	push	r14
    3da8:	ff 92       	push	r15
    3daa:	0f 93       	push	r16
    3dac:	1f 93       	push	r17
    3dae:	cf 93       	push	r28
    3db0:	df 93       	push	r29
    3db2:	cd b7       	in	r28, 0x3d	; 61
    3db4:	de b7       	in	r29, 0x3e	; 62
    3db6:	60 97       	sbiw	r28, 0x10	; 16
    3db8:	0f b6       	in	r0, 0x3f	; 63
    3dba:	f8 94       	cli
    3dbc:	de bf       	out	0x3e, r29	; 62
    3dbe:	0f be       	out	0x3f, r0	; 63
    3dc0:	cd bf       	out	0x3d, r28	; 61
    3dc2:	8c 01       	movw	r16, r24
    3dc4:	7b 01       	movw	r14, r22
    3dc6:	fc 01       	movw	r30, r24
    3dc8:	ee 5b       	subi	r30, 0xBE	; 190
    3dca:	ff 4f       	sbci	r31, 0xFF	; 255
    3dcc:	80 81       	ld	r24, Z
    3dce:	84 30       	cpi	r24, 0x04	; 4
    3dd0:	09 f4       	brne	.+2      	; 0x3dd4 <decodeOctetStringToString+0x3a>
    3dd2:	7d c0       	rjmp	.+250    	; 0x3ece <decodeOctetStringToString+0x134>
    3dd4:	86 30       	cpi	r24, 0x06	; 6
    3dd6:	09 f4       	brne	.+2      	; 0x3dda <decodeOctetStringToString+0x40>
    3dd8:	6d c0       	rjmp	.+218    	; 0x3eb4 <decodeOctetStringToString+0x11a>
    3dda:	84 34       	cpi	r24, 0x44	; 68
    3ddc:	09 f0       	breq	.+2      	; 0x3de0 <decodeOctetStringToString+0x46>
    3dde:	66 c0       	rjmp	.+204    	; 0x3eac <decodeOctetStringToString+0x112>
    3de0:	76 c0       	rjmp	.+236    	; 0x3ece <decodeOctetStringToString+0x134>
    3de2:	81 e3       	ldi	r24, 0x31	; 49
    3de4:	d7 01       	movw	r26, r14
    3de6:	8c 93       	st	X, r24
    3de8:	8e e2       	ldi	r24, 0x2E	; 46
    3dea:	11 96       	adiw	r26, 0x01	; 1
    3dec:	8c 93       	st	X, r24
    3dee:	11 97       	sbiw	r26, 0x01	; 1
    3df0:	83 e3       	ldi	r24, 0x33	; 51
    3df2:	12 96       	adiw	r26, 0x02	; 2
    3df4:	8c 93       	st	X, r24
    3df6:	12 97       	sbiw	r26, 0x02	; 2
    3df8:	13 96       	adiw	r26, 0x03	; 3
    3dfa:	1c 92       	st	X, r1
    3dfc:	f8 01       	movw	r30, r16
    3dfe:	e0 5c       	subi	r30, 0xC0	; 192
    3e00:	ff 4f       	sbci	r31, 0xFF	; 255
    3e02:	b0 80       	ld	r11, Z
    3e04:	ba 94       	dec	r11
    3e06:	11 f1       	breq	.+68     	; 0x3e4c <decodeOctetStringToString+0xb2>
    3e08:	81 e0       	ldi	r24, 0x01	; 1
    3e0a:	81 2c       	mov	r8, r1
    3e0c:	91 2c       	mov	r9, r1
    3e0e:	0f 2e       	mov	r0, r31
    3e10:	fe e2       	ldi	r31, 0x2E	; 46
    3e12:	cf 2e       	mov	r12, r31
    3e14:	d1 2c       	mov	r13, r1
    3e16:	f0 2d       	mov	r31, r0
    3e18:	28 2d       	mov	r18, r8
    3e1a:	39 2d       	mov	r19, r9
    3e1c:	aa 24       	eor	r10, r10
    3e1e:	a3 94       	inc	r10
    3e20:	a8 0e       	add	r10, r24
    3e22:	f8 01       	movw	r30, r16
    3e24:	e8 0f       	add	r30, r24
    3e26:	f1 1d       	adc	r31, r1
    3e28:	80 81       	ld	r24, Z
    3e2a:	36 95       	lsr	r19
    3e2c:	32 2f       	mov	r19, r18
    3e2e:	22 27       	eor	r18, r18
    3e30:	37 95       	ror	r19
    3e32:	27 95       	ror	r18
    3e34:	98 2f       	mov	r25, r24
    3e36:	9f 77       	andi	r25, 0x7F	; 127
    3e38:	29 0f       	add	r18, r25
    3e3a:	31 1d       	adc	r19, r1
    3e3c:	ba 94       	dec	r11
    3e3e:	09 f4       	brne	.+2      	; 0x3e42 <decodeOctetStringToString+0xa8>
    3e40:	53 c0       	rjmp	.+166    	; 0x3ee8 <decodeOctetStringToString+0x14e>
    3e42:	88 23       	and	r24, r24
    3e44:	0c f0       	brlt	.+2      	; 0x3e48 <decodeOctetStringToString+0xae>
    3e46:	67 c0       	rjmp	.+206    	; 0x3f16 <decodeOctetStringToString+0x17c>
    3e48:	8a 2d       	mov	r24, r10
    3e4a:	e8 cf       	rjmp	.-48     	; 0x3e1c <decodeOctetStringToString+0x82>
    3e4c:	80 e0       	ldi	r24, 0x00	; 0
    3e4e:	79 c0       	rjmp	.+242    	; 0x3f42 <decodeOctetStringToString+0x1a8>
    3e50:	f8 01       	movw	r30, r16
    3e52:	ed 5b       	subi	r30, 0xBD	; 189
    3e54:	ff 4f       	sbci	r31, 0xFF	; 255
    3e56:	10 82       	st	Z, r1
    3e58:	33 97       	sbiw	r30, 0x03	; 3
    3e5a:	20 81       	ld	r18, Z
    3e5c:	31 81       	ldd	r19, Z+1	; 0x01
    3e5e:	21 15       	cp	r18, r1
    3e60:	31 05       	cpc	r19, r1
    3e62:	d1 f0       	breq	.+52     	; 0x3e98 <decodeOctetStringToString+0xfe>
    3e64:	80 e0       	ldi	r24, 0x00	; 0
    3e66:	90 e0       	ldi	r25, 0x00	; 0
    3e68:	60 e0       	ldi	r22, 0x00	; 0
    3e6a:	33 96       	adiw	r30, 0x03	; 3
    3e6c:	a8 01       	movw	r20, r16
    3e6e:	40 5c       	subi	r20, 0xC0	; 192
    3e70:	5f 4f       	sbci	r21, 0xFF	; 255
    3e72:	d8 01       	movw	r26, r16
    3e74:	a6 0f       	add	r26, r22
    3e76:	b1 1d       	adc	r27, r1
    3e78:	2c 91       	ld	r18, X
    3e7a:	d7 01       	movw	r26, r14
    3e7c:	a8 0f       	add	r26, r24
    3e7e:	b9 1f       	adc	r27, r25
    3e80:	2c 93       	st	X, r18
    3e82:	60 81       	ld	r22, Z
    3e84:	6f 5f       	subi	r22, 0xFF	; 255
    3e86:	60 83       	st	Z, r22
    3e88:	86 2f       	mov	r24, r22
    3e8a:	90 e0       	ldi	r25, 0x00	; 0
    3e8c:	da 01       	movw	r26, r20
    3e8e:	2d 91       	ld	r18, X+
    3e90:	3c 91       	ld	r19, X
    3e92:	82 17       	cp	r24, r18
    3e94:	93 07       	cpc	r25, r19
    3e96:	68 f3       	brcs	.-38     	; 0x3e72 <decodeOctetStringToString+0xd8>
    3e98:	f7 01       	movw	r30, r14
    3e9a:	e2 0f       	add	r30, r18
    3e9c:	f3 1f       	adc	r31, r19
    3e9e:	10 82       	st	Z, r1
    3ea0:	80 e0       	ldi	r24, 0x00	; 0
    3ea2:	4f c0       	rjmp	.+158    	; 0x3f42 <decodeOctetStringToString+0x1a8>
    3ea4:	c8 01       	movw	r24, r16
    3ea6:	6e df       	rcall	.-292    	; 0x3d84 <clear>
    3ea8:	81 e0       	ldi	r24, 0x01	; 1
    3eaa:	4b c0       	rjmp	.+150    	; 0x3f42 <decodeOctetStringToString+0x1a8>
    3eac:	c8 01       	movw	r24, r16
    3eae:	6a df       	rcall	.-300    	; 0x3d84 <clear>
    3eb0:	87 e0       	ldi	r24, 0x07	; 7
    3eb2:	47 c0       	rjmp	.+142    	; 0x3f42 <decodeOctetStringToString+0x1a8>
    3eb4:	fb 01       	movw	r30, r22
    3eb6:	01 90       	ld	r0, Z+
    3eb8:	00 20       	and	r0, r0
    3eba:	e9 f7       	brne	.-6      	; 0x3eb6 <decodeOctetStringToString+0x11c>
    3ebc:	cf 01       	movw	r24, r30
    3ebe:	86 1b       	sub	r24, r22
    3ec0:	97 0b       	sbc	r25, r23
    3ec2:	02 97       	sbiw	r24, 0x02	; 2
    3ec4:	84 17       	cp	r24, r20
    3ec6:	95 07       	cpc	r25, r21
    3ec8:	08 f4       	brcc	.+2      	; 0x3ecc <decodeOctetStringToString+0x132>
    3eca:	8b cf       	rjmp	.-234    	; 0x3de2 <decodeOctetStringToString+0x48>
    3ecc:	eb cf       	rjmp	.-42     	; 0x3ea4 <decodeOctetStringToString+0x10a>
    3ece:	f7 01       	movw	r30, r14
    3ed0:	01 90       	ld	r0, Z+
    3ed2:	00 20       	and	r0, r0
    3ed4:	e9 f7       	brne	.-6      	; 0x3ed0 <decodeOctetStringToString+0x136>
    3ed6:	cf 01       	movw	r24, r30
    3ed8:	8e 19       	sub	r24, r14
    3eda:	9f 09       	sbc	r25, r15
    3edc:	02 97       	sbiw	r24, 0x02	; 2
    3ede:	84 17       	cp	r24, r20
    3ee0:	95 07       	cpc	r25, r21
    3ee2:	08 f4       	brcc	.+2      	; 0x3ee6 <decodeOctetStringToString+0x14c>
    3ee4:	b5 cf       	rjmp	.-150    	; 0x3e50 <decodeOctetStringToString+0xb6>
    3ee6:	de cf       	rjmp	.-68     	; 0x3ea4 <decodeOctetStringToString+0x10a>
    3ee8:	4a e0       	ldi	r20, 0x0A	; 10
    3eea:	be 01       	movw	r22, r28
    3eec:	6f 5f       	subi	r22, 0xFF	; 255
    3eee:	7f 4f       	sbci	r23, 0xFF	; 255
    3ef0:	c9 01       	movw	r24, r18
    3ef2:	0e 94 5a 31 	call	0x62b4	; 0x62b4 <__utoa_ncheck>
    3ef6:	f7 01       	movw	r30, r14
    3ef8:	01 90       	ld	r0, Z+
    3efa:	00 20       	and	r0, r0
    3efc:	e9 f7       	brne	.-6      	; 0x3ef8 <decodeOctetStringToString+0x15e>
    3efe:	31 97       	sbiw	r30, 0x01	; 1
    3f00:	8e e2       	ldi	r24, 0x2E	; 46
    3f02:	90 e0       	ldi	r25, 0x00	; 0
    3f04:	91 83       	std	Z+1, r25	; 0x01
    3f06:	80 83       	st	Z, r24
    3f08:	be 01       	movw	r22, r28
    3f0a:	6f 5f       	subi	r22, 0xFF	; 255
    3f0c:	7f 4f       	sbci	r23, 0xFF	; 255
    3f0e:	c7 01       	movw	r24, r14
    3f10:	0e 94 29 31 	call	0x6252	; 0x6252 <strcat>
    3f14:	9b cf       	rjmp	.-202    	; 0x3e4c <decodeOctetStringToString+0xb2>
    3f16:	4a e0       	ldi	r20, 0x0A	; 10
    3f18:	be 01       	movw	r22, r28
    3f1a:	6f 5f       	subi	r22, 0xFF	; 255
    3f1c:	7f 4f       	sbci	r23, 0xFF	; 255
    3f1e:	c9 01       	movw	r24, r18
    3f20:	0e 94 5a 31 	call	0x62b4	; 0x62b4 <__utoa_ncheck>
    3f24:	f7 01       	movw	r30, r14
    3f26:	01 90       	ld	r0, Z+
    3f28:	00 20       	and	r0, r0
    3f2a:	e9 f7       	brne	.-6      	; 0x3f26 <decodeOctetStringToString+0x18c>
    3f2c:	31 97       	sbiw	r30, 0x01	; 1
    3f2e:	d1 82       	std	Z+1, r13	; 0x01
    3f30:	c0 82       	st	Z, r12
    3f32:	be 01       	movw	r22, r28
    3f34:	6f 5f       	subi	r22, 0xFF	; 255
    3f36:	7f 4f       	sbci	r23, 0xFF	; 255
    3f38:	c7 01       	movw	r24, r14
    3f3a:	0e 94 29 31 	call	0x6252	; 0x6252 <strcat>
    3f3e:	8a 2d       	mov	r24, r10
    3f40:	6b cf       	rjmp	.-298    	; 0x3e18 <decodeOctetStringToString+0x7e>
    3f42:	60 96       	adiw	r28, 0x10	; 16
    3f44:	0f b6       	in	r0, 0x3f	; 63
    3f46:	f8 94       	cli
    3f48:	de bf       	out	0x3e, r29	; 62
    3f4a:	0f be       	out	0x3f, r0	; 63
    3f4c:	cd bf       	out	0x3d, r28	; 61
    3f4e:	df 91       	pop	r29
    3f50:	cf 91       	pop	r28
    3f52:	1f 91       	pop	r17
    3f54:	0f 91       	pop	r16
    3f56:	ff 90       	pop	r15
    3f58:	ef 90       	pop	r14
    3f5a:	df 90       	pop	r13
    3f5c:	cf 90       	pop	r12
    3f5e:	bf 90       	pop	r11
    3f60:	af 90       	pop	r10
    3f62:	9f 90       	pop	r9
    3f64:	8f 90       	pop	r8
    3f66:	08 95       	ret

00003f68 <decodeInt16toHoldReg>:
    3f68:	1f 93       	push	r17
    3f6a:	cf 93       	push	r28
    3f6c:	df 93       	push	r29
    3f6e:	fc 01       	movw	r30, r24
    3f70:	ee 5b       	subi	r30, 0xBE	; 190
    3f72:	ff 4f       	sbci	r31, 0xFF	; 255
    3f74:	20 81       	ld	r18, Z
    3f76:	22 30       	cpi	r18, 0x02	; 2
    3f78:	59 f5       	brne	.+86     	; 0x3fd0 <decodeInt16toHoldReg+0x68>
    3f7a:	32 97       	sbiw	r30, 0x02	; 2
    3f7c:	20 81       	ld	r18, Z
    3f7e:	31 81       	ldd	r19, Z+1	; 0x01
    3f80:	23 30       	cpi	r18, 0x03	; 3
    3f82:	31 05       	cpc	r19, r1
    3f84:	40 f5       	brcc	.+80     	; 0x3fd6 <decodeInt16toHoldReg+0x6e>
    3f86:	fb 01       	movw	r30, r22
    3f88:	11 82       	std	Z+1, r1	; 0x01
    3f8a:	10 82       	st	Z, r1
    3f8c:	fc 01       	movw	r30, r24
    3f8e:	e0 5c       	subi	r30, 0xC0	; 192
    3f90:	ff 4f       	sbci	r31, 0xFF	; 255
    3f92:	20 81       	ld	r18, Z
    3f94:	31 81       	ldd	r19, Z+1	; 0x01
    3f96:	21 15       	cp	r18, r1
    3f98:	31 05       	cpc	r19, r1
    3f9a:	f9 f0       	breq	.+62     	; 0x3fda <decodeInt16toHoldReg+0x72>
    3f9c:	16 2f       	mov	r17, r22
    3f9e:	e6 2f       	mov	r30, r22
    3fa0:	f7 2f       	mov	r31, r23
    3fa2:	40 e0       	ldi	r20, 0x00	; 0
    3fa4:	50 e0       	ldi	r21, 0x00	; 0
    3fa6:	ec 01       	movw	r28, r24
    3fa8:	c0 5c       	subi	r28, 0xC0	; 192
    3faa:	df 4f       	sbci	r29, 0xFF	; 255
    3fac:	40 95       	com	r20
    3fae:	50 95       	com	r21
    3fb0:	28 0f       	add	r18, r24
    3fb2:	39 1f       	adc	r19, r25
    3fb4:	d9 01       	movw	r26, r18
    3fb6:	a4 0f       	add	r26, r20
    3fb8:	b5 1f       	adc	r27, r21
    3fba:	2c 91       	ld	r18, X
    3fbc:	21 93       	st	Z+, r18
    3fbe:	4e 2f       	mov	r20, r30
    3fc0:	41 1b       	sub	r20, r17
    3fc2:	50 e0       	ldi	r21, 0x00	; 0
    3fc4:	28 81       	ld	r18, Y
    3fc6:	39 81       	ldd	r19, Y+1	; 0x01
    3fc8:	42 17       	cp	r20, r18
    3fca:	53 07       	cpc	r21, r19
    3fcc:	78 f3       	brcs	.-34     	; 0x3fac <decodeInt16toHoldReg+0x44>
    3fce:	07 c0       	rjmp	.+14     	; 0x3fde <decodeInt16toHoldReg+0x76>
    3fd0:	d9 de       	rcall	.-590    	; 0x3d84 <clear>
    3fd2:	87 e0       	ldi	r24, 0x07	; 7
    3fd4:	05 c0       	rjmp	.+10     	; 0x3fe0 <decodeInt16toHoldReg+0x78>
    3fd6:	81 e0       	ldi	r24, 0x01	; 1
    3fd8:	03 c0       	rjmp	.+6      	; 0x3fe0 <decodeInt16toHoldReg+0x78>
    3fda:	80 e0       	ldi	r24, 0x00	; 0
    3fdc:	01 c0       	rjmp	.+2      	; 0x3fe0 <decodeInt16toHoldReg+0x78>
    3fde:	80 e0       	ldi	r24, 0x00	; 0
    3fe0:	df 91       	pop	r29
    3fe2:	cf 91       	pop	r28
    3fe4:	1f 91       	pop	r17
    3fe6:	08 95       	ret

00003fe8 <encodeStringToOctetString>:
    3fe8:	cf 93       	push	r28
    3fea:	20 e4       	ldi	r18, 0x40	; 64
    3fec:	fc 01       	movw	r30, r24
    3fee:	11 92       	st	Z+, r1
    3ff0:	2a 95       	dec	r18
    3ff2:	e9 f7       	brne	.-6      	; 0x3fee <encodeStringToOctetString+0x6>
    3ff4:	26 2f       	mov	r18, r22
    3ff6:	2f 7b       	andi	r18, 0xBF	; 191
    3ff8:	24 30       	cpi	r18, 0x04	; 4
    3ffa:	c9 f5       	brne	.+114    	; 0x406e <encodeStringToOctetString+0x86>
    3ffc:	fa 01       	movw	r30, r20
    3ffe:	01 90       	ld	r0, Z+
    4000:	00 20       	and	r0, r0
    4002:	e9 f7       	brne	.-6      	; 0x3ffe <encodeStringToOctetString+0x16>
    4004:	9f 01       	movw	r18, r30
    4006:	24 1b       	sub	r18, r20
    4008:	35 0b       	sbc	r19, r21
    400a:	22 50       	subi	r18, 0x02	; 2
    400c:	31 09       	sbc	r19, r1
    400e:	20 34       	cpi	r18, 0x40	; 64
    4010:	31 05       	cpc	r19, r1
    4012:	50 f5       	brcc	.+84     	; 0x4068 <encodeStringToOctetString+0x80>
    4014:	fc 01       	movw	r30, r24
    4016:	ee 5b       	subi	r30, 0xBE	; 190
    4018:	ff 4f       	sbci	r31, 0xFF	; 255
    401a:	60 83       	st	Z, r22
    401c:	fa 01       	movw	r30, r20
    401e:	01 90       	ld	r0, Z+
    4020:	00 20       	and	r0, r0
    4022:	e9 f7       	brne	.-6      	; 0x401e <encodeStringToOctetString+0x36>
    4024:	31 97       	sbiw	r30, 0x01	; 1
    4026:	bf 01       	movw	r22, r30
    4028:	64 1b       	sub	r22, r20
    402a:	75 0b       	sbc	r23, r21
    402c:	fc 01       	movw	r30, r24
    402e:	e0 5c       	subi	r30, 0xC0	; 192
    4030:	ff 4f       	sbci	r31, 0xFF	; 255
    4032:	71 83       	std	Z+1, r23	; 0x01
    4034:	60 83       	st	Z, r22
    4036:	33 96       	adiw	r30, 0x03	; 3
    4038:	10 82       	st	Z, r1
    403a:	61 15       	cp	r22, r1
    403c:	71 05       	cpc	r23, r1
    403e:	d1 f0       	breq	.+52     	; 0x4074 <encodeStringToOctetString+0x8c>
    4040:	20 e0       	ldi	r18, 0x00	; 0
    4042:	30 e0       	ldi	r19, 0x00	; 0
    4044:	c0 e0       	ldi	r28, 0x00	; 0
    4046:	df 01       	movw	r26, r30
    4048:	fa 01       	movw	r30, r20
    404a:	e2 0f       	add	r30, r18
    404c:	f3 1f       	adc	r31, r19
    404e:	20 81       	ld	r18, Z
    4050:	fc 01       	movw	r30, r24
    4052:	ec 0f       	add	r30, r28
    4054:	f1 1d       	adc	r31, r1
    4056:	20 83       	st	Z, r18
    4058:	cf 5f       	subi	r28, 0xFF	; 255
    405a:	cc 93       	st	X, r28
    405c:	2c 2f       	mov	r18, r28
    405e:	30 e0       	ldi	r19, 0x00	; 0
    4060:	26 17       	cp	r18, r22
    4062:	37 07       	cpc	r19, r23
    4064:	88 f3       	brcs	.-30     	; 0x4048 <encodeStringToOctetString+0x60>
    4066:	08 c0       	rjmp	.+16     	; 0x4078 <encodeStringToOctetString+0x90>
    4068:	8d de       	rcall	.-742    	; 0x3d84 <clear>
    406a:	81 e0       	ldi	r24, 0x01	; 1
    406c:	06 c0       	rjmp	.+12     	; 0x407a <encodeStringToOctetString+0x92>
    406e:	8a de       	rcall	.-748    	; 0x3d84 <clear>
    4070:	87 e0       	ldi	r24, 0x07	; 7
    4072:	03 c0       	rjmp	.+6      	; 0x407a <encodeStringToOctetString+0x92>
    4074:	80 e0       	ldi	r24, 0x00	; 0
    4076:	01 c0       	rjmp	.+2      	; 0x407a <encodeStringToOctetString+0x92>
    4078:	80 e0       	ldi	r24, 0x00	; 0
    407a:	cf 91       	pop	r28
    407c:	08 95       	ret

0000407e <encodeInt16ToInt>:
    407e:	20 e4       	ldi	r18, 0x40	; 64
    4080:	fc 01       	movw	r30, r24
    4082:	11 92       	st	Z+, r1
    4084:	2a 95       	dec	r18
    4086:	e9 f7       	brne	.-6      	; 0x4082 <encodeInt16ToInt+0x4>
    4088:	62 30       	cpi	r22, 0x02	; 2
    408a:	11 f0       	breq	.+4      	; 0x4090 <encodeInt16ToInt+0x12>
    408c:	64 34       	cpi	r22, 0x44	; 68
    408e:	71 f4       	brne	.+28     	; 0x40ac <encodeInt16ToInt+0x2e>
    4090:	fc 01       	movw	r30, r24
    4092:	e0 5c       	subi	r30, 0xC0	; 192
    4094:	ff 4f       	sbci	r31, 0xFF	; 255
    4096:	22 e0       	ldi	r18, 0x02	; 2
    4098:	30 e0       	ldi	r19, 0x00	; 0
    409a:	31 83       	std	Z+1, r19	; 0x01
    409c:	20 83       	st	Z, r18
    409e:	32 96       	adiw	r30, 0x02	; 2
    40a0:	60 83       	st	Z, r22
    40a2:	fc 01       	movw	r30, r24
    40a4:	50 83       	st	Z, r21
    40a6:	41 83       	std	Z+1, r20	; 0x01
    40a8:	80 e0       	ldi	r24, 0x00	; 0
    40aa:	08 95       	ret
    40ac:	6b de       	rcall	.-810    	; 0x3d84 <clear>
    40ae:	87 e0       	ldi	r24, 0x07	; 7
    40b0:	08 95       	ret

000040b2 <encodeInt32ToInt32>:
    40b2:	70 e4       	ldi	r23, 0x40	; 64
    40b4:	fc 01       	movw	r30, r24
    40b6:	11 92       	st	Z+, r1
    40b8:	7a 95       	dec	r23
    40ba:	e9 f7       	brne	.-6      	; 0x40b6 <encodeInt32ToInt32+0x4>
    40bc:	62 30       	cpi	r22, 0x02	; 2
    40be:	11 f0       	breq	.+4      	; 0x40c4 <encodeInt32ToInt32+0x12>
    40c0:	64 34       	cpi	r22, 0x44	; 68
    40c2:	81 f4       	brne	.+32     	; 0x40e4 <encodeInt32ToInt32+0x32>
    40c4:	fc 01       	movw	r30, r24
    40c6:	e0 5c       	subi	r30, 0xC0	; 192
    40c8:	ff 4f       	sbci	r31, 0xFF	; 255
    40ca:	a4 e0       	ldi	r26, 0x04	; 4
    40cc:	b0 e0       	ldi	r27, 0x00	; 0
    40ce:	b1 83       	std	Z+1, r27	; 0x01
    40d0:	a0 83       	st	Z, r26
    40d2:	32 96       	adiw	r30, 0x02	; 2
    40d4:	60 83       	st	Z, r22
    40d6:	fc 01       	movw	r30, r24
    40d8:	50 83       	st	Z, r21
    40da:	41 83       	std	Z+1, r20	; 0x01
    40dc:	32 83       	std	Z+2, r19	; 0x02
    40de:	23 83       	std	Z+3, r18	; 0x03
    40e0:	80 e0       	ldi	r24, 0x00	; 0
    40e2:	08 95       	ret
    40e4:	4f de       	rcall	.-866    	; 0x3d84 <clear>
    40e6:	87 e0       	ldi	r24, 0x07	; 7
    40e8:	08 95       	ret

000040ea <encodeUint32ToUint32>:
    40ea:	fc 01       	movw	r30, r24
    40ec:	80 e4       	ldi	r24, 0x40	; 64
    40ee:	df 01       	movw	r26, r30
    40f0:	1d 92       	st	X+, r1
    40f2:	8a 95       	dec	r24
    40f4:	e9 f7       	brne	.-6      	; 0x40f0 <encodeUint32ToUint32+0x6>
    40f6:	8f eb       	ldi	r24, 0xBF	; 191
    40f8:	86 0f       	add	r24, r22
    40fa:	84 30       	cpi	r24, 0x04	; 4
    40fc:	10 f0       	brcs	.+4      	; 0x4102 <encodeUint32ToUint32+0x18>
    40fe:	67 34       	cpi	r22, 0x47	; 71
    4100:	81 f4       	brne	.+32     	; 0x4122 <encodeUint32ToUint32+0x38>
    4102:	df 01       	movw	r26, r30
    4104:	a0 5c       	subi	r26, 0xC0	; 192
    4106:	bf 4f       	sbci	r27, 0xFF	; 255
    4108:	84 e0       	ldi	r24, 0x04	; 4
    410a:	90 e0       	ldi	r25, 0x00	; 0
    410c:	11 96       	adiw	r26, 0x01	; 1
    410e:	9c 93       	st	X, r25
    4110:	8e 93       	st	-X, r24
    4112:	12 96       	adiw	r26, 0x02	; 2
    4114:	6c 93       	st	X, r22
    4116:	50 83       	st	Z, r21
    4118:	41 83       	std	Z+1, r20	; 0x01
    411a:	32 83       	std	Z+2, r19	; 0x02
    411c:	23 83       	std	Z+3, r18	; 0x03
    411e:	80 e0       	ldi	r24, 0x00	; 0
    4120:	08 95       	ret
    4122:	cf 01       	movw	r24, r30
    4124:	2f de       	rcall	.-930    	; 0x3d84 <clear>
    4126:	87 e0       	ldi	r24, 0x07	; 7
    4128:	08 95       	ret

0000412a <GetOIDCount>:
    412a:	dc 01       	movw	r26, r24
    412c:	0d 90       	ld	r0, X+
    412e:	00 20       	and	r0, r0
    4130:	e9 f7       	brne	.-6      	; 0x412c <GetOIDCount+0x2>
    4132:	fc 01       	movw	r30, r24
    4134:	9d 01       	movw	r18, r26
    4136:	21 50       	subi	r18, 0x01	; 1
    4138:	31 09       	sbc	r19, r1
    413a:	80 e0       	ldi	r24, 0x00	; 0
    413c:	90 e0       	ldi	r25, 0x00	; 0
    413e:	04 c0       	rjmp	.+8      	; 0x4148 <GetOIDCount+0x1e>
    4140:	41 91       	ld	r20, Z+
    4142:	4e 32       	cpi	r20, 0x2E	; 46
    4144:	09 f4       	brne	.+2      	; 0x4148 <GetOIDCount+0x1e>
    4146:	01 96       	adiw	r24, 0x01	; 1
    4148:	e2 17       	cp	r30, r18
    414a:	f3 07       	cpc	r31, r19
    414c:	c9 f7       	brne	.-14     	; 0x4140 <GetOIDCount+0x16>
    414e:	01 96       	adiw	r24, 0x01	; 1
    4150:	08 95       	ret

00004152 <GetNVal_FromOID_String>:
    4152:	cf 92       	push	r12
    4154:	df 92       	push	r13
    4156:	ef 92       	push	r14
    4158:	ff 92       	push	r15
    415a:	0f 93       	push	r16
    415c:	1f 93       	push	r17
    415e:	cf 93       	push	r28
    4160:	df 93       	push	r29
    4162:	cd b7       	in	r28, 0x3d	; 61
    4164:	de b7       	in	r29, 0x3e	; 62
    4166:	28 97       	sbiw	r28, 0x08	; 8
    4168:	0f b6       	in	r0, 0x3f	; 63
    416a:	f8 94       	cli
    416c:	de bf       	out	0x3e, r29	; 62
    416e:	0f be       	out	0x3f, r0	; 63
    4170:	cd bf       	out	0x3d, r28	; 61
    4172:	6c 01       	movw	r12, r24
    4174:	db 01       	movw	r26, r22
    4176:	e1 2c       	mov	r14, r1
    4178:	f1 2c       	mov	r15, r1
    417a:	40 e0       	ldi	r20, 0x00	; 0
    417c:	50 e0       	ldi	r21, 0x00	; 0
    417e:	20 e0       	ldi	r18, 0x00	; 0
    4180:	30 e0       	ldi	r19, 0x00	; 0
    4182:	8c 01       	movw	r16, r24
    4184:	01 50       	subi	r16, 0x01	; 1
    4186:	11 09       	sbc	r17, r1
    4188:	16 c0       	rjmp	.+44     	; 0x41b6 <GetNVal_FromOID_String+0x64>
    418a:	04 17       	cp	r16, r20
    418c:	15 07       	cpc	r17, r21
    418e:	61 f4       	brne	.+24     	; 0x41a8 <GetNVal_FromOID_String+0x56>
    4190:	8e 32       	cpi	r24, 0x2E	; 46
    4192:	51 f0       	breq	.+20     	; 0x41a8 <GetNVal_FromOID_String+0x56>
    4194:	e1 e0       	ldi	r30, 0x01	; 1
    4196:	f0 e0       	ldi	r31, 0x00	; 0
    4198:	ec 0f       	add	r30, r28
    419a:	fd 1f       	adc	r31, r29
    419c:	ee 0d       	add	r30, r14
    419e:	ff 1d       	adc	r31, r15
    41a0:	80 83       	st	Z, r24
    41a2:	8f ef       	ldi	r24, 0xFF	; 255
    41a4:	e8 1a       	sub	r14, r24
    41a6:	f8 0a       	sbc	r15, r24
    41a8:	2f 5f       	subi	r18, 0xFF	; 255
    41aa:	3f 4f       	sbci	r19, 0xFF	; 255
    41ac:	ec 91       	ld	r30, X
    41ae:	ee 32       	cpi	r30, 0x2E	; 46
    41b0:	11 f4       	brne	.+4      	; 0x41b6 <GetNVal_FromOID_String+0x64>
    41b2:	4f 5f       	subi	r20, 0xFF	; 255
    41b4:	5f 4f       	sbci	r21, 0xFF	; 255
    41b6:	8d 91       	ld	r24, X+
    41b8:	8e 32       	cpi	r24, 0x2E	; 46
    41ba:	19 f4       	brne	.+6      	; 0x41c2 <GetNVal_FromOID_String+0x70>
    41bc:	4c 15       	cp	r20, r12
    41be:	5d 05       	cpc	r21, r13
    41c0:	50 f4       	brcc	.+20     	; 0x41d6 <GetNVal_FromOID_String+0x84>
    41c2:	fb 01       	movw	r30, r22
    41c4:	01 90       	ld	r0, Z+
    41c6:	00 20       	and	r0, r0
    41c8:	e9 f7       	brne	.-6      	; 0x41c4 <GetNVal_FromOID_String+0x72>
    41ca:	31 97       	sbiw	r30, 0x01	; 1
    41cc:	e6 1b       	sub	r30, r22
    41ce:	f7 0b       	sbc	r31, r23
    41d0:	2e 17       	cp	r18, r30
    41d2:	3f 07       	cpc	r19, r31
    41d4:	d0 f2       	brcs	.-76     	; 0x418a <GetNVal_FromOID_String+0x38>
    41d6:	fe 01       	movw	r30, r28
    41d8:	ee 0d       	add	r30, r14
    41da:	ff 1d       	adc	r31, r15
    41dc:	12 82       	std	Z+2, r1	; 0x02
    41de:	ce 01       	movw	r24, r28
    41e0:	07 96       	adiw	r24, 0x07	; 7
    41e2:	9f 93       	push	r25
    41e4:	8f 93       	push	r24
    41e6:	8c e7       	ldi	r24, 0x7C	; 124
    41e8:	93 e0       	ldi	r25, 0x03	; 3
    41ea:	9f 93       	push	r25
    41ec:	8f 93       	push	r24
    41ee:	ce 01       	movw	r24, r28
    41f0:	01 96       	adiw	r24, 0x01	; 1
    41f2:	9f 93       	push	r25
    41f4:	8f 93       	push	r24
    41f6:	0e 94 73 31 	call	0x62e6	; 0x62e6 <sscanf>
    41fa:	0f 90       	pop	r0
    41fc:	0f 90       	pop	r0
    41fe:	0f 90       	pop	r0
    4200:	0f 90       	pop	r0
    4202:	0f 90       	pop	r0
    4204:	0f 90       	pop	r0
    4206:	8f 81       	ldd	r24, Y+7	; 0x07
    4208:	98 85       	ldd	r25, Y+8	; 0x08
    420a:	28 96       	adiw	r28, 0x08	; 8
    420c:	0f b6       	in	r0, 0x3f	; 63
    420e:	f8 94       	cli
    4210:	de bf       	out	0x3e, r29	; 62
    4212:	0f be       	out	0x3f, r0	; 63
    4214:	cd bf       	out	0x3d, r28	; 61
    4216:	df 91       	pop	r29
    4218:	cf 91       	pop	r28
    421a:	1f 91       	pop	r17
    421c:	0f 91       	pop	r16
    421e:	ff 90       	pop	r15
    4220:	ef 90       	pop	r14
    4222:	df 90       	pop	r13
    4224:	cf 90       	pop	r12
    4226:	08 95       	ret

00004228 <CompareOIDS>:
    4228:	af 92       	push	r10
    422a:	bf 92       	push	r11
    422c:	cf 92       	push	r12
    422e:	df 92       	push	r13
    4230:	ef 92       	push	r14
    4232:	ff 92       	push	r15
    4234:	0f 93       	push	r16
    4236:	1f 93       	push	r17
    4238:	cf 93       	push	r28
    423a:	df 93       	push	r29
    423c:	7c 01       	movw	r14, r24
    423e:	8b 01       	movw	r16, r22
    4240:	74 df       	rcall	.-280    	; 0x412a <GetOIDCount>
    4242:	ec 01       	movw	r28, r24
    4244:	c8 01       	movw	r24, r16
    4246:	71 df       	rcall	.-286    	; 0x412a <GetOIDCount>
    4248:	8c 17       	cp	r24, r28
    424a:	9d 07       	cpc	r25, r29
    424c:	38 f5       	brcc	.+78     	; 0x429c <CompareOIDS+0x74>
    424e:	c1 e0       	ldi	r28, 0x01	; 1
    4250:	d0 e0       	ldi	r29, 0x00	; 0
    4252:	19 c0       	rjmp	.+50     	; 0x4286 <CompareOIDS+0x5e>
    4254:	b7 01       	movw	r22, r14
    4256:	ce 01       	movw	r24, r28
    4258:	7c df       	rcall	.-264    	; 0x4152 <GetNVal_FromOID_String>
    425a:	6c 01       	movw	r12, r24
    425c:	b8 01       	movw	r22, r16
    425e:	ce 01       	movw	r24, r28
    4260:	78 df       	rcall	.-272    	; 0x4152 <GetNVal_FromOID_String>
    4262:	8c 15       	cp	r24, r12
    4264:	9d 05       	cpc	r25, r13
    4266:	08 f4       	brcc	.+2      	; 0x426a <CompareOIDS+0x42>
    4268:	6c c0       	rjmp	.+216    	; 0x4342 <CompareOIDS+0x11a>
    426a:	b7 01       	movw	r22, r14
    426c:	8a 2d       	mov	r24, r10
    426e:	9b 2d       	mov	r25, r11
    4270:	70 df       	rcall	.-288    	; 0x4152 <GetNVal_FromOID_String>
    4272:	6c 01       	movw	r12, r24
    4274:	b8 01       	movw	r22, r16
    4276:	8a 2d       	mov	r24, r10
    4278:	9b 2d       	mov	r25, r11
    427a:	6b df       	rcall	.-298    	; 0x4152 <GetNVal_FromOID_String>
    427c:	c8 16       	cp	r12, r24
    427e:	d9 06       	cpc	r13, r25
    4280:	08 f4       	brcc	.+2      	; 0x4284 <CompareOIDS+0x5c>
    4282:	62 c0       	rjmp	.+196    	; 0x4348 <CompareOIDS+0x120>
    4284:	21 96       	adiw	r28, 0x01	; 1
    4286:	ac 2e       	mov	r10, r28
    4288:	bd 2e       	mov	r11, r29
    428a:	c8 01       	movw	r24, r16
    428c:	4e df       	rcall	.-356    	; 0x412a <GetOIDCount>
    428e:	01 96       	adiw	r24, 0x01	; 1
    4290:	c8 17       	cp	r28, r24
    4292:	d9 07       	cpc	r29, r25
    4294:	f8 f2       	brcs	.-66     	; 0x4254 <CompareOIDS+0x2c>
    4296:	81 e0       	ldi	r24, 0x01	; 1
    4298:	90 e0       	ldi	r25, 0x00	; 0
    429a:	64 c0       	rjmp	.+200    	; 0x4364 <CompareOIDS+0x13c>
    429c:	c8 17       	cp	r28, r24
    429e:	d9 07       	cpc	r29, r25
    42a0:	38 f5       	brcc	.+78     	; 0x42f0 <CompareOIDS+0xc8>
    42a2:	c1 e0       	ldi	r28, 0x01	; 1
    42a4:	d0 e0       	ldi	r29, 0x00	; 0
    42a6:	19 c0       	rjmp	.+50     	; 0x42da <CompareOIDS+0xb2>
    42a8:	b7 01       	movw	r22, r14
    42aa:	ce 01       	movw	r24, r28
    42ac:	52 df       	rcall	.-348    	; 0x4152 <GetNVal_FromOID_String>
    42ae:	6c 01       	movw	r12, r24
    42b0:	b8 01       	movw	r22, r16
    42b2:	ce 01       	movw	r24, r28
    42b4:	4e df       	rcall	.-356    	; 0x4152 <GetNVal_FromOID_String>
    42b6:	8c 15       	cp	r24, r12
    42b8:	9d 05       	cpc	r25, r13
    42ba:	08 f4       	brcc	.+2      	; 0x42be <CompareOIDS+0x96>
    42bc:	48 c0       	rjmp	.+144    	; 0x434e <CompareOIDS+0x126>
    42be:	b7 01       	movw	r22, r14
    42c0:	8a 2d       	mov	r24, r10
    42c2:	9b 2d       	mov	r25, r11
    42c4:	46 df       	rcall	.-372    	; 0x4152 <GetNVal_FromOID_String>
    42c6:	6c 01       	movw	r12, r24
    42c8:	b8 01       	movw	r22, r16
    42ca:	8a 2d       	mov	r24, r10
    42cc:	9b 2d       	mov	r25, r11
    42ce:	41 df       	rcall	.-382    	; 0x4152 <GetNVal_FromOID_String>
    42d0:	c8 16       	cp	r12, r24
    42d2:	d9 06       	cpc	r13, r25
    42d4:	08 f4       	brcc	.+2      	; 0x42d8 <CompareOIDS+0xb0>
    42d6:	3e c0       	rjmp	.+124    	; 0x4354 <CompareOIDS+0x12c>
    42d8:	21 96       	adiw	r28, 0x01	; 1
    42da:	ac 2e       	mov	r10, r28
    42dc:	bd 2e       	mov	r11, r29
    42de:	c7 01       	movw	r24, r14
    42e0:	24 df       	rcall	.-440    	; 0x412a <GetOIDCount>
    42e2:	01 96       	adiw	r24, 0x01	; 1
    42e4:	c8 17       	cp	r28, r24
    42e6:	d9 07       	cpc	r29, r25
    42e8:	f8 f2       	brcs	.-66     	; 0x42a8 <CompareOIDS+0x80>
    42ea:	8f ef       	ldi	r24, 0xFF	; 255
    42ec:	9f ef       	ldi	r25, 0xFF	; 255
    42ee:	3a c0       	rjmp	.+116    	; 0x4364 <CompareOIDS+0x13c>
    42f0:	c8 17       	cp	r28, r24
    42f2:	d9 07       	cpc	r29, r25
    42f4:	29 f5       	brne	.+74     	; 0x4340 <CompareOIDS+0x118>
    42f6:	c1 e0       	ldi	r28, 0x01	; 1
    42f8:	d0 e0       	ldi	r29, 0x00	; 0
    42fa:	17 c0       	rjmp	.+46     	; 0x432a <CompareOIDS+0x102>
    42fc:	b7 01       	movw	r22, r14
    42fe:	ce 01       	movw	r24, r28
    4300:	28 df       	rcall	.-432    	; 0x4152 <GetNVal_FromOID_String>
    4302:	6c 01       	movw	r12, r24
    4304:	b8 01       	movw	r22, r16
    4306:	ce 01       	movw	r24, r28
    4308:	24 df       	rcall	.-440    	; 0x4152 <GetNVal_FromOID_String>
    430a:	8c 15       	cp	r24, r12
    430c:	9d 05       	cpc	r25, r13
    430e:	28 f1       	brcs	.+74     	; 0x435a <CompareOIDS+0x132>
    4310:	b7 01       	movw	r22, r14
    4312:	8a 2d       	mov	r24, r10
    4314:	9b 2d       	mov	r25, r11
    4316:	1d df       	rcall	.-454    	; 0x4152 <GetNVal_FromOID_String>
    4318:	6c 01       	movw	r12, r24
    431a:	b8 01       	movw	r22, r16
    431c:	8a 2d       	mov	r24, r10
    431e:	9b 2d       	mov	r25, r11
    4320:	18 df       	rcall	.-464    	; 0x4152 <GetNVal_FromOID_String>
    4322:	c8 16       	cp	r12, r24
    4324:	d9 06       	cpc	r13, r25
    4326:	e0 f0       	brcs	.+56     	; 0x4360 <CompareOIDS+0x138>
    4328:	21 96       	adiw	r28, 0x01	; 1
    432a:	ac 2e       	mov	r10, r28
    432c:	bd 2e       	mov	r11, r29
    432e:	c7 01       	movw	r24, r14
    4330:	fc de       	rcall	.-520    	; 0x412a <GetOIDCount>
    4332:	01 96       	adiw	r24, 0x01	; 1
    4334:	c8 17       	cp	r28, r24
    4336:	d9 07       	cpc	r29, r25
    4338:	08 f3       	brcs	.-62     	; 0x42fc <CompareOIDS+0xd4>
    433a:	8f ef       	ldi	r24, 0xFF	; 255
    433c:	9f ef       	ldi	r25, 0xFF	; 255
    433e:	12 c0       	rjmp	.+36     	; 0x4364 <CompareOIDS+0x13c>
    4340:	11 c0       	rjmp	.+34     	; 0x4364 <CompareOIDS+0x13c>
    4342:	81 e0       	ldi	r24, 0x01	; 1
    4344:	90 e0       	ldi	r25, 0x00	; 0
    4346:	0e c0       	rjmp	.+28     	; 0x4364 <CompareOIDS+0x13c>
    4348:	8f ef       	ldi	r24, 0xFF	; 255
    434a:	9f ef       	ldi	r25, 0xFF	; 255
    434c:	0b c0       	rjmp	.+22     	; 0x4364 <CompareOIDS+0x13c>
    434e:	81 e0       	ldi	r24, 0x01	; 1
    4350:	90 e0       	ldi	r25, 0x00	; 0
    4352:	08 c0       	rjmp	.+16     	; 0x4364 <CompareOIDS+0x13c>
    4354:	8f ef       	ldi	r24, 0xFF	; 255
    4356:	9f ef       	ldi	r25, 0xFF	; 255
    4358:	05 c0       	rjmp	.+10     	; 0x4364 <CompareOIDS+0x13c>
    435a:	81 e0       	ldi	r24, 0x01	; 1
    435c:	90 e0       	ldi	r25, 0x00	; 0
    435e:	02 c0       	rjmp	.+4      	; 0x4364 <CompareOIDS+0x13c>
    4360:	8f ef       	ldi	r24, 0xFF	; 255
    4362:	9f ef       	ldi	r25, 0xFF	; 255
    4364:	df 91       	pop	r29
    4366:	cf 91       	pop	r28
    4368:	1f 91       	pop	r17
    436a:	0f 91       	pop	r16
    436c:	ff 90       	pop	r15
    436e:	ef 90       	pop	r14
    4370:	df 90       	pop	r13
    4372:	cf 90       	pop	r12
    4374:	bf 90       	pop	r11
    4376:	af 90       	pop	r10
    4378:	08 95       	ret

0000437a <GetNextOid>:
    437a:	ef 92       	push	r14
    437c:	ff 92       	push	r15
    437e:	0f 93       	push	r16
    4380:	1f 93       	push	r17
    4382:	cf 93       	push	r28
    4384:	df 93       	push	r29
    4386:	7c 01       	movw	r14, r24
    4388:	04 e0       	ldi	r16, 0x04	; 4
    438a:	12 e0       	ldi	r17, 0x02	; 2
    438c:	c0 e0       	ldi	r28, 0x00	; 0
    438e:	d0 e0       	ldi	r29, 0x00	; 0
    4390:	f8 01       	movw	r30, r16
    4392:	60 81       	ld	r22, Z
    4394:	71 81       	ldd	r23, Z+1	; 0x01
    4396:	c7 01       	movw	r24, r14
    4398:	47 df       	rcall	.-370    	; 0x4228 <CompareOIDS>
    439a:	01 96       	adiw	r24, 0x01	; 1
    439c:	39 f0       	breq	.+14     	; 0x43ac <GetNextOid+0x32>
    439e:	21 96       	adiw	r28, 0x01	; 1
    43a0:	09 5f       	subi	r16, 0xF9	; 249
    43a2:	1f 4f       	sbci	r17, 0xFF	; 255
    43a4:	c3 32       	cpi	r28, 0x23	; 35
    43a6:	d1 05       	cpc	r29, r1
    43a8:	99 f7       	brne	.-26     	; 0x4390 <GetNextOid+0x16>
    43aa:	03 c0       	rjmp	.+6      	; 0x43b2 <GetNextOid+0x38>
    43ac:	8c 2f       	mov	r24, r28
    43ae:	9d 2f       	mov	r25, r29
    43b0:	02 c0       	rjmp	.+4      	; 0x43b6 <GetNextOid+0x3c>
    43b2:	8f ef       	ldi	r24, 0xFF	; 255
    43b4:	9f ef       	ldi	r25, 0xFF	; 255
    43b6:	df 91       	pop	r29
    43b8:	cf 91       	pop	r28
    43ba:	1f 91       	pop	r17
    43bc:	0f 91       	pop	r16
    43be:	ff 90       	pop	r15
    43c0:	ef 90       	pop	r14
    43c2:	08 95       	ret

000043c4 <Encode>:
    43c4:	fa 01       	movw	r30, r20
    43c6:	22 30       	cpi	r18, 0x02	; 2
    43c8:	49 f4       	brne	.+18     	; 0x43dc <Encode+0x18>
    43ca:	61 30       	cpi	r22, 0x01	; 1
    43cc:	e9 f4       	brne	.+58     	; 0x4408 <Encode+0x44>
    43ce:	dc 01       	movw	r26, r24
    43d0:	4d 91       	ld	r20, X+
    43d2:	5c 91       	ld	r21, X
    43d4:	62 e0       	ldi	r22, 0x02	; 2
    43d6:	cf 01       	movw	r24, r30
    43d8:	52 ce       	rjmp	.-860    	; 0x407e <encodeInt16ToInt>
    43da:	08 95       	ret
    43dc:	24 30       	cpi	r18, 0x04	; 4
    43de:	39 f4       	brne	.+14     	; 0x43ee <Encode+0x2a>
    43e0:	62 30       	cpi	r22, 0x02	; 2
    43e2:	f9 f4       	brne	.+62     	; 0x4422 <Encode+0x5e>
    43e4:	ac 01       	movw	r20, r24
    43e6:	64 e0       	ldi	r22, 0x04	; 4
    43e8:	cf 01       	movw	r24, r30
    43ea:	fe cd       	rjmp	.-1028   	; 0x3fe8 <encodeStringToOctetString>
    43ec:	08 95       	ret
    43ee:	23 34       	cpi	r18, 0x43	; 67
    43f0:	59 f4       	brne	.+22     	; 0x4408 <Encode+0x44>
    43f2:	63 30       	cpi	r22, 0x03	; 3
    43f4:	b1 f4       	brne	.+44     	; 0x4422 <Encode+0x5e>
    43f6:	dc 01       	movw	r26, r24
    43f8:	2d 91       	ld	r18, X+
    43fa:	3d 91       	ld	r19, X+
    43fc:	4d 91       	ld	r20, X+
    43fe:	5c 91       	ld	r21, X
    4400:	63 e4       	ldi	r22, 0x43	; 67
    4402:	cf 01       	movw	r24, r30
    4404:	72 ce       	rjmp	.-796    	; 0x40ea <encodeUint32ToUint32>
    4406:	08 95       	ret
    4408:	22 30       	cpi	r18, 0x02	; 2
    440a:	59 f4       	brne	.+22     	; 0x4422 <Encode+0x5e>
    440c:	64 30       	cpi	r22, 0x04	; 4
    440e:	49 f4       	brne	.+18     	; 0x4422 <Encode+0x5e>
    4410:	dc 01       	movw	r26, r24
    4412:	2d 91       	ld	r18, X+
    4414:	3d 91       	ld	r19, X+
    4416:	4d 91       	ld	r20, X+
    4418:	5c 91       	ld	r21, X
    441a:	62 e0       	ldi	r22, 0x02	; 2
    441c:	cf 01       	movw	r24, r30
    441e:	49 ce       	rjmp	.-878    	; 0x40b2 <encodeInt32ToInt32>
    4420:	08 95       	ret
    4422:	08 95       	ret

00004424 <Decode>:
    4424:	22 30       	cpi	r18, 0x02	; 2
    4426:	79 f4       	brne	.+30     	; 0x4446 <Decode+0x22>
    4428:	64 30       	cpi	r22, 0x04	; 4
    442a:	11 f5       	brne	.+68     	; 0x4470 <Decode+0x4c>
    442c:	e5 e2       	ldi	r30, 0x25	; 37
    442e:	f3 e0       	ldi	r31, 0x03	; 3
    4430:	01 90       	ld	r0, Z+
    4432:	00 20       	and	r0, r0
    4434:	e9 f7       	brne	.-6      	; 0x4430 <Decode+0xc>
    4436:	31 97       	sbiw	r30, 0x01	; 1
    4438:	af 01       	movw	r20, r30
    443a:	45 52       	subi	r20, 0x25	; 37
    443c:	53 40       	sbci	r21, 0x03	; 3
    443e:	65 e2       	ldi	r22, 0x25	; 37
    4440:	73 e0       	ldi	r23, 0x03	; 3
    4442:	ab cc       	rjmp	.-1706   	; 0x3d9a <decodeOctetStringToString>
    4444:	08 95       	ret
    4446:	21 30       	cpi	r18, 0x01	; 1
    4448:	29 f4       	brne	.+10     	; 0x4454 <Decode+0x30>
    444a:	62 30       	cpi	r22, 0x02	; 2
    444c:	61 f4       	brne	.+24     	; 0x4466 <Decode+0x42>
    444e:	ba 01       	movw	r22, r20
    4450:	8b cd       	rjmp	.-1258   	; 0x3f68 <decodeInt16toHoldReg>
    4452:	08 95       	ret
    4454:	63 34       	cpi	r22, 0x43	; 67
    4456:	19 f4       	brne	.+6      	; 0x445e <Decode+0x3a>
    4458:	23 30       	cpi	r18, 0x03	; 3
    445a:	29 f4       	brne	.+10     	; 0x4466 <Decode+0x42>
    445c:	05 c0       	rjmp	.+10     	; 0x4468 <Decode+0x44>
    445e:	62 30       	cpi	r22, 0x02	; 2
    4460:	11 f4       	brne	.+4      	; 0x4466 <Decode+0x42>
    4462:	24 30       	cpi	r18, 0x04	; 4
    4464:	19 f0       	breq	.+6      	; 0x446c <Decode+0x48>
    4466:	08 95       	ret
    4468:	80 e0       	ldi	r24, 0x00	; 0
    446a:	08 95       	ret
    446c:	80 e0       	ldi	r24, 0x00	; 0
    446e:	08 95       	ret
    4470:	63 34       	cpi	r22, 0x43	; 67
    4472:	a9 f7       	brne	.-22     	; 0x445e <Decode+0x3a>
    4474:	f8 cf       	rjmp	.-16     	; 0x4466 <Decode+0x42>

00004476 <SNMP_requestPdu>:
    4476:	2f 92       	push	r2
    4478:	3f 92       	push	r3
    447a:	4f 92       	push	r4
    447c:	5f 92       	push	r5
    447e:	6f 92       	push	r6
    4480:	7f 92       	push	r7
    4482:	8f 92       	push	r8
    4484:	9f 92       	push	r9
    4486:	af 92       	push	r10
    4488:	bf 92       	push	r11
    448a:	cf 92       	push	r12
    448c:	df 92       	push	r13
    448e:	ef 92       	push	r14
    4490:	ff 92       	push	r15
    4492:	0f 93       	push	r16
    4494:	1f 93       	push	r17
    4496:	cf 93       	push	r28
    4498:	df 93       	push	r29
    449a:	cd b7       	in	r28, 0x3d	; 61
    449c:	de b7       	in	r29, 0x3e	; 62
    449e:	c2 57       	subi	r28, 0x72	; 114
    44a0:	d1 09       	sbc	r29, r1
    44a2:	0f b6       	in	r0, 0x3f	; 63
    44a4:	f8 94       	cli
    44a6:	de bf       	out	0x3e, r29	; 62
    44a8:	0f be       	out	0x3f, r0	; 63
    44aa:	cd bf       	out	0x3d, r28	; 61
    44ac:	8c 01       	movw	r16, r24
    44ae:	60 91 0a 0a 	lds	r22, 0x0A0A
    44b2:	70 91 0b 0a 	lds	r23, 0x0A0B
    44b6:	70 93 d5 09 	sts	0x09D5, r23
    44ba:	60 93 d4 09 	sts	0x09D4, r22
    44be:	89 e9       	ldi	r24, 0x99	; 153
    44c0:	e2 e2       	ldi	r30, 0x22	; 34
    44c2:	f9 e0       	ldi	r31, 0x09	; 9
    44c4:	df 01       	movw	r26, r30
    44c6:	1d 92       	st	X+, r1
    44c8:	8a 95       	dec	r24
    44ca:	e9 f7       	brne	.-6      	; 0x44c6 <SNMP_requestPdu+0x50>
    44cc:	6a 39       	cpi	r22, 0x9A	; 154
    44ce:	71 05       	cpc	r23, r1
    44d0:	08 f0       	brcs	.+2      	; 0x44d4 <SNMP_requestPdu+0x5e>
    44d2:	78 c2       	rjmp	.+1264   	; 0x49c4 <SNMP_requestPdu+0x54e>
    44d4:	cf 01       	movw	r24, r30
    44d6:	c3 d8       	rcall	.-3706   	; 0x365e <_SNMPSocket_read>
    44d8:	80 91 22 09 	lds	r24, 0x0922
    44dc:	80 33       	cpi	r24, 0x30	; 48
    44de:	09 f0       	breq	.+2      	; 0x44e2 <SNMP_requestPdu+0x6c>
    44e0:	73 c2       	rjmp	.+1254   	; 0x49c8 <SNMP_requestPdu+0x552>
    44e2:	20 90 25 09 	lds	r2, 0x0925
    44e6:	83 e0       	ldi	r24, 0x03	; 3
    44e8:	82 0d       	add	r24, r2
    44ea:	e8 2f       	mov	r30, r24
    44ec:	f0 e0       	ldi	r31, 0x00	; 0
    44ee:	a8 96       	adiw	r28, 0x28	; 40
    44f0:	ff af       	std	Y+63, r31	; 0x3f
    44f2:	ee af       	std	Y+62, r30	; 0x3e
    44f4:	a8 97       	sbiw	r28, 0x28	; 40
    44f6:	ee 5d       	subi	r30, 0xDE	; 222
    44f8:	f6 4f       	sbci	r31, 0xF6	; 246
    44fa:	22 81       	ldd	r18, Z+2	; 0x02
    44fc:	a2 96       	adiw	r28, 0x22	; 34
    44fe:	2f af       	std	Y+63, r18	; 0x3f
    4500:	a2 97       	sbiw	r28, 0x22	; 34
    4502:	85 e0       	ldi	r24, 0x05	; 5
    4504:	82 0d       	add	r24, r2
    4506:	82 0f       	add	r24, r18
    4508:	e8 2f       	mov	r30, r24
    450a:	f0 e0       	ldi	r31, 0x00	; 0
    450c:	df 01       	movw	r26, r30
    450e:	ae 5d       	subi	r26, 0xDE	; 222
    4510:	b6 4f       	sbci	r27, 0xF6	; 246
    4512:	11 96       	adiw	r26, 0x01	; 1
    4514:	3c 90       	ld	r3, X
    4516:	11 97       	sbiw	r26, 0x01	; 1
    4518:	14 96       	adiw	r26, 0x04	; 4
    451a:	2c 91       	ld	r18, X
    451c:	94 e0       	ldi	r25, 0x04	; 4
    451e:	98 0f       	add	r25, r24
    4520:	92 0f       	add	r25, r18
    4522:	a3 96       	adiw	r28, 0x23	; 35
    4524:	9f af       	std	Y+63, r25	; 0x3f
    4526:	a3 97       	sbiw	r28, 0x23	; 35
    4528:	49 2f       	mov	r20, r25
    452a:	50 e0       	ldi	r21, 0x00	; 0
    452c:	ac 96       	adiw	r28, 0x2c	; 44
    452e:	5f af       	std	Y+63, r21	; 0x3f
    4530:	4e af       	std	Y+62, r20	; 0x3e
    4532:	ac 97       	sbiw	r28, 0x2c	; 44
    4534:	da 01       	movw	r26, r20
    4536:	ae 5d       	subi	r26, 0xDE	; 222
    4538:	b6 4f       	sbci	r27, 0xF6	; 246
    453a:	12 96       	adiw	r26, 0x02	; 2
    453c:	9c 91       	ld	r25, X
    453e:	a9 96       	adiw	r28, 0x29	; 41
    4540:	9f af       	std	Y+63, r25	; 0x3f
    4542:	a9 97       	sbiw	r28, 0x29	; 41
    4544:	a3 96       	adiw	r28, 0x23	; 35
    4546:	9f ad       	ldd	r25, Y+63	; 0x3f
    4548:	a3 97       	sbiw	r28, 0x23	; 35
    454a:	9e 5f       	subi	r25, 0xFE	; 254
    454c:	a9 96       	adiw	r28, 0x29	; 41
    454e:	af ad       	ldd	r26, Y+63	; 0x3f
    4550:	a9 97       	sbiw	r28, 0x29	; 41
    4552:	a9 0f       	add	r26, r25
    4554:	a4 96       	adiw	r28, 0x24	; 36
    4556:	af af       	std	Y+63, r26	; 0x3f
    4558:	a4 97       	sbiw	r28, 0x24	; 36
    455a:	4a 2f       	mov	r20, r26
    455c:	50 e0       	ldi	r21, 0x00	; 0
    455e:	ae 96       	adiw	r28, 0x2e	; 46
    4560:	5f af       	std	Y+63, r21	; 0x3f
    4562:	4e af       	std	Y+62, r20	; 0x3e
    4564:	ae 97       	sbiw	r28, 0x2e	; 46
    4566:	da 01       	movw	r26, r20
    4568:	ae 5d       	subi	r26, 0xDE	; 222
    456a:	b6 4f       	sbci	r27, 0xF6	; 246
    456c:	12 96       	adiw	r26, 0x02	; 2
    456e:	9c 91       	ld	r25, X
    4570:	aa 96       	adiw	r28, 0x2a	; 42
    4572:	9f af       	std	Y+63, r25	; 0x3f
    4574:	aa 97       	sbiw	r28, 0x2a	; 42
    4576:	39 2f       	mov	r19, r25
    4578:	a4 96       	adiw	r28, 0x24	; 36
    457a:	af ad       	ldd	r26, Y+63	; 0x3f
    457c:	a4 97       	sbiw	r28, 0x24	; 36
    457e:	3a 0f       	add	r19, r26
    4580:	b2 e0       	ldi	r27, 0x02	; 2
    4582:	b3 0f       	add	r27, r19
    4584:	af 96       	adiw	r28, 0x2f	; 47
    4586:	bf af       	std	Y+63, r27	; 0x3f
    4588:	af 97       	sbiw	r28, 0x2f	; 47
    458a:	4b 2f       	mov	r20, r27
    458c:	50 e0       	ldi	r21, 0x00	; 0
    458e:	a6 96       	adiw	r28, 0x26	; 38
    4590:	5f af       	std	Y+63, r21	; 0x3f
    4592:	4e af       	std	Y+62, r20	; 0x3e
    4594:	a6 97       	sbiw	r28, 0x26	; 38
    4596:	da 01       	movw	r26, r20
    4598:	ae 5d       	subi	r26, 0xDE	; 222
    459a:	b6 4f       	sbci	r27, 0xF6	; 246
    459c:	12 96       	adiw	r26, 0x02	; 2
    459e:	ac 90       	ld	r10, X
    45a0:	d8 01       	movw	r26, r16
    45a2:	15 96       	adiw	r26, 0x05	; 5
    45a4:	1d 92       	st	X+, r1
    45a6:	1d 92       	st	X+, r1
    45a8:	1d 92       	st	X+, r1
    45aa:	1c 92       	st	X, r1
    45ac:	18 97       	sbiw	r26, 0x08	; 8
    45ae:	22 23       	and	r18, r18
    45b0:	f1 f0       	breq	.+60     	; 0x45ee <SNMP_requestPdu+0x178>
    45b2:	e9 5d       	subi	r30, 0xD9	; 217
    45b4:	f6 4f       	sbci	r31, 0xF6	; 246
    45b6:	90 e0       	ldi	r25, 0x00	; 0
    45b8:	88 5d       	subi	r24, 0xD8	; 216
    45ba:	96 4f       	sbci	r25, 0xF6	; 246
    45bc:	21 50       	subi	r18, 0x01	; 1
    45be:	82 0f       	add	r24, r18
    45c0:	91 1d       	adc	r25, r1
    45c2:	21 91       	ld	r18, Z+
    45c4:	15 96       	adiw	r26, 0x05	; 5
    45c6:	4d 91       	ld	r20, X+
    45c8:	5d 91       	ld	r21, X+
    45ca:	6d 91       	ld	r22, X+
    45cc:	7c 91       	ld	r23, X
    45ce:	18 97       	sbiw	r26, 0x08	; 8
    45d0:	76 2f       	mov	r23, r22
    45d2:	65 2f       	mov	r22, r21
    45d4:	54 2f       	mov	r21, r20
    45d6:	44 27       	eor	r20, r20
    45d8:	42 2b       	or	r20, r18
    45da:	15 96       	adiw	r26, 0x05	; 5
    45dc:	4d 93       	st	X+, r20
    45de:	5d 93       	st	X+, r21
    45e0:	6d 93       	st	X+, r22
    45e2:	7c 93       	st	X, r23
    45e4:	18 97       	sbiw	r26, 0x08	; 8
    45e6:	e8 17       	cp	r30, r24
    45e8:	f9 07       	cpc	r31, r25
    45ea:	59 f7       	brne	.-42     	; 0x45c2 <SNMP_requestPdu+0x14c>
    45ec:	8d 01       	movw	r16, r26
    45ee:	f8 01       	movw	r30, r16
    45f0:	30 82       	st	Z, r3
    45f2:	f5 ea       	ldi	r31, 0xA5	; 165
    45f4:	3f 16       	cp	r3, r31
    45f6:	e1 f0       	breq	.+56     	; 0x4630 <SNMP_requestPdu+0x1ba>
    45f8:	a6 96       	adiw	r28, 0x26	; 38
    45fa:	ee ad       	ldd	r30, Y+62	; 0x3e
    45fc:	ff ad       	ldd	r31, Y+63	; 0x3f
    45fe:	a6 97       	sbiw	r28, 0x26	; 38
    4600:	ee 5d       	subi	r30, 0xDE	; 222
    4602:	f6 4f       	sbci	r31, 0xF6	; 246
    4604:	26 81       	ldd	r18, Z+6	; 0x06
    4606:	e0 96       	adiw	r28, 0x30	; 48
    4608:	2f af       	std	Y+63, r18	; 0x3f
    460a:	e0 97       	sbiw	r28, 0x30	; 48
    460c:	38 5f       	subi	r19, 0xF8	; 248
    460e:	23 0f       	add	r18, r19
    4610:	e1 96       	adiw	r28, 0x31	; 49
    4612:	2f af       	std	Y+63, r18	; 0x3f
    4614:	e1 97       	sbiw	r28, 0x31	; 49
    4616:	e2 2f       	mov	r30, r18
    4618:	f0 e0       	ldi	r31, 0x00	; 0
    461a:	ee 5d       	subi	r30, 0xDE	; 222
    461c:	f6 4f       	sbci	r31, 0xF6	; 246
    461e:	31 81       	ldd	r19, Z+1	; 0x01
    4620:	e3 96       	adiw	r28, 0x33	; 51
    4622:	3f af       	std	Y+63, r19	; 0x3f
    4624:	e3 97       	sbiw	r28, 0x33	; 51
    4626:	42 81       	ldd	r20, Z+2	; 0x02
    4628:	e2 96       	adiw	r28, 0x32	; 50
    462a:	4f af       	std	Y+63, r20	; 0x3f
    462c:	e2 97       	sbiw	r28, 0x32	; 50
    462e:	6d c0       	rjmp	.+218    	; 0x470a <SNMP_requestPdu+0x294>
    4630:	10 92 cc 09 	sts	0x09CC, r1
    4634:	b1 2c       	mov	r11, r1
    4636:	a1 14       	cp	r10, r1
    4638:	b1 04       	cpc	r11, r1
    463a:	09 f4       	brne	.+2      	; 0x463e <SNMP_requestPdu+0x1c8>
    463c:	66 c0       	rjmp	.+204    	; 0x470a <SNMP_requestPdu+0x294>
    463e:	e1 2c       	mov	r14, r1
    4640:	f1 2c       	mov	r15, r1
    4642:	3c 5f       	subi	r19, 0xFC	; 252
    4644:	63 2e       	mov	r6, r19
    4646:	71 2c       	mov	r7, r1
    4648:	81 2c       	mov	r8, r1
    464a:	51 2c       	mov	r5, r1
    464c:	6e 01       	movw	r12, r28
    464e:	53 e4       	ldi	r21, 0x43	; 67
    4650:	c5 0e       	add	r12, r21
    4652:	d1 1c       	adc	r13, r1
    4654:	0f 2e       	mov	r0, r31
    4656:	f2 e4       	ldi	r31, 0x42	; 66
    4658:	4f 2e       	mov	r4, r31
    465a:	f0 2d       	mov	r31, r0
    465c:	b7 01       	movw	r22, r14
    465e:	66 0d       	add	r22, r6
    4660:	77 1d       	adc	r23, r7
    4662:	fb 01       	movw	r30, r22
    4664:	ee 5d       	subi	r30, 0xDE	; 222
    4666:	f6 4f       	sbci	r31, 0xF6	; 246
    4668:	92 80       	ldd	r9, Z+2	; 0x02
    466a:	44 81       	ldd	r20, Z+4	; 0x04
    466c:	50 e0       	ldi	r21, 0x00	; 0
    466e:	41 15       	cp	r20, r1
    4670:	51 05       	cpc	r21, r1
    4672:	99 f0       	breq	.+38     	; 0x469a <SNMP_requestPdu+0x224>
    4674:	fe 01       	movw	r30, r28
    4676:	31 96       	adiw	r30, 0x01	; 1
    4678:	28 2d       	mov	r18, r8
    467a:	35 2d       	mov	r19, r5
    467c:	88 2d       	mov	r24, r8
    467e:	95 2d       	mov	r25, r5
    4680:	6e 5d       	subi	r22, 0xDE	; 222
    4682:	76 4f       	sbci	r23, 0xF6	; 246
    4684:	db 01       	movw	r26, r22
    4686:	a2 0f       	add	r26, r18
    4688:	b3 1f       	adc	r27, r19
    468a:	15 96       	adiw	r26, 0x05	; 5
    468c:	2c 91       	ld	r18, X
    468e:	21 93       	st	Z+, r18
    4690:	01 96       	adiw	r24, 0x01	; 1
    4692:	9c 01       	movw	r18, r24
    4694:	84 17       	cp	r24, r20
    4696:	95 07       	cpc	r25, r21
    4698:	a8 f3       	brcs	.-22     	; 0x4684 <SNMP_requestPdu+0x20e>
    469a:	23 96       	adiw	r28, 0x03	; 3
    469c:	5f af       	std	Y+63, r21	; 0x3f
    469e:	4e af       	std	Y+62, r20	; 0x3e
    46a0:	23 97       	sbiw	r28, 0x03	; 3
    46a2:	df 92       	push	r13
    46a4:	cf 92       	push	r12
    46a6:	8d b7       	in	r24, 0x3d	; 61
    46a8:	9e b7       	in	r25, 0x3e	; 62
    46aa:	82 54       	subi	r24, 0x42	; 66
    46ac:	91 09       	sbc	r25, r1
    46ae:	0f b6       	in	r0, 0x3f	; 63
    46b0:	f8 94       	cli
    46b2:	9e bf       	out	0x3e, r25	; 62
    46b4:	0f be       	out	0x3f, r0	; 63
    46b6:	8d bf       	out	0x3d, r24	; 61
    46b8:	ad b7       	in	r26, 0x3d	; 61
    46ba:	be b7       	in	r27, 0x3e	; 62
    46bc:	11 96       	adiw	r26, 0x01	; 1
    46be:	fe 01       	movw	r30, r28
    46c0:	31 96       	adiw	r30, 0x01	; 1
    46c2:	84 2d       	mov	r24, r4
    46c4:	01 90       	ld	r0, Z+
    46c6:	0d 92       	st	X+, r0
    46c8:	8a 95       	dec	r24
    46ca:	e1 f7       	brne	.-8      	; 0x46c4 <SNMP_requestPdu+0x24e>
    46cc:	c0 d9       	rcall	.-3200   	; 0x3a4e <SNMP_OID_toString>
    46ce:	0f b6       	in	r0, 0x3f	; 63
    46d0:	f8 94       	cli
    46d2:	de bf       	out	0x3e, r29	; 62
    46d4:	0f be       	out	0x3f, r0	; 63
    46d6:	cd bf       	out	0x3d, r28	; 61
    46d8:	c6 01       	movw	r24, r12
    46da:	4f de       	rcall	.-866    	; 0x437a <GetNextOid>
    46dc:	e0 91 cc 09 	lds	r30, 0x09CC
    46e0:	21 e0       	ldi	r18, 0x01	; 1
    46e2:	2e 0f       	add	r18, r30
    46e4:	20 93 cc 09 	sts	0x09CC, r18
    46e8:	f0 e0       	ldi	r31, 0x00	; 0
    46ea:	ee 0f       	add	r30, r30
    46ec:	ff 1f       	adc	r31, r31
    46ee:	ee 5e       	subi	r30, 0xEE	; 238
    46f0:	f5 4f       	sbci	r31, 0xF5	; 245
    46f2:	99 27       	eor	r25, r25
    46f4:	91 83       	std	Z+1, r25	; 0x01
    46f6:	80 83       	st	Z, r24
    46f8:	89 2d       	mov	r24, r9
    46fa:	90 e0       	ldi	r25, 0x00	; 0
    46fc:	02 96       	adiw	r24, 0x02	; 2
    46fe:	e8 0e       	add	r14, r24
    4700:	f9 1e       	adc	r15, r25
    4702:	ea 14       	cp	r14, r10
    4704:	fb 04       	cpc	r15, r11
    4706:	08 f4       	brcc	.+2      	; 0x470a <SNMP_requestPdu+0x294>
    4708:	a9 cf       	rjmp	.-174    	; 0x465c <SNMP_requestPdu+0x1e6>
    470a:	f8 01       	movw	r30, r16
    470c:	11 82       	std	Z+1, r1	; 0x01
    470e:	12 82       	std	Z+2, r1	; 0x02
    4710:	13 82       	std	Z+3, r1	; 0x03
    4712:	14 82       	std	Z+4, r1	; 0x04
    4714:	22 20       	and	r2, r2
    4716:	f1 f0       	breq	.+60     	; 0x4754 <SNMP_requestPdu+0x2de>
    4718:	e7 e2       	ldi	r30, 0x27	; 39
    471a:	f9 e0       	ldi	r31, 0x09	; 9
    471c:	8f ef       	ldi	r24, 0xFF	; 255
    471e:	82 0d       	add	r24, r2
    4720:	90 e0       	ldi	r25, 0x00	; 0
    4722:	88 5d       	subi	r24, 0xD8	; 216
    4724:	96 4f       	sbci	r25, 0xF6	; 246
    4726:	d8 01       	movw	r26, r16
    4728:	21 91       	ld	r18, Z+
    472a:	11 96       	adiw	r26, 0x01	; 1
    472c:	4d 91       	ld	r20, X+
    472e:	5d 91       	ld	r21, X+
    4730:	6d 91       	ld	r22, X+
    4732:	7c 91       	ld	r23, X
    4734:	14 97       	sbiw	r26, 0x04	; 4
    4736:	76 2f       	mov	r23, r22
    4738:	65 2f       	mov	r22, r21
    473a:	54 2f       	mov	r21, r20
    473c:	44 27       	eor	r20, r20
    473e:	42 2b       	or	r20, r18
    4740:	11 96       	adiw	r26, 0x01	; 1
    4742:	4d 93       	st	X+, r20
    4744:	5d 93       	st	X+, r21
    4746:	6d 93       	st	X+, r22
    4748:	7c 93       	st	X, r23
    474a:	14 97       	sbiw	r26, 0x04	; 4
    474c:	e8 17       	cp	r30, r24
    474e:	f9 07       	cpc	r31, r25
    4750:	59 f7       	brne	.-42     	; 0x4728 <SNMP_requestPdu+0x2b2>
    4752:	8d 01       	movw	r16, r26
    4754:	d8 01       	movw	r26, r16
    4756:	3c 92       	st	X, r3
    4758:	30 92 6e 0b 	sts	0x0B6E, r3
    475c:	a2 96       	adiw	r28, 0x22	; 34
    475e:	bf ad       	ldd	r27, Y+63	; 0x3f
    4760:	a2 97       	sbiw	r28, 0x22	; 34
    4762:	b5 31       	cpi	r27, 0x15	; 21
    4764:	28 f0       	brcs	.+10     	; 0x4770 <SNMP_requestPdu+0x2fa>
    4766:	81 e0       	ldi	r24, 0x01	; 1
    4768:	f8 01       	movw	r30, r16
    476a:	81 87       	std	Z+9, r24	; 0x09
    476c:	82 e0       	ldi	r24, 0x02	; 2
    476e:	5a c1       	rjmp	.+692    	; 0x4a24 <SNMP_requestPdu+0x5ae>
    4770:	d8 01       	movw	r26, r16
    4772:	8c 91       	ld	r24, X
    4774:	83 3a       	cpi	r24, 0xA3	; 163
    4776:	d9 f5       	brne	.+118    	; 0x47ee <SNMP_requestPdu+0x378>
    4778:	a2 96       	adiw	r28, 0x22	; 34
    477a:	bf ad       	ldd	r27, Y+63	; 0x3f
    477c:	a2 97       	sbiw	r28, 0x22	; 34
    477e:	8b 2f       	mov	r24, r27
    4780:	90 e0       	ldi	r25, 0x00	; 0
    4782:	20 91 10 0a 	lds	r18, 0x0A10
    4786:	30 91 11 0a 	lds	r19, 0x0A11
    478a:	82 17       	cp	r24, r18
    478c:	93 07       	cpc	r25, r19
    478e:	09 f0       	breq	.+2      	; 0x4792 <SNMP_requestPdu+0x31c>
    4790:	6a c0       	rjmp	.+212    	; 0x4866 <SNMP_requestPdu+0x3f0>
    4792:	00 97       	sbiw	r24, 0x00	; 0
    4794:	09 f4       	brne	.+2      	; 0x4798 <SNMP_requestPdu+0x322>
    4796:	76 c0       	rjmp	.+236    	; 0x4884 <SNMP_requestPdu+0x40e>
    4798:	a8 96       	adiw	r28, 0x28	; 40
    479a:	2e ad       	ldd	r18, Y+62	; 0x3e
    479c:	3f ad       	ldd	r19, Y+63	; 0x3f
    479e:	a8 97       	sbiw	r28, 0x28	; 40
    47a0:	2d 5f       	subi	r18, 0xFD	; 253
    47a2:	3f 4f       	sbci	r19, 0xFF	; 255
    47a4:	e0 91 50 0d 	lds	r30, 0x0D50
    47a8:	f0 91 51 0d 	lds	r31, 0x0D51
    47ac:	d9 01       	movw	r26, r18
    47ae:	ae 5d       	subi	r26, 0xDE	; 222
    47b0:	b6 4f       	sbci	r27, 0xF6	; 246
    47b2:	5c 91       	ld	r21, X
    47b4:	40 81       	ld	r20, Z
    47b6:	54 17       	cp	r21, r20
    47b8:	81 f0       	breq	.+32     	; 0x47da <SNMP_requestPdu+0x364>
    47ba:	0a c0       	rjmp	.+20     	; 0x47d0 <SNMP_requestPdu+0x35a>
    47bc:	4e 0f       	add	r20, r30
    47be:	5f 1f       	adc	r21, r31
    47c0:	d9 01       	movw	r26, r18
    47c2:	a6 0f       	add	r26, r22
    47c4:	b1 1d       	adc	r27, r1
    47c6:	7c 91       	ld	r23, X
    47c8:	da 01       	movw	r26, r20
    47ca:	4c 91       	ld	r20, X
    47cc:	74 17       	cp	r23, r20
    47ce:	41 f0       	breq	.+16     	; 0x47e0 <SNMP_requestPdu+0x36a>
    47d0:	82 e0       	ldi	r24, 0x02	; 2
    47d2:	f8 01       	movw	r30, r16
    47d4:	81 87       	std	Z+9, r24	; 0x09
    47d6:	87 e0       	ldi	r24, 0x07	; 7
    47d8:	25 c1       	rjmp	.+586    	; 0x4a24 <SNMP_requestPdu+0x5ae>
    47da:	60 e0       	ldi	r22, 0x00	; 0
    47dc:	2e 5d       	subi	r18, 0xDE	; 222
    47de:	36 4f       	sbci	r19, 0xF6	; 246
    47e0:	6f 5f       	subi	r22, 0xFF	; 255
    47e2:	46 2f       	mov	r20, r22
    47e4:	50 e0       	ldi	r21, 0x00	; 0
    47e6:	48 17       	cp	r20, r24
    47e8:	59 07       	cpc	r21, r25
    47ea:	40 f3       	brcs	.-48     	; 0x47bc <SNMP_requestPdu+0x346>
    47ec:	4b c0       	rjmp	.+150    	; 0x4884 <SNMP_requestPdu+0x40e>
    47ee:	80 5a       	subi	r24, 0xA0	; 160
    47f0:	82 30       	cpi	r24, 0x02	; 2
    47f2:	c8 f5       	brcc	.+114    	; 0x4866 <SNMP_requestPdu+0x3f0>
    47f4:	a2 96       	adiw	r28, 0x22	; 34
    47f6:	ff ad       	ldd	r31, Y+63	; 0x3f
    47f8:	a2 97       	sbiw	r28, 0x22	; 34
    47fa:	8f 2f       	mov	r24, r31
    47fc:	90 e0       	ldi	r25, 0x00	; 0
    47fe:	20 91 da 09 	lds	r18, 0x09DA
    4802:	30 91 db 09 	lds	r19, 0x09DB
    4806:	82 17       	cp	r24, r18
    4808:	93 07       	cpc	r25, r19
    480a:	69 f5       	brne	.+90     	; 0x4866 <SNMP_requestPdu+0x3f0>
    480c:	00 97       	sbiw	r24, 0x00	; 0
    480e:	d1 f1       	breq	.+116    	; 0x4884 <SNMP_requestPdu+0x40e>
    4810:	a8 96       	adiw	r28, 0x28	; 40
    4812:	2e ad       	ldd	r18, Y+62	; 0x3e
    4814:	3f ad       	ldd	r19, Y+63	; 0x3f
    4816:	a8 97       	sbiw	r28, 0x28	; 40
    4818:	2d 5f       	subi	r18, 0xFD	; 253
    481a:	3f 4f       	sbci	r19, 0xFF	; 255
    481c:	e0 91 1a 09 	lds	r30, 0x091A
    4820:	f0 91 1b 09 	lds	r31, 0x091B
    4824:	d9 01       	movw	r26, r18
    4826:	ae 5d       	subi	r26, 0xDE	; 222
    4828:	b6 4f       	sbci	r27, 0xF6	; 246
    482a:	5c 91       	ld	r21, X
    482c:	40 81       	ld	r20, Z
    482e:	54 17       	cp	r21, r20
    4830:	81 f0       	breq	.+32     	; 0x4852 <SNMP_requestPdu+0x3dc>
    4832:	0a c0       	rjmp	.+20     	; 0x4848 <SNMP_requestPdu+0x3d2>
    4834:	4e 0f       	add	r20, r30
    4836:	5f 1f       	adc	r21, r31
    4838:	d9 01       	movw	r26, r18
    483a:	a6 0f       	add	r26, r22
    483c:	b1 1d       	adc	r27, r1
    483e:	7c 91       	ld	r23, X
    4840:	da 01       	movw	r26, r20
    4842:	4c 91       	ld	r20, X
    4844:	74 17       	cp	r23, r20
    4846:	41 f0       	breq	.+16     	; 0x4858 <SNMP_requestPdu+0x3e2>
    4848:	82 e0       	ldi	r24, 0x02	; 2
    484a:	f8 01       	movw	r30, r16
    484c:	81 87       	std	Z+9, r24	; 0x09
    484e:	87 e0       	ldi	r24, 0x07	; 7
    4850:	e9 c0       	rjmp	.+466    	; 0x4a24 <SNMP_requestPdu+0x5ae>
    4852:	60 e0       	ldi	r22, 0x00	; 0
    4854:	2e 5d       	subi	r18, 0xDE	; 222
    4856:	36 4f       	sbci	r19, 0xF6	; 246
    4858:	6f 5f       	subi	r22, 0xFF	; 255
    485a:	46 2f       	mov	r20, r22
    485c:	50 e0       	ldi	r21, 0x00	; 0
    485e:	48 17       	cp	r20, r24
    4860:	59 07       	cpc	r21, r25
    4862:	40 f3       	brcs	.-48     	; 0x4834 <SNMP_requestPdu+0x3be>
    4864:	0f c0       	rjmp	.+30     	; 0x4884 <SNMP_requestPdu+0x40e>
    4866:	f8 01       	movw	r30, r16
    4868:	e0 57       	subi	r30, 0x70	; 112
    486a:	ff 4f       	sbci	r31, 0xFF	; 255
    486c:	11 82       	std	Z+1, r1	; 0x01
    486e:	10 82       	st	Z, r1
    4870:	e2 54       	subi	r30, 0x42	; 66
    4872:	f1 09       	sbc	r31, r1
    4874:	11 82       	std	Z+1, r1	; 0x01
    4876:	10 82       	st	Z, r1
    4878:	82 e0       	ldi	r24, 0x02	; 2
    487a:	d8 01       	movw	r26, r16
    487c:	19 96       	adiw	r26, 0x09	; 9
    487e:	8c 93       	st	X, r24
    4880:	87 e0       	ldi	r24, 0x07	; 7
    4882:	d0 c0       	rjmp	.+416    	; 0x4a24 <SNMP_requestPdu+0x5ae>
    4884:	f8 01       	movw	r30, r16
    4886:	11 86       	std	Z+9, r1	; 0x09
    4888:	a9 96       	adiw	r28, 0x29	; 41
    488a:	ff ad       	ldd	r31, Y+63	; 0x3f
    488c:	a9 97       	sbiw	r28, 0x29	; 41
    488e:	ff 23       	and	r31, r31
    4890:	01 f1       	breq	.+64     	; 0x48d2 <SNMP_requestPdu+0x45c>
    4892:	ac 96       	adiw	r28, 0x2c	; 44
    4894:	ee ad       	ldd	r30, Y+62	; 0x3e
    4896:	ff ad       	ldd	r31, Y+63	; 0x3f
    4898:	ac 97       	sbiw	r28, 0x2c	; 44
    489a:	eb 5d       	subi	r30, 0xDB	; 219
    489c:	f6 4f       	sbci	r31, 0xF6	; 246
    489e:	a3 96       	adiw	r28, 0x23	; 35
    48a0:	2f ad       	ldd	r18, Y+63	; 0x3f
    48a2:	a3 97       	sbiw	r28, 0x23	; 35
    48a4:	82 2f       	mov	r24, r18
    48a6:	90 e0       	ldi	r25, 0x00	; 0
    48a8:	8a 5d       	subi	r24, 0xDA	; 218
    48aa:	96 4f       	sbci	r25, 0xF6	; 246
    48ac:	a9 96       	adiw	r28, 0x29	; 41
    48ae:	2f ad       	ldd	r18, Y+63	; 0x3f
    48b0:	a9 97       	sbiw	r28, 0x29	; 41
    48b2:	21 50       	subi	r18, 0x01	; 1
    48b4:	82 0f       	add	r24, r18
    48b6:	91 1d       	adc	r25, r1
    48b8:	40 e0       	ldi	r20, 0x00	; 0
    48ba:	50 e0       	ldi	r21, 0x00	; 0
    48bc:	ba 01       	movw	r22, r20
    48be:	76 2f       	mov	r23, r22
    48c0:	65 2f       	mov	r22, r21
    48c2:	54 2f       	mov	r21, r20
    48c4:	44 27       	eor	r20, r20
    48c6:	21 91       	ld	r18, Z+
    48c8:	42 2b       	or	r20, r18
    48ca:	e8 17       	cp	r30, r24
    48cc:	f9 07       	cpc	r31, r25
    48ce:	b9 f7       	brne	.-18     	; 0x48be <SNMP_requestPdu+0x448>
    48d0:	03 c0       	rjmp	.+6      	; 0x48d8 <SNMP_requestPdu+0x462>
    48d2:	40 e0       	ldi	r20, 0x00	; 0
    48d4:	50 e0       	ldi	r21, 0x00	; 0
    48d6:	ba 01       	movw	r22, r20
    48d8:	d8 01       	movw	r26, r16
    48da:	19 96       	adiw	r26, 0x09	; 9
    48dc:	4c 93       	st	X, r20
    48de:	19 97       	sbiw	r26, 0x09	; 9
    48e0:	f8 01       	movw	r30, r16
    48e2:	12 86       	std	Z+10, r1	; 0x0a
    48e4:	13 86       	std	Z+11, r1	; 0x0b
    48e6:	14 86       	std	Z+12, r1	; 0x0c
    48e8:	15 86       	std	Z+13, r1	; 0x0d
    48ea:	aa 96       	adiw	r28, 0x2a	; 42
    48ec:	ff ad       	ldd	r31, Y+63	; 0x3f
    48ee:	aa 97       	sbiw	r28, 0x2a	; 42
    48f0:	ff 23       	and	r31, r31
    48f2:	49 f1       	breq	.+82     	; 0x4946 <SNMP_requestPdu+0x4d0>
    48f4:	ae 96       	adiw	r28, 0x2e	; 46
    48f6:	ee ad       	ldd	r30, Y+62	; 0x3e
    48f8:	ff ad       	ldd	r31, Y+63	; 0x3f
    48fa:	ae 97       	sbiw	r28, 0x2e	; 46
    48fc:	eb 5d       	subi	r30, 0xDB	; 219
    48fe:	f6 4f       	sbci	r31, 0xF6	; 246
    4900:	a4 96       	adiw	r28, 0x24	; 36
    4902:	2f ad       	ldd	r18, Y+63	; 0x3f
    4904:	a4 97       	sbiw	r28, 0x24	; 36
    4906:	82 2f       	mov	r24, r18
    4908:	90 e0       	ldi	r25, 0x00	; 0
    490a:	8a 5d       	subi	r24, 0xDA	; 218
    490c:	96 4f       	sbci	r25, 0xF6	; 246
    490e:	aa 96       	adiw	r28, 0x2a	; 42
    4910:	2f ad       	ldd	r18, Y+63	; 0x3f
    4912:	aa 97       	sbiw	r28, 0x2a	; 42
    4914:	21 50       	subi	r18, 0x01	; 1
    4916:	82 0f       	add	r24, r18
    4918:	91 1d       	adc	r25, r1
    491a:	21 91       	ld	r18, Z+
    491c:	1a 96       	adiw	r26, 0x0a	; 10
    491e:	4d 91       	ld	r20, X+
    4920:	5d 91       	ld	r21, X+
    4922:	6d 91       	ld	r22, X+
    4924:	7c 91       	ld	r23, X
    4926:	1d 97       	sbiw	r26, 0x0d	; 13
    4928:	76 2f       	mov	r23, r22
    492a:	65 2f       	mov	r22, r21
    492c:	54 2f       	mov	r21, r20
    492e:	44 27       	eor	r20, r20
    4930:	42 2b       	or	r20, r18
    4932:	1a 96       	adiw	r26, 0x0a	; 10
    4934:	4d 93       	st	X+, r20
    4936:	5d 93       	st	X+, r21
    4938:	6d 93       	st	X+, r22
    493a:	7c 93       	st	X, r23
    493c:	1d 97       	sbiw	r26, 0x0d	; 13
    493e:	e8 17       	cp	r30, r24
    4940:	f9 07       	cpc	r31, r25
    4942:	59 f7       	brne	.-42     	; 0x491a <SNMP_requestPdu+0x4a4>
    4944:	8d 01       	movw	r16, r26
    4946:	e0 96       	adiw	r28, 0x30	; 48
    4948:	3f ad       	ldd	r19, Y+63	; 0x3f
    494a:	e0 97       	sbiw	r28, 0x30	; 48
    494c:	31 34       	cpi	r19, 0x41	; 65
    494e:	30 f0       	brcs	.+12     	; 0x495c <SNMP_requestPdu+0x4e6>
    4950:	81 e0       	ldi	r24, 0x01	; 1
    4952:	d8 01       	movw	r26, r16
    4954:	19 96       	adiw	r26, 0x09	; 9
    4956:	8c 93       	st	X, r24
    4958:	83 e0       	ldi	r24, 0x03	; 3
    495a:	64 c0       	rjmp	.+200    	; 0x4a24 <SNMP_requestPdu+0x5ae>
    495c:	80 e4       	ldi	r24, 0x40	; 64
    495e:	f8 01       	movw	r30, r16
    4960:	3e 96       	adiw	r30, 0x0e	; 14
    4962:	df 01       	movw	r26, r30
    4964:	1d 92       	st	X+, r1
    4966:	8a 95       	dec	r24
    4968:	e9 f7       	brne	.-6      	; 0x4964 <SNMP_requestPdu+0x4ee>
    496a:	e0 5c       	subi	r30, 0xC0	; 192
    496c:	ff 4f       	sbci	r31, 0xFF	; 255
    496e:	e0 96       	adiw	r28, 0x30	; 48
    4970:	bf ad       	ldd	r27, Y+63	; 0x3f
    4972:	e0 97       	sbiw	r28, 0x30	; 48
    4974:	8b 2f       	mov	r24, r27
    4976:	90 e0       	ldi	r25, 0x00	; 0
    4978:	91 83       	std	Z+1, r25	; 0x01
    497a:	80 83       	st	Z, r24
    497c:	bb 23       	and	r27, r27
    497e:	41 f1       	breq	.+80     	; 0x49d0 <SNMP_requestPdu+0x55a>
    4980:	a6 96       	adiw	r28, 0x26	; 38
    4982:	ee ad       	ldd	r30, Y+62	; 0x3e
    4984:	ff ad       	ldd	r31, Y+63	; 0x3f
    4986:	a6 97       	sbiw	r28, 0x26	; 38
    4988:	e7 5d       	subi	r30, 0xD7	; 215
    498a:	f6 4f       	sbci	r31, 0xF6	; 246
    498c:	d8 01       	movw	r26, r16
    498e:	1e 96       	adiw	r26, 0x0e	; 14
    4990:	af 96       	adiw	r28, 0x2f	; 47
    4992:	2f ad       	ldd	r18, Y+63	; 0x3f
    4994:	af 97       	sbiw	r28, 0x2f	; 47
    4996:	82 2f       	mov	r24, r18
    4998:	90 e0       	ldi	r25, 0x00	; 0
    499a:	86 5d       	subi	r24, 0xD6	; 214
    499c:	96 4f       	sbci	r25, 0xF6	; 246
    499e:	e0 96       	adiw	r28, 0x30	; 48
    49a0:	2f ad       	ldd	r18, Y+63	; 0x3f
    49a2:	e0 97       	sbiw	r28, 0x30	; 48
    49a4:	21 50       	subi	r18, 0x01	; 1
    49a6:	82 0f       	add	r24, r18
    49a8:	91 1d       	adc	r25, r1
    49aa:	21 91       	ld	r18, Z+
    49ac:	2d 93       	st	X+, r18
    49ae:	e8 17       	cp	r30, r24
    49b0:	f9 07       	cpc	r31, r25
    49b2:	d9 f7       	brne	.-10     	; 0x49aa <SNMP_requestPdu+0x534>
    49b4:	0d c0       	rjmp	.+26     	; 0x49d0 <SNMP_requestPdu+0x55a>
    49b6:	21 91       	ld	r18, Z+
    49b8:	2d 93       	st	X+, r18
    49ba:	e8 17       	cp	r30, r24
    49bc:	f9 07       	cpc	r31, r25
    49be:	d9 f7       	brne	.-10     	; 0x49b6 <SNMP_requestPdu+0x540>
    49c0:	80 e0       	ldi	r24, 0x00	; 0
    49c2:	30 c0       	rjmp	.+96     	; 0x4a24 <SNMP_requestPdu+0x5ae>
    49c4:	86 e0       	ldi	r24, 0x06	; 6
    49c6:	2e c0       	rjmp	.+92     	; 0x4a24 <SNMP_requestPdu+0x5ae>
    49c8:	85 e0       	ldi	r24, 0x05	; 5
    49ca:	2c c0       	rjmp	.+88     	; 0x4a24 <SNMP_requestPdu+0x5ae>
    49cc:	80 e0       	ldi	r24, 0x00	; 0
    49ce:	2a c0       	rjmp	.+84     	; 0x4a24 <SNMP_requestPdu+0x5ae>
    49d0:	f8 01       	movw	r30, r16
    49d2:	ee 56       	subi	r30, 0x6E	; 110
    49d4:	ff 4f       	sbci	r31, 0xFF	; 255
    49d6:	e3 96       	adiw	r28, 0x33	; 51
    49d8:	3f ad       	ldd	r19, Y+63	; 0x3f
    49da:	e3 97       	sbiw	r28, 0x33	; 51
    49dc:	30 83       	st	Z, r19
    49de:	32 97       	sbiw	r30, 0x02	; 2
    49e0:	e2 96       	adiw	r28, 0x32	; 50
    49e2:	4f ad       	ldd	r20, Y+63	; 0x3f
    49e4:	e2 97       	sbiw	r28, 0x32	; 50
    49e6:	84 2f       	mov	r24, r20
    49e8:	90 e0       	ldi	r25, 0x00	; 0
    49ea:	91 83       	std	Z+1, r25	; 0x01
    49ec:	80 83       	st	Z, r24
    49ee:	80 e4       	ldi	r24, 0x40	; 64
    49f0:	e0 54       	subi	r30, 0x40	; 64
    49f2:	f1 09       	sbc	r31, r1
    49f4:	df 01       	movw	r26, r30
    49f6:	1d 92       	st	X+, r1
    49f8:	8a 95       	dec	r24
    49fa:	e9 f7       	brne	.-6      	; 0x49f6 <SNMP_requestPdu+0x580>
    49fc:	44 23       	and	r20, r20
    49fe:	31 f3       	breq	.-52     	; 0x49cc <SNMP_requestPdu+0x556>
    4a00:	e1 96       	adiw	r28, 0x31	; 49
    4a02:	bf ad       	ldd	r27, Y+63	; 0x3f
    4a04:	e1 97       	sbiw	r28, 0x31	; 49
    4a06:	8b 2f       	mov	r24, r27
    4a08:	90 e0       	ldi	r25, 0x00	; 0
    4a0a:	fc 01       	movw	r30, r24
    4a0c:	eb 5d       	subi	r30, 0xDB	; 219
    4a0e:	f6 4f       	sbci	r31, 0xF6	; 246
    4a10:	d8 01       	movw	r26, r16
    4a12:	a0 5b       	subi	r26, 0xB0	; 176
    4a14:	bf 4f       	sbci	r27, 0xFF	; 255
    4a16:	8a 5d       	subi	r24, 0xDA	; 218
    4a18:	96 4f       	sbci	r25, 0xF6	; 246
    4a1a:	24 2f       	mov	r18, r20
    4a1c:	21 50       	subi	r18, 0x01	; 1
    4a1e:	82 0f       	add	r24, r18
    4a20:	91 1d       	adc	r25, r1
    4a22:	c9 cf       	rjmp	.-110    	; 0x49b6 <SNMP_requestPdu+0x540>
    4a24:	ce 58       	subi	r28, 0x8E	; 142
    4a26:	df 4f       	sbci	r29, 0xFF	; 255
    4a28:	0f b6       	in	r0, 0x3f	; 63
    4a2a:	f8 94       	cli
    4a2c:	de bf       	out	0x3e, r29	; 62
    4a2e:	0f be       	out	0x3f, r0	; 63
    4a30:	cd bf       	out	0x3d, r28	; 61
    4a32:	df 91       	pop	r29
    4a34:	cf 91       	pop	r28
    4a36:	1f 91       	pop	r17
    4a38:	0f 91       	pop	r16
    4a3a:	ff 90       	pop	r15
    4a3c:	ef 90       	pop	r14
    4a3e:	df 90       	pop	r13
    4a40:	cf 90       	pop	r12
    4a42:	bf 90       	pop	r11
    4a44:	af 90       	pop	r10
    4a46:	9f 90       	pop	r9
    4a48:	8f 90       	pop	r8
    4a4a:	7f 90       	pop	r7
    4a4c:	6f 90       	pop	r6
    4a4e:	5f 90       	pop	r5
    4a50:	4f 90       	pop	r4
    4a52:	3f 90       	pop	r3
    4a54:	2f 90       	pop	r2
    4a56:	08 95       	ret

00004a58 <SNMP_responsePdu>:
    4a58:	cf 92       	push	r12
    4a5a:	df 92       	push	r13
    4a5c:	ef 92       	push	r14
    4a5e:	ff 92       	push	r15
    4a60:	0f 93       	push	r16
    4a62:	1f 93       	push	r17
    4a64:	cf 93       	push	r28
    4a66:	df 93       	push	r29
    4a68:	dc 01       	movw	r26, r24
    4a6a:	10 92 bc 09 	sts	0x09BC, r1
    4a6e:	10 92 bb 09 	sts	0x09BB, r1
    4a72:	ec 01       	movw	r28, r24
    4a74:	c2 5b       	subi	r28, 0xB2	; 178
    4a76:	df 4f       	sbci	r29, 0xFF	; 255
    4a78:	fc 01       	movw	r30, r24
    4a7a:	e0 57       	subi	r30, 0x70	; 112
    4a7c:	ff 4f       	sbci	r31, 0xFF	; 255
    4a7e:	28 81       	ld	r18, Y
    4a80:	39 81       	ldd	r19, Y+1	; 0x01
    4a82:	80 81       	ld	r24, Z
    4a84:	91 81       	ldd	r25, Z+1	; 0x01
    4a86:	28 0f       	add	r18, r24
    4a88:	39 1f       	adc	r19, r25
    4a8a:	2b 5d       	subi	r18, 0xDB	; 219
    4a8c:	3f 4f       	sbci	r19, 0xFF	; 255
    4a8e:	89 e9       	ldi	r24, 0x99	; 153
    4a90:	e2 e2       	ldi	r30, 0x22	; 34
    4a92:	f9 e0       	ldi	r31, 0x09	; 9
    4a94:	ef 01       	movw	r28, r30
    4a96:	19 92       	st	Y+, r1
    4a98:	8a 95       	dec	r24
    4a9a:	e9 f7       	brne	.-6      	; 0x4a96 <SNMP_responsePdu+0x3e>
    4a9c:	80 91 6e 0b 	lds	r24, 0x0B6E
    4aa0:	83 3a       	cpi	r24, 0xA3	; 163
    4aa2:	29 f5       	brne	.+74     	; 0x4aee <SNMP_responsePdu+0x96>
    4aa4:	80 91 10 0a 	lds	r24, 0x0A10
    4aa8:	90 91 11 0a 	lds	r25, 0x0A11
    4aac:	28 0f       	add	r18, r24
    4aae:	39 1f       	adc	r19, r25
    4ab0:	30 93 d5 09 	sts	0x09D5, r19
    4ab4:	20 93 d4 09 	sts	0x09D4, r18
    4ab8:	30 e3       	ldi	r19, 0x30	; 48
    4aba:	30 93 22 09 	sts	0x0922, r19
    4abe:	22 50       	subi	r18, 0x02	; 2
    4ac0:	20 93 23 09 	sts	0x0923, r18
    4ac4:	22 e0       	ldi	r18, 0x02	; 2
    4ac6:	20 93 24 09 	sts	0x0924, r18
    4aca:	21 e0       	ldi	r18, 0x01	; 1
    4acc:	20 93 25 09 	sts	0x0925, r18
    4ad0:	24 e0       	ldi	r18, 0x04	; 4
    4ad2:	20 93 27 09 	sts	0x0927, r18
    4ad6:	27 e0       	ldi	r18, 0x07	; 7
    4ad8:	30 e0       	ldi	r19, 0x00	; 0
    4ada:	30 93 bc 09 	sts	0x09BC, r19
    4ade:	20 93 bb 09 	sts	0x09BB, r18
    4ae2:	bc 01       	movw	r22, r24
    4ae4:	80 93 28 09 	sts	0x0928, r24
    4ae8:	00 97       	sbiw	r24, 0x00	; 0
    4aea:	31 f5       	brne	.+76     	; 0x4b38 <SNMP_responsePdu+0xe0>
    4aec:	66 c0       	rjmp	.+204    	; 0x4bba <SNMP_responsePdu+0x162>
    4aee:	80 91 da 09 	lds	r24, 0x09DA
    4af2:	90 91 db 09 	lds	r25, 0x09DB
    4af6:	28 0f       	add	r18, r24
    4af8:	39 1f       	adc	r19, r25
    4afa:	30 93 d5 09 	sts	0x09D5, r19
    4afe:	20 93 d4 09 	sts	0x09D4, r18
    4b02:	30 e3       	ldi	r19, 0x30	; 48
    4b04:	30 93 22 09 	sts	0x0922, r19
    4b08:	22 50       	subi	r18, 0x02	; 2
    4b0a:	20 93 23 09 	sts	0x0923, r18
    4b0e:	22 e0       	ldi	r18, 0x02	; 2
    4b10:	20 93 24 09 	sts	0x0924, r18
    4b14:	21 e0       	ldi	r18, 0x01	; 1
    4b16:	20 93 25 09 	sts	0x0925, r18
    4b1a:	24 e0       	ldi	r18, 0x04	; 4
    4b1c:	20 93 27 09 	sts	0x0927, r18
    4b20:	27 e0       	ldi	r18, 0x07	; 7
    4b22:	30 e0       	ldi	r19, 0x00	; 0
    4b24:	30 93 bc 09 	sts	0x09BC, r19
    4b28:	20 93 bb 09 	sts	0x09BB, r18
    4b2c:	bc 01       	movw	r22, r24
    4b2e:	80 93 28 09 	sts	0x0928, r24
    4b32:	00 97       	sbiw	r24, 0x00	; 0
    4b34:	11 f5       	brne	.+68     	; 0x4b7a <SNMP_responsePdu+0x122>
    4b36:	41 c0       	rjmp	.+130    	; 0x4bba <SNMP_responsePdu+0x162>
    4b38:	00 91 50 0d 	lds	r16, 0x0D50
    4b3c:	10 91 51 0d 	lds	r17, 0x0D51
    4b40:	80 e0       	ldi	r24, 0x00	; 0
    4b42:	90 e0       	ldi	r25, 0x00	; 0
    4b44:	c0 e0       	ldi	r28, 0x00	; 0
    4b46:	20 91 bb 09 	lds	r18, 0x09BB
    4b4a:	30 91 bc 09 	lds	r19, 0x09BC
    4b4e:	a9 01       	movw	r20, r18
    4b50:	4f 5f       	subi	r20, 0xFF	; 255
    4b52:	5f 4f       	sbci	r21, 0xFF	; 255
    4b54:	50 93 bc 09 	sts	0x09BC, r21
    4b58:	40 93 bb 09 	sts	0x09BB, r20
    4b5c:	80 0f       	add	r24, r16
    4b5e:	91 1f       	adc	r25, r17
    4b60:	fc 01       	movw	r30, r24
    4b62:	80 81       	ld	r24, Z
    4b64:	2e 5d       	subi	r18, 0xDE	; 222
    4b66:	36 4f       	sbci	r19, 0xF6	; 246
    4b68:	f9 01       	movw	r30, r18
    4b6a:	80 83       	st	Z, r24
    4b6c:	cf 5f       	subi	r28, 0xFF	; 255
    4b6e:	8c 2f       	mov	r24, r28
    4b70:	90 e0       	ldi	r25, 0x00	; 0
    4b72:	86 17       	cp	r24, r22
    4b74:	97 07       	cpc	r25, r23
    4b76:	38 f3       	brcs	.-50     	; 0x4b46 <SNMP_responsePdu+0xee>
    4b78:	20 c0       	rjmp	.+64     	; 0x4bba <SNMP_responsePdu+0x162>
    4b7a:	00 91 1a 09 	lds	r16, 0x091A
    4b7e:	10 91 1b 09 	lds	r17, 0x091B
    4b82:	80 e0       	ldi	r24, 0x00	; 0
    4b84:	90 e0       	ldi	r25, 0x00	; 0
    4b86:	c0 e0       	ldi	r28, 0x00	; 0
    4b88:	20 91 bb 09 	lds	r18, 0x09BB
    4b8c:	30 91 bc 09 	lds	r19, 0x09BC
    4b90:	a9 01       	movw	r20, r18
    4b92:	4f 5f       	subi	r20, 0xFF	; 255
    4b94:	5f 4f       	sbci	r21, 0xFF	; 255
    4b96:	50 93 bc 09 	sts	0x09BC, r21
    4b9a:	40 93 bb 09 	sts	0x09BB, r20
    4b9e:	80 0f       	add	r24, r16
    4ba0:	91 1f       	adc	r25, r17
    4ba2:	fc 01       	movw	r30, r24
    4ba4:	80 81       	ld	r24, Z
    4ba6:	2e 5d       	subi	r18, 0xDE	; 222
    4ba8:	36 4f       	sbci	r19, 0xF6	; 246
    4baa:	f9 01       	movw	r30, r18
    4bac:	80 83       	st	Z, r24
    4bae:	cf 5f       	subi	r28, 0xFF	; 255
    4bb0:	8c 2f       	mov	r24, r28
    4bb2:	90 e0       	ldi	r25, 0x00	; 0
    4bb4:	86 17       	cp	r24, r22
    4bb6:	97 07       	cpc	r25, r23
    4bb8:	38 f3       	brcs	.-50     	; 0x4b88 <SNMP_responsePdu+0x130>
    4bba:	80 91 bb 09 	lds	r24, 0x09BB
    4bbe:	90 91 bc 09 	lds	r25, 0x09BC
    4bc2:	9c 01       	movw	r18, r24
    4bc4:	2f 5f       	subi	r18, 0xFF	; 255
    4bc6:	3f 4f       	sbci	r19, 0xFF	; 255
    4bc8:	30 93 bc 09 	sts	0x09BC, r19
    4bcc:	20 93 bb 09 	sts	0x09BB, r18
    4bd0:	4c 91       	ld	r20, X
    4bd2:	fc 01       	movw	r30, r24
    4bd4:	ee 5d       	subi	r30, 0xDE	; 222
    4bd6:	f6 4f       	sbci	r31, 0xF6	; 246
    4bd8:	40 83       	st	Z, r20
    4bda:	a9 01       	movw	r20, r18
    4bdc:	4e 5d       	subi	r20, 0xDE	; 222
    4bde:	56 4f       	sbci	r21, 0xF6	; 246
    4be0:	7d 01       	movw	r14, r26
    4be2:	2e e4       	ldi	r18, 0x4E	; 78
    4be4:	e2 0e       	add	r14, r18
    4be6:	f1 1c       	adc	r15, r1
    4be8:	e7 01       	movw	r28, r14
    4bea:	78 81       	ld	r23, Y
    4bec:	9d 01       	movw	r18, r26
    4bee:	20 57       	subi	r18, 0x70	; 112
    4bf0:	3f 4f       	sbci	r19, 0xFF	; 255
    4bf2:	e9 01       	movw	r28, r18
    4bf4:	68 81       	ld	r22, Y
    4bf6:	67 0f       	add	r22, r23
    4bf8:	66 5e       	subi	r22, 0xE6	; 230
    4bfa:	ea 01       	movw	r28, r20
    4bfc:	68 83       	st	Y, r22
    4bfe:	02 e0       	ldi	r16, 0x02	; 2
    4c00:	02 83       	std	Z+2, r16	; 0x02
    4c02:	14 e0       	ldi	r17, 0x04	; 4
    4c04:	13 83       	std	Z+3, r17	; 0x03
    4c06:	15 96       	adiw	r26, 0x05	; 5
    4c08:	4c 91       	ld	r20, X
    4c0a:	15 97       	sbiw	r26, 0x05	; 5
    4c0c:	16 96       	adiw	r26, 0x06	; 6
    4c0e:	5c 91       	ld	r21, X
    4c10:	16 97       	sbiw	r26, 0x06	; 6
    4c12:	17 96       	adiw	r26, 0x07	; 7
    4c14:	6c 91       	ld	r22, X
    4c16:	17 97       	sbiw	r26, 0x07	; 7
    4c18:	18 96       	adiw	r26, 0x08	; 8
    4c1a:	7c 91       	ld	r23, X
    4c1c:	18 97       	sbiw	r26, 0x08	; 8
    4c1e:	74 83       	std	Z+4, r23	; 0x04
    4c20:	65 83       	std	Z+5, r22	; 0x05
    4c22:	56 83       	std	Z+6, r21	; 0x06
    4c24:	47 83       	std	Z+7, r20	; 0x07
    4c26:	00 87       	std	Z+8, r16	; 0x08
    4c28:	11 87       	std	Z+9, r17	; 0x09
    4c2a:	19 96       	adiw	r26, 0x09	; 9
    4c2c:	4c 91       	ld	r20, X
    4c2e:	19 97       	sbiw	r26, 0x09	; 9
    4c30:	12 86       	std	Z+10, r1	; 0x0a
    4c32:	13 86       	std	Z+11, r1	; 0x0b
    4c34:	14 86       	std	Z+12, r1	; 0x0c
    4c36:	45 87       	std	Z+13, r20	; 0x0d
    4c38:	06 87       	std	Z+14, r16	; 0x0e
    4c3a:	17 87       	std	Z+15, r17	; 0x0f
    4c3c:	1a 96       	adiw	r26, 0x0a	; 10
    4c3e:	4c 91       	ld	r20, X
    4c40:	1a 97       	sbiw	r26, 0x0a	; 10
    4c42:	1b 96       	adiw	r26, 0x0b	; 11
    4c44:	5c 91       	ld	r21, X
    4c46:	1b 97       	sbiw	r26, 0x0b	; 11
    4c48:	1c 96       	adiw	r26, 0x0c	; 12
    4c4a:	6c 91       	ld	r22, X
    4c4c:	1c 97       	sbiw	r26, 0x0c	; 12
    4c4e:	1d 96       	adiw	r26, 0x0d	; 13
    4c50:	7c 91       	ld	r23, X
    4c52:	1d 97       	sbiw	r26, 0x0d	; 13
    4c54:	70 8b       	std	Z+16, r23	; 0x10
    4c56:	61 8b       	std	Z+17, r22	; 0x11
    4c58:	52 8b       	std	Z+18, r21	; 0x12
    4c5a:	43 8b       	std	Z+19, r20	; 0x13
    4c5c:	40 e3       	ldi	r20, 0x30	; 48
    4c5e:	44 8b       	std	Z+20, r20	; 0x14
    4c60:	e7 01       	movw	r28, r14
    4c62:	68 81       	ld	r22, Y
    4c64:	e9 01       	movw	r28, r18
    4c66:	58 81       	ld	r21, Y
    4c68:	56 0f       	add	r21, r22
    4c6a:	5a 5f       	subi	r21, 0xFA	; 250
    4c6c:	55 8b       	std	Z+21, r21	; 0x15
    4c6e:	46 8b       	std	Z+22, r20	; 0x16
    4c70:	e7 01       	movw	r28, r14
    4c72:	48 81       	ld	r20, Y
    4c74:	e9 01       	movw	r28, r18
    4c76:	28 81       	ld	r18, Y
    4c78:	24 0f       	add	r18, r20
    4c7a:	2c 5f       	subi	r18, 0xFC	; 252
    4c7c:	27 8b       	std	Z+23, r18	; 0x17
    4c7e:	26 e0       	ldi	r18, 0x06	; 6
    4c80:	20 8f       	std	Z+24, r18	; 0x18
    4c82:	4a 96       	adiw	r24, 0x1a	; 26
    4c84:	90 93 bc 09 	sts	0x09BC, r25
    4c88:	80 93 bb 09 	sts	0x09BB, r24
    4c8c:	e7 01       	movw	r28, r14
    4c8e:	88 81       	ld	r24, Y
    4c90:	81 8f       	std	Z+25, r24	; 0x19
    4c92:	88 81       	ld	r24, Y
    4c94:	99 81       	ldd	r25, Y+1	; 0x01
    4c96:	89 2b       	or	r24, r25
    4c98:	49 f1       	breq	.+82     	; 0x4cec <SNMP_responsePdu+0x294>
    4c9a:	80 91 bb 09 	lds	r24, 0x09BB
    4c9e:	90 91 bc 09 	lds	r25, 0x09BC
    4ca2:	fd 01       	movw	r30, r26
    4ca4:	3e 96       	adiw	r30, 0x0e	; 14
    4ca6:	9c 01       	movw	r18, r24
    4ca8:	2e 5d       	subi	r18, 0xDE	; 222
    4caa:	36 4f       	sbci	r19, 0xF6	; 246
    4cac:	69 01       	movw	r12, r18
    4cae:	7c 01       	movw	r14, r24
    4cb0:	3d e0       	ldi	r19, 0x0D	; 13
    4cb2:	e3 1a       	sub	r14, r19
    4cb4:	f1 08       	sbc	r15, r1
    4cb6:	ea 1a       	sub	r14, r26
    4cb8:	fb 0a       	sbc	r15, r27
    4cba:	02 ef       	ldi	r16, 0xF2	; 242
    4cbc:	1f ef       	ldi	r17, 0xFF	; 255
    4cbe:	0a 1b       	sub	r16, r26
    4cc0:	1b 0b       	sbc	r17, r27
    4cc2:	be 01       	movw	r22, r28
    4cc4:	a7 01       	movw	r20, r14
    4cc6:	4e 0f       	add	r20, r30
    4cc8:	5f 1f       	adc	r21, r31
    4cca:	81 91       	ld	r24, Z+
    4ccc:	e6 01       	movw	r28, r12
    4cce:	89 93       	st	Y+, r24
    4cd0:	6e 01       	movw	r12, r28
    4cd2:	98 01       	movw	r18, r16
    4cd4:	2e 0f       	add	r18, r30
    4cd6:	3f 1f       	adc	r19, r31
    4cd8:	eb 01       	movw	r28, r22
    4cda:	88 81       	ld	r24, Y
    4cdc:	99 81       	ldd	r25, Y+1	; 0x01
    4cde:	28 17       	cp	r18, r24
    4ce0:	39 07       	cpc	r19, r25
    4ce2:	80 f3       	brcs	.-32     	; 0x4cc4 <SNMP_responsePdu+0x26c>
    4ce4:	50 93 bc 09 	sts	0x09BC, r21
    4ce8:	40 93 bb 09 	sts	0x09BB, r20
    4cec:	80 91 bb 09 	lds	r24, 0x09BB
    4cf0:	90 91 bc 09 	lds	r25, 0x09BC
    4cf4:	fd 01       	movw	r30, r26
    4cf6:	ee 56       	subi	r30, 0x6E	; 110
    4cf8:	ff 4f       	sbci	r31, 0xFF	; 255
    4cfa:	20 81       	ld	r18, Z
    4cfc:	ec 01       	movw	r28, r24
    4cfe:	ce 5d       	subi	r28, 0xDE	; 222
    4d00:	d6 4f       	sbci	r29, 0xF6	; 246
    4d02:	28 83       	st	Y, r18
    4d04:	02 96       	adiw	r24, 0x02	; 2
    4d06:	90 93 bc 09 	sts	0x09BC, r25
    4d0a:	80 93 bb 09 	sts	0x09BB, r24
    4d0e:	32 97       	sbiw	r30, 0x02	; 2
    4d10:	80 81       	ld	r24, Z
    4d12:	89 83       	std	Y+1, r24	; 0x01
    4d14:	80 81       	ld	r24, Z
    4d16:	91 81       	ldd	r25, Z+1	; 0x01
    4d18:	89 2b       	or	r24, r25
    4d1a:	29 f1       	breq	.+74     	; 0x4d66 <SNMP_responsePdu+0x30e>
    4d1c:	00 91 bb 09 	lds	r16, 0x09BB
    4d20:	10 91 bc 09 	lds	r17, 0x09BC
    4d24:	e0 54       	subi	r30, 0x40	; 64
    4d26:	f1 09       	sbc	r31, r1
    4d28:	e8 01       	movw	r28, r16
    4d2a:	ce 5d       	subi	r28, 0xDE	; 222
    4d2c:	d6 4f       	sbci	r29, 0xF6	; 246
    4d2e:	0f 54       	subi	r16, 0x4F	; 79
    4d30:	11 09       	sbc	r17, r1
    4d32:	0a 1b       	sub	r16, r26
    4d34:	1b 0b       	sbc	r17, r27
    4d36:	60 eb       	ldi	r22, 0xB0	; 176
    4d38:	7f ef       	ldi	r23, 0xFF	; 255
    4d3a:	6a 1b       	sub	r22, r26
    4d3c:	7b 0b       	sbc	r23, r27
    4d3e:	a0 57       	subi	r26, 0x70	; 112
    4d40:	bf 4f       	sbci	r27, 0xFF	; 255
    4d42:	a8 01       	movw	r20, r16
    4d44:	4e 0f       	add	r20, r30
    4d46:	5f 1f       	adc	r21, r31
    4d48:	81 91       	ld	r24, Z+
    4d4a:	89 93       	st	Y+, r24
    4d4c:	9b 01       	movw	r18, r22
    4d4e:	2e 0f       	add	r18, r30
    4d50:	3f 1f       	adc	r19, r31
    4d52:	8d 91       	ld	r24, X+
    4d54:	9c 91       	ld	r25, X
    4d56:	11 97       	sbiw	r26, 0x01	; 1
    4d58:	28 17       	cp	r18, r24
    4d5a:	39 07       	cpc	r19, r25
    4d5c:	90 f3       	brcs	.-28     	; 0x4d42 <SNMP_responsePdu+0x2ea>
    4d5e:	50 93 bc 09 	sts	0x09BC, r21
    4d62:	40 93 bb 09 	sts	0x09BB, r20
    4d66:	60 91 66 12 	lds	r22, 0x1266
    4d6a:	70 91 67 12 	lds	r23, 0x1267
    4d6e:	8c e6       	ldi	r24, 0x6C	; 108
    4d70:	92 e1       	ldi	r25, 0x12	; 18
    4d72:	0e 94 d5 18 	call	0x31aa	; 0x31aa <_UDPtoSerialSocket_beginPacket>
    4d76:	60 91 d4 09 	lds	r22, 0x09D4
    4d7a:	70 91 d5 09 	lds	r23, 0x09D5
    4d7e:	82 e2       	ldi	r24, 0x22	; 34
    4d80:	99 e0       	ldi	r25, 0x09	; 9
    4d82:	0e 94 de 18 	call	0x31bc	; 0x31bc <_UDPtoSerialSocket_write>
    4d86:	80 e0       	ldi	r24, 0x00	; 0
    4d88:	df 91       	pop	r29
    4d8a:	cf 91       	pop	r28
    4d8c:	1f 91       	pop	r17
    4d8e:	0f 91       	pop	r16
    4d90:	ff 90       	pop	r15
    4d92:	ef 90       	pop	r14
    4d94:	df 90       	pop	r13
    4d96:	cf 90       	pop	r12
    4d98:	08 95       	ret

00004d9a <SNMP_responsePduGetBulk>:
    4d9a:	bf 92       	push	r11
    4d9c:	cf 92       	push	r12
    4d9e:	df 92       	push	r13
    4da0:	ef 92       	push	r14
    4da2:	ff 92       	push	r15
    4da4:	0f 93       	push	r16
    4da6:	1f 93       	push	r17
    4da8:	cf 93       	push	r28
    4daa:	df 93       	push	r29
    4dac:	cd b7       	in	r28, 0x3d	; 61
    4dae:	de b7       	in	r29, 0x3e	; 62
    4db0:	c4 59       	subi	r28, 0x94	; 148
    4db2:	d1 09       	sbc	r29, r1
    4db4:	0f b6       	in	r0, 0x3f	; 63
    4db6:	f8 94       	cli
    4db8:	de bf       	out	0x3e, r29	; 62
    4dba:	0f be       	out	0x3f, r0	; 63
    4dbc:	cd bf       	out	0x3d, r28	; 61
    4dbe:	7c 01       	movw	r14, r24
    4dc0:	dc 01       	movw	r26, r24
    4dc2:	19 96       	adiw	r26, 0x09	; 9
    4dc4:	1c 92       	st	X, r1
    4dc6:	fc 01       	movw	r30, r24
    4dc8:	12 86       	std	Z+10, r1	; 0x0a
    4dca:	13 86       	std	Z+11, r1	; 0x0b
    4dcc:	14 86       	std	Z+12, r1	; 0x0c
    4dce:	15 86       	std	Z+13, r1	; 0x0d
    4dd0:	10 92 bc 09 	sts	0x09BC, r1
    4dd4:	10 92 bb 09 	sts	0x09BB, r1
    4dd8:	8f e1       	ldi	r24, 0x1F	; 31
    4dda:	90 e0       	ldi	r25, 0x00	; 0
    4ddc:	90 93 d5 09 	sts	0x09D5, r25
    4de0:	80 93 d4 09 	sts	0x09D4, r24
    4de4:	80 91 cc 09 	lds	r24, 0x09CC
    4de8:	88 23       	and	r24, r24
    4dea:	09 f4       	brne	.+2      	; 0x4dee <SNMP_responsePduGetBulk+0x54>
    4dec:	46 c0       	rjmp	.+140    	; 0x4e7a <SNMP_responsePduGetBulk+0xe0>
    4dee:	b1 2c       	mov	r11, r1
    4df0:	0b 2d       	mov	r16, r11
    4df2:	10 e0       	ldi	r17, 0x00	; 0
    4df4:	00 0f       	add	r16, r16
    4df6:	11 1f       	adc	r17, r17
    4df8:	0e 5e       	subi	r16, 0xEE	; 238
    4dfa:	15 4f       	sbci	r17, 0xF5	; 245
    4dfc:	d8 01       	movw	r26, r16
    4dfe:	8d 91       	ld	r24, X+
    4e00:	9c 91       	ld	r25, X
    4e02:	fc 01       	movw	r30, r24
    4e04:	ee 0f       	add	r30, r30
    4e06:	ff 1f       	adc	r31, r31
    4e08:	ee 0f       	add	r30, r30
    4e0a:	ff 1f       	adc	r31, r31
    4e0c:	ee 0f       	add	r30, r30
    4e0e:	ff 1f       	adc	r31, r31
    4e10:	e8 1b       	sub	r30, r24
    4e12:	f9 0b       	sbc	r31, r25
    4e14:	ec 5f       	subi	r30, 0xFC	; 252
    4e16:	fd 4f       	sbci	r31, 0xFD	; 253
    4e18:	22 81       	ldd	r18, Z+2	; 0x02
    4e1a:	ae 01       	movw	r20, r28
    4e1c:	4f 5a       	subi	r20, 0xAF	; 175
    4e1e:	5f 4f       	sbci	r21, 0xFF	; 255
    4e20:	65 81       	ldd	r22, Z+5	; 0x05
    4e22:	83 81       	ldd	r24, Z+3	; 0x03
    4e24:	94 81       	ldd	r25, Z+4	; 0x04
    4e26:	ce da       	rcall	.-2660   	; 0x43c4 <Encode>
    4e28:	f8 01       	movw	r30, r16
    4e2a:	20 81       	ld	r18, Z
    4e2c:	31 81       	ldd	r19, Z+1	; 0x01
    4e2e:	f9 01       	movw	r30, r18
    4e30:	ee 0f       	add	r30, r30
    4e32:	ff 1f       	adc	r31, r31
    4e34:	ee 0f       	add	r30, r30
    4e36:	ff 1f       	adc	r31, r31
    4e38:	ee 0f       	add	r30, r30
    4e3a:	ff 1f       	adc	r31, r31
    4e3c:	e2 1b       	sub	r30, r18
    4e3e:	f3 0b       	sbc	r31, r19
    4e40:	ec 5f       	subi	r30, 0xFC	; 252
    4e42:	fd 4f       	sbci	r31, 0xFD	; 253
    4e44:	60 81       	ld	r22, Z
    4e46:	71 81       	ldd	r23, Z+1	; 0x01
    4e48:	ce 01       	movw	r24, r28
    4e4a:	0f 96       	adiw	r24, 0x0f	; 15
    4e4c:	0e 94 aa 1d 	call	0x3b54	; 0x3b54 <SNMP_OID_fromString>
    4e50:	60 96       	adiw	r28, 0x10	; 16
    4e52:	2f ad       	ldd	r18, Y+63	; 0x3f
    4e54:	60 97       	sbiw	r28, 0x10	; 16
    4e56:	cf 56       	subi	r28, 0x6F	; 111
    4e58:	df 4f       	sbci	r29, 0xFF	; 255
    4e5a:	88 81       	ld	r24, Y
    4e5c:	99 81       	ldd	r25, Y+1	; 0x01
    4e5e:	c1 59       	subi	r28, 0x91	; 145
    4e60:	d0 40       	sbci	r29, 0x00	; 0
    4e62:	99 27       	eor	r25, r25
    4e64:	82 0f       	add	r24, r18
    4e66:	91 1d       	adc	r25, r1
    4e68:	06 96       	adiw	r24, 0x06	; 6
    4e6a:	c8 0e       	add	r12, r24
    4e6c:	d9 1e       	adc	r13, r25
    4e6e:	b3 94       	inc	r11
    4e70:	80 91 cc 09 	lds	r24, 0x09CC
    4e74:	b8 16       	cp	r11, r24
    4e76:	08 f4       	brcc	.+2      	; 0x4e7a <SNMP_responsePduGetBulk+0xe0>
    4e78:	bb cf       	rjmp	.-138    	; 0x4df0 <SNMP_responsePduGetBulk+0x56>
    4e7a:	80 91 d4 09 	lds	r24, 0x09D4
    4e7e:	90 91 d5 09 	lds	r25, 0x09D5
    4e82:	8c 0d       	add	r24, r12
    4e84:	9d 1d       	adc	r25, r13
    4e86:	29 e9       	ldi	r18, 0x99	; 153
    4e88:	e2 e2       	ldi	r30, 0x22	; 34
    4e8a:	f9 e0       	ldi	r31, 0x09	; 9
    4e8c:	df 01       	movw	r26, r30
    4e8e:	1d 92       	st	X+, r1
    4e90:	2a 95       	dec	r18
    4e92:	e9 f7       	brne	.-6      	; 0x4e8e <SNMP_responsePduGetBulk+0xf4>
    4e94:	60 91 6e 0b 	lds	r22, 0x0B6E
    4e98:	63 3a       	cpi	r22, 0xA3	; 163
    4e9a:	59 f4       	brne	.+22     	; 0x4eb2 <SNMP_responsePduGetBulk+0x118>
    4e9c:	20 91 10 0a 	lds	r18, 0x0A10
    4ea0:	30 91 11 0a 	lds	r19, 0x0A11
    4ea4:	82 0f       	add	r24, r18
    4ea6:	93 1f       	adc	r25, r19
    4ea8:	90 93 d5 09 	sts	0x09D5, r25
    4eac:	80 93 d4 09 	sts	0x09D4, r24
    4eb0:	0a c0       	rjmp	.+20     	; 0x4ec6 <SNMP_responsePduGetBulk+0x12c>
    4eb2:	20 91 da 09 	lds	r18, 0x09DA
    4eb6:	30 91 db 09 	lds	r19, 0x09DB
    4eba:	82 0f       	add	r24, r18
    4ebc:	93 1f       	adc	r25, r19
    4ebe:	90 93 d5 09 	sts	0x09D5, r25
    4ec2:	80 93 d4 09 	sts	0x09D4, r24
    4ec6:	80 91 bb 09 	lds	r24, 0x09BB
    4eca:	90 91 bc 09 	lds	r25, 0x09BC
    4ece:	fc 01       	movw	r30, r24
    4ed0:	ee 5d       	subi	r30, 0xDE	; 222
    4ed2:	f6 4f       	sbci	r31, 0xF6	; 246
    4ed4:	20 e3       	ldi	r18, 0x30	; 48
    4ed6:	20 83       	st	Z, r18
    4ed8:	22 e8       	ldi	r18, 0x82	; 130
    4eda:	21 83       	std	Z+1, r18	; 0x01
    4edc:	20 91 d4 09 	lds	r18, 0x09D4
    4ee0:	30 91 d5 09 	lds	r19, 0x09D5
    4ee4:	a9 01       	movw	r20, r18
    4ee6:	44 50       	subi	r20, 0x04	; 4
    4ee8:	51 09       	sbc	r21, r1
    4eea:	52 83       	std	Z+2, r21	; 0x02
    4eec:	24 50       	subi	r18, 0x04	; 4
    4eee:	23 83       	std	Z+3, r18	; 0x03
    4ef0:	22 e0       	ldi	r18, 0x02	; 2
    4ef2:	24 83       	std	Z+4, r18	; 0x04
    4ef4:	21 e0       	ldi	r18, 0x01	; 1
    4ef6:	25 83       	std	Z+5, r18	; 0x05
    4ef8:	16 82       	std	Z+6, r1	; 0x06
    4efa:	9c 01       	movw	r18, r24
    4efc:	28 5f       	subi	r18, 0xF8	; 248
    4efe:	3f 4f       	sbci	r19, 0xFF	; 255
    4f00:	44 e0       	ldi	r20, 0x04	; 4
    4f02:	47 83       	std	Z+7, r20	; 0x07
    4f04:	63 3a       	cpi	r22, 0xA3	; 163
    4f06:	91 f5       	brne	.+100    	; 0x4f6c <SNMP_responsePduGetBulk+0x1d2>
    4f08:	09 96       	adiw	r24, 0x09	; 9
    4f0a:	90 93 bc 09 	sts	0x09BC, r25
    4f0e:	80 93 bb 09 	sts	0x09BB, r24
    4f12:	60 91 10 0a 	lds	r22, 0x0A10
    4f16:	70 91 11 0a 	lds	r23, 0x0A11
    4f1a:	f9 01       	movw	r30, r18
    4f1c:	ee 5d       	subi	r30, 0xDE	; 222
    4f1e:	f6 4f       	sbci	r31, 0xF6	; 246
    4f20:	60 83       	st	Z, r22
    4f22:	61 15       	cp	r22, r1
    4f24:	71 05       	cpc	r23, r1
    4f26:	09 f4       	brne	.+2      	; 0x4f2a <SNMP_responsePduGetBulk+0x190>
    4f28:	51 c0       	rjmp	.+162    	; 0x4fcc <SNMP_responsePduGetBulk+0x232>
    4f2a:	00 91 50 0d 	lds	r16, 0x0D50
    4f2e:	10 91 51 0d 	lds	r17, 0x0D51
    4f32:	80 e0       	ldi	r24, 0x00	; 0
    4f34:	90 e0       	ldi	r25, 0x00	; 0
    4f36:	a0 e0       	ldi	r26, 0x00	; 0
    4f38:	20 91 bb 09 	lds	r18, 0x09BB
    4f3c:	30 91 bc 09 	lds	r19, 0x09BC
    4f40:	a9 01       	movw	r20, r18
    4f42:	4f 5f       	subi	r20, 0xFF	; 255
    4f44:	5f 4f       	sbci	r21, 0xFF	; 255
    4f46:	50 93 bc 09 	sts	0x09BC, r21
    4f4a:	40 93 bb 09 	sts	0x09BB, r20
    4f4e:	80 0f       	add	r24, r16
    4f50:	91 1f       	adc	r25, r17
    4f52:	fc 01       	movw	r30, r24
    4f54:	80 81       	ld	r24, Z
    4f56:	2e 5d       	subi	r18, 0xDE	; 222
    4f58:	36 4f       	sbci	r19, 0xF6	; 246
    4f5a:	f9 01       	movw	r30, r18
    4f5c:	80 83       	st	Z, r24
    4f5e:	af 5f       	subi	r26, 0xFF	; 255
    4f60:	8a 2f       	mov	r24, r26
    4f62:	90 e0       	ldi	r25, 0x00	; 0
    4f64:	86 17       	cp	r24, r22
    4f66:	97 07       	cpc	r25, r23
    4f68:	38 f3       	brcs	.-50     	; 0x4f38 <SNMP_responsePduGetBulk+0x19e>
    4f6a:	30 c0       	rjmp	.+96     	; 0x4fcc <SNMP_responsePduGetBulk+0x232>
    4f6c:	09 96       	adiw	r24, 0x09	; 9
    4f6e:	90 93 bc 09 	sts	0x09BC, r25
    4f72:	80 93 bb 09 	sts	0x09BB, r24
    4f76:	60 91 da 09 	lds	r22, 0x09DA
    4f7a:	70 91 db 09 	lds	r23, 0x09DB
    4f7e:	f9 01       	movw	r30, r18
    4f80:	ee 5d       	subi	r30, 0xDE	; 222
    4f82:	f6 4f       	sbci	r31, 0xF6	; 246
    4f84:	60 83       	st	Z, r22
    4f86:	61 15       	cp	r22, r1
    4f88:	71 05       	cpc	r23, r1
    4f8a:	01 f1       	breq	.+64     	; 0x4fcc <SNMP_responsePduGetBulk+0x232>
    4f8c:	00 91 1a 09 	lds	r16, 0x091A
    4f90:	10 91 1b 09 	lds	r17, 0x091B
    4f94:	80 e0       	ldi	r24, 0x00	; 0
    4f96:	90 e0       	ldi	r25, 0x00	; 0
    4f98:	a0 e0       	ldi	r26, 0x00	; 0
    4f9a:	20 91 bb 09 	lds	r18, 0x09BB
    4f9e:	30 91 bc 09 	lds	r19, 0x09BC
    4fa2:	a9 01       	movw	r20, r18
    4fa4:	4f 5f       	subi	r20, 0xFF	; 255
    4fa6:	5f 4f       	sbci	r21, 0xFF	; 255
    4fa8:	50 93 bc 09 	sts	0x09BC, r21
    4fac:	40 93 bb 09 	sts	0x09BB, r20
    4fb0:	80 0f       	add	r24, r16
    4fb2:	91 1f       	adc	r25, r17
    4fb4:	fc 01       	movw	r30, r24
    4fb6:	80 81       	ld	r24, Z
    4fb8:	2e 5d       	subi	r18, 0xDE	; 222
    4fba:	36 4f       	sbci	r19, 0xF6	; 246
    4fbc:	f9 01       	movw	r30, r18
    4fbe:	80 83       	st	Z, r24
    4fc0:	af 5f       	subi	r26, 0xFF	; 255
    4fc2:	8a 2f       	mov	r24, r26
    4fc4:	90 e0       	ldi	r25, 0x00	; 0
    4fc6:	86 17       	cp	r24, r22
    4fc8:	97 07       	cpc	r25, r23
    4fca:	38 f3       	brcs	.-50     	; 0x4f9a <SNMP_responsePduGetBulk+0x200>
    4fcc:	82 ea       	ldi	r24, 0xA2	; 162
    4fce:	d7 01       	movw	r26, r14
    4fd0:	8c 93       	st	X, r24
    4fd2:	80 91 bb 09 	lds	r24, 0x09BB
    4fd6:	90 91 bc 09 	lds	r25, 0x09BC
    4fda:	9c 01       	movw	r18, r24
    4fdc:	2f 5f       	subi	r18, 0xFF	; 255
    4fde:	3f 4f       	sbci	r19, 0xFF	; 255
    4fe0:	30 93 bc 09 	sts	0x09BC, r19
    4fe4:	20 93 bb 09 	sts	0x09BB, r18
    4fe8:	4c 91       	ld	r20, X
    4fea:	fc 01       	movw	r30, r24
    4fec:	ee 5d       	subi	r30, 0xDE	; 222
    4fee:	f6 4f       	sbci	r31, 0xF6	; 246
    4ff0:	40 83       	st	Z, r20
    4ff2:	d9 01       	movw	r26, r18
    4ff4:	ae 5d       	subi	r26, 0xDE	; 222
    4ff6:	b6 4f       	sbci	r27, 0xF6	; 246
    4ff8:	44 e1       	ldi	r20, 0x14	; 20
    4ffa:	4c 0d       	add	r20, r12
    4ffc:	4c 93       	st	X, r20
    4ffe:	72 e0       	ldi	r23, 0x02	; 2
    5000:	72 83       	std	Z+2, r23	; 0x02
    5002:	64 e0       	ldi	r22, 0x04	; 4
    5004:	63 83       	std	Z+3, r22	; 0x03
    5006:	d7 01       	movw	r26, r14
    5008:	15 96       	adiw	r26, 0x05	; 5
    500a:	2c 91       	ld	r18, X
    500c:	15 97       	sbiw	r26, 0x05	; 5
    500e:	16 96       	adiw	r26, 0x06	; 6
    5010:	3c 91       	ld	r19, X
    5012:	16 97       	sbiw	r26, 0x06	; 6
    5014:	17 96       	adiw	r26, 0x07	; 7
    5016:	4c 91       	ld	r20, X
    5018:	17 97       	sbiw	r26, 0x07	; 7
    501a:	18 96       	adiw	r26, 0x08	; 8
    501c:	5c 91       	ld	r21, X
    501e:	18 97       	sbiw	r26, 0x08	; 8
    5020:	54 83       	std	Z+4, r21	; 0x04
    5022:	45 83       	std	Z+5, r20	; 0x05
    5024:	36 83       	std	Z+6, r19	; 0x06
    5026:	27 83       	std	Z+7, r18	; 0x07
    5028:	70 87       	std	Z+8, r23	; 0x08
    502a:	61 87       	std	Z+9, r22	; 0x09
    502c:	19 96       	adiw	r26, 0x09	; 9
    502e:	2c 91       	ld	r18, X
    5030:	19 97       	sbiw	r26, 0x09	; 9
    5032:	12 86       	std	Z+10, r1	; 0x0a
    5034:	13 86       	std	Z+11, r1	; 0x0b
    5036:	14 86       	std	Z+12, r1	; 0x0c
    5038:	25 87       	std	Z+13, r18	; 0x0d
    503a:	76 87       	std	Z+14, r23	; 0x0e
    503c:	67 87       	std	Z+15, r22	; 0x0f
    503e:	1a 96       	adiw	r26, 0x0a	; 10
    5040:	2c 91       	ld	r18, X
    5042:	1a 97       	sbiw	r26, 0x0a	; 10
    5044:	1b 96       	adiw	r26, 0x0b	; 11
    5046:	3c 91       	ld	r19, X
    5048:	1b 97       	sbiw	r26, 0x0b	; 11
    504a:	1c 96       	adiw	r26, 0x0c	; 12
    504c:	4c 91       	ld	r20, X
    504e:	1c 97       	sbiw	r26, 0x0c	; 12
    5050:	1d 96       	adiw	r26, 0x0d	; 13
    5052:	5c 91       	ld	r21, X
    5054:	50 8b       	std	Z+16, r21	; 0x10
    5056:	41 8b       	std	Z+17, r20	; 0x11
    5058:	32 8b       	std	Z+18, r19	; 0x12
    505a:	23 8b       	std	Z+19, r18	; 0x13
    505c:	20 e3       	ldi	r18, 0x30	; 48
    505e:	24 8b       	std	Z+20, r18	; 0x14
    5060:	46 96       	adiw	r24, 0x16	; 22
    5062:	90 93 bc 09 	sts	0x09BC, r25
    5066:	80 93 bb 09 	sts	0x09BB, r24
    506a:	c5 8a       	std	Z+21, r12	; 0x15
    506c:	80 91 cc 09 	lds	r24, 0x09CC
    5070:	88 23       	and	r24, r24
    5072:	09 f4       	brne	.+2      	; 0x5076 <SNMP_responsePduGetBulk+0x2dc>
    5074:	a5 c0       	rjmp	.+330    	; 0x51c0 <SNMP_responsePduGetBulk+0x426>
    5076:	10 e0       	ldi	r17, 0x00	; 0
    5078:	0f 2e       	mov	r0, r31
    507a:	f0 e3       	ldi	r31, 0x30	; 48
    507c:	ff 2e       	mov	r15, r31
    507e:	f0 2d       	mov	r31, r0
    5080:	06 e0       	ldi	r16, 0x06	; 6
    5082:	81 2f       	mov	r24, r17
    5084:	90 e0       	ldi	r25, 0x00	; 0
    5086:	88 0f       	add	r24, r24
    5088:	99 1f       	adc	r25, r25
    508a:	fc 01       	movw	r30, r24
    508c:	ee 5e       	subi	r30, 0xEE	; 238
    508e:	f5 4f       	sbci	r31, 0xF5	; 245
    5090:	6f 01       	movw	r12, r30
    5092:	80 81       	ld	r24, Z
    5094:	91 81       	ldd	r25, Z+1	; 0x01
    5096:	fc 01       	movw	r30, r24
    5098:	ee 0f       	add	r30, r30
    509a:	ff 1f       	adc	r31, r31
    509c:	ee 0f       	add	r30, r30
    509e:	ff 1f       	adc	r31, r31
    50a0:	ee 0f       	add	r30, r30
    50a2:	ff 1f       	adc	r31, r31
    50a4:	e8 1b       	sub	r30, r24
    50a6:	f9 0b       	sbc	r31, r25
    50a8:	ec 5f       	subi	r30, 0xFC	; 252
    50aa:	fd 4f       	sbci	r31, 0xFD	; 253
    50ac:	22 81       	ldd	r18, Z+2	; 0x02
    50ae:	ae 01       	movw	r20, r28
    50b0:	4f 5a       	subi	r20, 0xAF	; 175
    50b2:	5f 4f       	sbci	r21, 0xFF	; 255
    50b4:	65 81       	ldd	r22, Z+5	; 0x05
    50b6:	83 81       	ldd	r24, Z+3	; 0x03
    50b8:	94 81       	ldd	r25, Z+4	; 0x04
    50ba:	84 d9       	rcall	.-3320   	; 0x43c4 <Encode>
    50bc:	d6 01       	movw	r26, r12
    50be:	8d 91       	ld	r24, X+
    50c0:	9c 91       	ld	r25, X
    50c2:	fc 01       	movw	r30, r24
    50c4:	ee 0f       	add	r30, r30
    50c6:	ff 1f       	adc	r31, r31
    50c8:	ee 0f       	add	r30, r30
    50ca:	ff 1f       	adc	r31, r31
    50cc:	ee 0f       	add	r30, r30
    50ce:	ff 1f       	adc	r31, r31
    50d0:	e8 1b       	sub	r30, r24
    50d2:	f9 0b       	sbc	r31, r25
    50d4:	ec 5f       	subi	r30, 0xFC	; 252
    50d6:	fd 4f       	sbci	r31, 0xFD	; 253
    50d8:	60 81       	ld	r22, Z
    50da:	71 81       	ldd	r23, Z+1	; 0x01
    50dc:	ce 01       	movw	r24, r28
    50de:	0f 96       	adiw	r24, 0x0f	; 15
    50e0:	0e 94 aa 1d 	call	0x3b54	; 0x3b54 <SNMP_OID_fromString>
    50e4:	80 91 bb 09 	lds	r24, 0x09BB
    50e8:	90 91 bc 09 	lds	r25, 0x09BC
    50ec:	fc 01       	movw	r30, r24
    50ee:	ee 5d       	subi	r30, 0xDE	; 222
    50f0:	f6 4f       	sbci	r31, 0xF6	; 246
    50f2:	f0 82       	st	Z, r15
    50f4:	61 96       	adiw	r28, 0x11	; 17
    50f6:	4e ad       	ldd	r20, Y+62	; 0x3e
    50f8:	5f ad       	ldd	r21, Y+63	; 0x3f
    50fa:	61 97       	sbiw	r28, 0x11	; 17
    50fc:	cf 56       	subi	r28, 0x6F	; 111
    50fe:	df 4f       	sbci	r29, 0xFF	; 255
    5100:	28 81       	ld	r18, Y
    5102:	39 81       	ldd	r19, Y+1	; 0x01
    5104:	c1 59       	subi	r28, 0x91	; 145
    5106:	d0 40       	sbci	r29, 0x00	; 0
    5108:	62 2f       	mov	r22, r18
    510a:	64 0f       	add	r22, r20
    510c:	6c 5f       	subi	r22, 0xFC	; 252
    510e:	61 83       	std	Z+1, r22	; 0x01
    5110:	02 83       	std	Z+2, r16	; 0x02
    5112:	04 96       	adiw	r24, 0x04	; 4
    5114:	90 93 bc 09 	sts	0x09BC, r25
    5118:	80 93 bb 09 	sts	0x09BB, r24
    511c:	43 83       	std	Z+3, r20	; 0x03
    511e:	41 15       	cp	r20, r1
    5120:	51 05       	cpc	r21, r1
    5122:	c1 f0       	breq	.+48     	; 0x5154 <SNMP_responsePduGetBulk+0x3ba>
    5124:	bc 01       	movw	r22, r24
    5126:	fe 01       	movw	r30, r28
    5128:	3f 96       	adiw	r30, 0x0f	; 15
    512a:	dc 01       	movw	r26, r24
    512c:	ae 5d       	subi	r26, 0xDE	; 222
    512e:	b6 4f       	sbci	r27, 0xF6	; 246
    5130:	81 e0       	ldi	r24, 0x01	; 1
    5132:	90 e0       	ldi	r25, 0x00	; 0
    5134:	8c 0f       	add	r24, r28
    5136:	9d 1f       	adc	r25, r29
    5138:	84 0f       	add	r24, r20
    513a:	95 1f       	adc	r25, r21
    513c:	0e 96       	adiw	r24, 0x0e	; 14
    513e:	e1 90       	ld	r14, Z+
    5140:	ed 92       	st	X+, r14
    5142:	e8 17       	cp	r30, r24
    5144:	f9 07       	cpc	r31, r25
    5146:	d9 f7       	brne	.-10     	; 0x513e <SNMP_responsePduGetBulk+0x3a4>
    5148:	46 0f       	add	r20, r22
    514a:	57 1f       	adc	r21, r23
    514c:	50 93 bc 09 	sts	0x09BC, r21
    5150:	40 93 bb 09 	sts	0x09BB, r20
    5154:	80 91 bb 09 	lds	r24, 0x09BB
    5158:	90 91 bc 09 	lds	r25, 0x09BC
    515c:	fc 01       	movw	r30, r24
    515e:	ee 5d       	subi	r30, 0xDE	; 222
    5160:	f6 4f       	sbci	r31, 0xF6	; 246
    5162:	cd 56       	subi	r28, 0x6D	; 109
    5164:	df 4f       	sbci	r29, 0xFF	; 255
    5166:	48 81       	ld	r20, Y
    5168:	c3 59       	subi	r28, 0x93	; 147
    516a:	d0 40       	sbci	r29, 0x00	; 0
    516c:	40 83       	st	Z, r20
    516e:	02 96       	adiw	r24, 0x02	; 2
    5170:	90 93 bc 09 	sts	0x09BC, r25
    5174:	80 93 bb 09 	sts	0x09BB, r24
    5178:	21 83       	std	Z+1, r18	; 0x01
    517a:	21 15       	cp	r18, r1
    517c:	31 05       	cpc	r19, r1
    517e:	d1 f0       	breq	.+52     	; 0x51b4 <SNMP_responsePduGetBulk+0x41a>
    5180:	ac 01       	movw	r20, r24
    5182:	fe 01       	movw	r30, r28
    5184:	ef 5a       	subi	r30, 0xAF	; 175
    5186:	ff 4f       	sbci	r31, 0xFF	; 255
    5188:	dc 01       	movw	r26, r24
    518a:	ae 5d       	subi	r26, 0xDE	; 222
    518c:	b6 4f       	sbci	r27, 0xF6	; 246
    518e:	81 e0       	ldi	r24, 0x01	; 1
    5190:	90 e0       	ldi	r25, 0x00	; 0
    5192:	8c 0f       	add	r24, r28
    5194:	9d 1f       	adc	r25, r29
    5196:	82 0f       	add	r24, r18
    5198:	93 1f       	adc	r25, r19
    519a:	80 5b       	subi	r24, 0xB0	; 176
    519c:	9f 4f       	sbci	r25, 0xFF	; 255
    519e:	61 91       	ld	r22, Z+
    51a0:	6d 93       	st	X+, r22
    51a2:	e8 17       	cp	r30, r24
    51a4:	f9 07       	cpc	r31, r25
    51a6:	d9 f7       	brne	.-10     	; 0x519e <SNMP_responsePduGetBulk+0x404>
    51a8:	24 0f       	add	r18, r20
    51aa:	35 1f       	adc	r19, r21
    51ac:	30 93 bc 09 	sts	0x09BC, r19
    51b0:	20 93 bb 09 	sts	0x09BB, r18
    51b4:	1f 5f       	subi	r17, 0xFF	; 255
    51b6:	80 91 cc 09 	lds	r24, 0x09CC
    51ba:	18 17       	cp	r17, r24
    51bc:	08 f4       	brcc	.+2      	; 0x51c0 <SNMP_responsePduGetBulk+0x426>
    51be:	61 cf       	rjmp	.-318    	; 0x5082 <SNMP_responsePduGetBulk+0x2e8>
    51c0:	60 91 66 12 	lds	r22, 0x1266
    51c4:	70 91 67 12 	lds	r23, 0x1267
    51c8:	8c e6       	ldi	r24, 0x6C	; 108
    51ca:	92 e1       	ldi	r25, 0x12	; 18
    51cc:	0e 94 d5 18 	call	0x31aa	; 0x31aa <_UDPtoSerialSocket_beginPacket>
    51d0:	60 91 d4 09 	lds	r22, 0x09D4
    51d4:	70 91 d5 09 	lds	r23, 0x09D5
    51d8:	82 e2       	ldi	r24, 0x22	; 34
    51da:	99 e0       	ldi	r25, 0x09	; 9
    51dc:	0e 94 de 18 	call	0x31bc	; 0x31bc <_UDPtoSerialSocket_write>
    51e0:	80 e0       	ldi	r24, 0x00	; 0
    51e2:	cc 56       	subi	r28, 0x6C	; 108
    51e4:	df 4f       	sbci	r29, 0xFF	; 255
    51e6:	0f b6       	in	r0, 0x3f	; 63
    51e8:	f8 94       	cli
    51ea:	de bf       	out	0x3e, r29	; 62
    51ec:	0f be       	out	0x3f, r0	; 63
    51ee:	cd bf       	out	0x3d, r28	; 61
    51f0:	df 91       	pop	r29
    51f2:	cf 91       	pop	r28
    51f4:	1f 91       	pop	r17
    51f6:	0f 91       	pop	r16
    51f8:	ff 90       	pop	r15
    51fa:	ef 90       	pop	r14
    51fc:	df 90       	pop	r13
    51fe:	cf 90       	pop	r12
    5200:	bf 90       	pop	r11
    5202:	08 95       	ret

00005204 <SNMP_VARS_Processing>:
    5204:	9f 92       	push	r9
    5206:	af 92       	push	r10
    5208:	bf 92       	push	r11
    520a:	cf 92       	push	r12
    520c:	df 92       	push	r13
    520e:	ef 92       	push	r14
    5210:	ff 92       	push	r15
    5212:	0f 93       	push	r16
    5214:	1f 93       	push	r17
    5216:	cf 93       	push	r28
    5218:	df 93       	push	r29
    521a:	7c 01       	movw	r14, r24
    521c:	5b 01       	movw	r10, r22
    521e:	04 e0       	ldi	r16, 0x04	; 4
    5220:	12 e0       	ldi	r17, 0x02	; 2
    5222:	c0 e0       	ldi	r28, 0x00	; 0
    5224:	d0 e0       	ldi	r29, 0x00	; 0
    5226:	6e 01       	movw	r12, r28
    5228:	f8 01       	movw	r30, r16
    522a:	60 81       	ld	r22, Z
    522c:	71 81       	ldd	r23, Z+1	; 0x01
    522e:	c7 01       	movw	r24, r14
    5230:	0e 94 34 31 	call	0x6268	; 0x6268 <strcmp>
    5234:	89 2b       	or	r24, r25
    5236:	09 f0       	breq	.+2      	; 0x523a <SNMP_VARS_Processing+0x36>
    5238:	87 c0       	rjmp	.+270    	; 0x5348 <SNMP_VARS_Processing+0x144>
    523a:	f5 01       	movw	r30, r10
    523c:	80 81       	ld	r24, Z
    523e:	83 3a       	cpi	r24, 0xA3	; 163
    5240:	91 f5       	brne	.+100    	; 0x52a6 <SNMP_VARS_Processing+0xa2>
    5242:	f6 01       	movw	r30, r12
    5244:	ee 0f       	add	r30, r30
    5246:	ff 1f       	adc	r31, r31
    5248:	ee 0f       	add	r30, r30
    524a:	ff 1f       	adc	r31, r31
    524c:	ee 0f       	add	r30, r30
    524e:	ff 1f       	adc	r31, r31
    5250:	ec 19       	sub	r30, r12
    5252:	fd 09       	sbc	r31, r13
    5254:	ec 5f       	subi	r30, 0xFC	; 252
    5256:	fd 4f       	sbci	r31, 0xFD	; 253
    5258:	86 81       	ldd	r24, Z+6	; 0x06
    525a:	81 11       	cpse	r24, r1
    525c:	07 c0       	rjmp	.+14     	; 0x526c <SNMP_VARS_Processing+0x68>
    525e:	82 ea       	ldi	r24, 0xA2	; 162
    5260:	f5 01       	movw	r30, r10
    5262:	80 83       	st	Z, r24
    5264:	84 e0       	ldi	r24, 0x04	; 4
    5266:	81 87       	std	Z+9, r24	; 0x09
    5268:	81 e0       	ldi	r24, 0x01	; 1
    526a:	79 c0       	rjmp	.+242    	; 0x535e <SNMP_VARS_Processing+0x15a>
    526c:	f6 01       	movw	r30, r12
    526e:	ee 0f       	add	r30, r30
    5270:	ff 1f       	adc	r31, r31
    5272:	ee 0f       	add	r30, r30
    5274:	ff 1f       	adc	r31, r31
    5276:	ee 0f       	add	r30, r30
    5278:	ff 1f       	adc	r31, r31
    527a:	ec 19       	sub	r30, r12
    527c:	fd 09       	sbc	r31, r13
    527e:	ec 5f       	subi	r30, 0xFC	; 252
    5280:	fd 4f       	sbci	r31, 0xFD	; 253
    5282:	43 81       	ldd	r20, Z+3	; 0x03
    5284:	54 81       	ldd	r21, Z+4	; 0x04
    5286:	25 81       	ldd	r18, Z+5	; 0x05
    5288:	62 81       	ldd	r22, Z+2	; 0x02
    528a:	c5 01       	movw	r24, r10
    528c:	80 5b       	subi	r24, 0xB0	; 176
    528e:	9f 4f       	sbci	r25, 0xFF	; 255
    5290:	c9 d8       	rcall	.-3694   	; 0x4424 <Decode>
    5292:	80 93 0c 13 	sts	0x130C, r24
    5296:	82 ea       	ldi	r24, 0xA2	; 162
    5298:	f5 01       	movw	r30, r10
    529a:	80 83       	st	Z, r24
    529c:	80 91 0c 13 	lds	r24, 0x130C
    52a0:	81 87       	std	Z+9, r24	; 0x09
    52a2:	81 e0       	ldi	r24, 0x01	; 1
    52a4:	5c c0       	rjmp	.+184    	; 0x535e <SNMP_VARS_Processing+0x15a>
    52a6:	80 3a       	cpi	r24, 0xA0	; 160
    52a8:	e9 f4       	brne	.+58     	; 0x52e4 <SNMP_VARS_Processing+0xe0>
    52aa:	f6 01       	movw	r30, r12
    52ac:	ee 0f       	add	r30, r30
    52ae:	ff 1f       	adc	r31, r31
    52b0:	ee 0f       	add	r30, r30
    52b2:	ff 1f       	adc	r31, r31
    52b4:	ee 0f       	add	r30, r30
    52b6:	ff 1f       	adc	r31, r31
    52b8:	ec 19       	sub	r30, r12
    52ba:	fd 09       	sbc	r31, r13
    52bc:	ec 5f       	subi	r30, 0xFC	; 252
    52be:	fd 4f       	sbci	r31, 0xFD	; 253
    52c0:	a5 01       	movw	r20, r10
    52c2:	40 5b       	subi	r20, 0xB0	; 176
    52c4:	5f 4f       	sbci	r21, 0xFF	; 255
    52c6:	22 81       	ldd	r18, Z+2	; 0x02
    52c8:	65 81       	ldd	r22, Z+5	; 0x05
    52ca:	83 81       	ldd	r24, Z+3	; 0x03
    52cc:	94 81       	ldd	r25, Z+4	; 0x04
    52ce:	7a d8       	rcall	.-3852   	; 0x43c4 <Encode>
    52d0:	80 93 0c 13 	sts	0x130C, r24
    52d4:	82 ea       	ldi	r24, 0xA2	; 162
    52d6:	f5 01       	movw	r30, r10
    52d8:	80 83       	st	Z, r24
    52da:	80 91 0c 13 	lds	r24, 0x130C
    52de:	81 87       	std	Z+9, r24	; 0x09
    52e0:	81 e0       	ldi	r24, 0x01	; 1
    52e2:	3d c0       	rjmp	.+122    	; 0x535e <SNMP_VARS_Processing+0x15a>
    52e4:	81 3a       	cpi	r24, 0xA1	; 161
    52e6:	c1 f5       	brne	.+112    	; 0x5358 <SNMP_VARS_Processing+0x154>
    52e8:	f1 e2       	ldi	r31, 0x21	; 33
    52ea:	fc 17       	cp	r31, r28
    52ec:	30 f1       	brcs	.+76     	; 0x533a <SNMP_VARS_Processing+0x136>
    52ee:	8f ef       	ldi	r24, 0xFF	; 255
    52f0:	c8 1a       	sub	r12, r24
    52f2:	d8 0a       	sbc	r13, r24
    52f4:	e6 01       	movw	r28, r12
    52f6:	cc 0f       	add	r28, r28
    52f8:	dd 1f       	adc	r29, r29
    52fa:	cc 0f       	add	r28, r28
    52fc:	dd 1f       	adc	r29, r29
    52fe:	cc 0f       	add	r28, r28
    5300:	dd 1f       	adc	r29, r29
    5302:	cc 19       	sub	r28, r12
    5304:	dd 09       	sbc	r29, r13
    5306:	cc 5f       	subi	r28, 0xFC	; 252
    5308:	dd 4f       	sbci	r29, 0xFD	; 253
    530a:	68 81       	ld	r22, Y
    530c:	79 81       	ldd	r23, Y+1	; 0x01
    530e:	c5 01       	movw	r24, r10
    5310:	0e 96       	adiw	r24, 0x0e	; 14
    5312:	0e 94 aa 1d 	call	0x3b54	; 0x3b54 <SNMP_OID_fromString>
    5316:	a5 01       	movw	r20, r10
    5318:	40 5b       	subi	r20, 0xB0	; 176
    531a:	5f 4f       	sbci	r21, 0xFF	; 255
    531c:	2a 81       	ldd	r18, Y+2	; 0x02
    531e:	6d 81       	ldd	r22, Y+5	; 0x05
    5320:	8b 81       	ldd	r24, Y+3	; 0x03
    5322:	9c 81       	ldd	r25, Y+4	; 0x04
    5324:	4f d8       	rcall	.-3938   	; 0x43c4 <Encode>
    5326:	80 93 0c 13 	sts	0x130C, r24
    532a:	82 ea       	ldi	r24, 0xA2	; 162
    532c:	f5 01       	movw	r30, r10
    532e:	80 83       	st	Z, r24
    5330:	80 91 0c 13 	lds	r24, 0x130C
    5334:	81 87       	std	Z+9, r24	; 0x09
    5336:	81 e0       	ldi	r24, 0x01	; 1
    5338:	12 c0       	rjmp	.+36     	; 0x535e <SNMP_VARS_Processing+0x15a>
    533a:	82 ea       	ldi	r24, 0xA2	; 162
    533c:	f5 01       	movw	r30, r10
    533e:	80 83       	st	Z, r24
    5340:	82 e0       	ldi	r24, 0x02	; 2
    5342:	81 87       	std	Z+9, r24	; 0x09
    5344:	81 e0       	ldi	r24, 0x01	; 1
    5346:	0b c0       	rjmp	.+22     	; 0x535e <SNMP_VARS_Processing+0x15a>
    5348:	21 96       	adiw	r28, 0x01	; 1
    534a:	09 5f       	subi	r16, 0xF9	; 249
    534c:	1f 4f       	sbci	r17, 0xFF	; 255
    534e:	c3 32       	cpi	r28, 0x23	; 35
    5350:	d1 05       	cpc	r29, r1
    5352:	09 f0       	breq	.+2      	; 0x5356 <SNMP_VARS_Processing+0x152>
    5354:	68 cf       	rjmp	.-304    	; 0x5226 <SNMP_VARS_Processing+0x22>
    5356:	02 c0       	rjmp	.+4      	; 0x535c <SNMP_VARS_Processing+0x158>
    5358:	81 e0       	ldi	r24, 0x01	; 1
    535a:	01 c0       	rjmp	.+2      	; 0x535e <SNMP_VARS_Processing+0x15a>
    535c:	80 e0       	ldi	r24, 0x00	; 0
    535e:	df 91       	pop	r29
    5360:	cf 91       	pop	r28
    5362:	1f 91       	pop	r17
    5364:	0f 91       	pop	r16
    5366:	ff 90       	pop	r15
    5368:	ef 90       	pop	r14
    536a:	df 90       	pop	r13
    536c:	cf 90       	pop	r12
    536e:	bf 90       	pop	r11
    5370:	af 90       	pop	r10
    5372:	9f 90       	pop	r9
    5374:	08 95       	ret

00005376 <Webserver_recv_size>:
    5376:	cf 93       	push	r28
    5378:	86 e2       	ldi	r24, 0x26	; 38
    537a:	97 e0       	ldi	r25, 0x07	; 7
    537c:	0e 94 2f 03 	call	0x65e	; 0x65e <W5100read>
    5380:	c8 2f       	mov	r28, r24
    5382:	87 e2       	ldi	r24, 0x27	; 39
    5384:	97 e0       	ldi	r25, 0x07	; 7
    5386:	0e 94 2f 03 	call	0x65e	; 0x65e <W5100read>
    538a:	2c 2f       	mov	r18, r28
    538c:	30 e0       	ldi	r19, 0x00	; 0
    538e:	32 2f       	mov	r19, r18
    5390:	22 27       	eor	r18, r18
    5392:	a9 01       	movw	r20, r18
    5394:	48 0f       	add	r20, r24
    5396:	51 1d       	adc	r21, r1
    5398:	ca 01       	movw	r24, r20
    539a:	cf 91       	pop	r28
    539c:	08 95       	ret

0000539e <WebserverSocket_close>:
    539e:	60 e1       	ldi	r22, 0x10	; 16
    53a0:	81 e0       	ldi	r24, 0x01	; 1
    53a2:	97 e0       	ldi	r25, 0x07	; 7
    53a4:	0e 94 29 04 	call	0x852	; 0x852 <W5100write>
    53a8:	81 e0       	ldi	r24, 0x01	; 1
    53aa:	97 e0       	ldi	r25, 0x07	; 7
    53ac:	0e 94 2f 03 	call	0x65e	; 0x65e <W5100read>
    53b0:	81 11       	cpse	r24, r1
    53b2:	fa cf       	rjmp	.-12     	; 0x53a8 <WebserverSocket_close+0xa>
    53b4:	08 95       	ret

000053b6 <WebserverSocketOpen>:
    53b6:	1f 93       	push	r17
    53b8:	cf 93       	push	r28
    53ba:	df 93       	push	r29
    53bc:	16 2f       	mov	r17, r22
    53be:	c4 2f       	mov	r28, r20
    53c0:	d5 2f       	mov	r29, r21
    53c2:	83 e0       	ldi	r24, 0x03	; 3
    53c4:	97 e0       	ldi	r25, 0x07	; 7
    53c6:	0e 94 2f 03 	call	0x65e	; 0x65e <W5100read>
    53ca:	81 11       	cpse	r24, r1
    53cc:	01 c0       	rjmp	.+2      	; 0x53d0 <WebserverSocketOpen+0x1a>
    53ce:	e7 df       	rcall	.-50     	; 0x539e <WebserverSocket_close>
    53d0:	61 2f       	mov	r22, r17
    53d2:	80 e0       	ldi	r24, 0x00	; 0
    53d4:	97 e0       	ldi	r25, 0x07	; 7
    53d6:	0e 94 29 04 	call	0x852	; 0x852 <W5100write>
    53da:	6d 2f       	mov	r22, r29
    53dc:	84 e0       	ldi	r24, 0x04	; 4
    53de:	97 e0       	ldi	r25, 0x07	; 7
    53e0:	0e 94 29 04 	call	0x852	; 0x852 <W5100write>
    53e4:	6c 2f       	mov	r22, r28
    53e6:	85 e0       	ldi	r24, 0x05	; 5
    53e8:	97 e0       	ldi	r25, 0x07	; 7
    53ea:	0e 94 29 04 	call	0x852	; 0x852 <W5100write>
    53ee:	61 e0       	ldi	r22, 0x01	; 1
    53f0:	81 e0       	ldi	r24, 0x01	; 1
    53f2:	97 e0       	ldi	r25, 0x07	; 7
    53f4:	0e 94 29 04 	call	0x852	; 0x852 <W5100write>
    53f8:	81 e0       	ldi	r24, 0x01	; 1
    53fa:	97 e0       	ldi	r25, 0x07	; 7
    53fc:	0e 94 2f 03 	call	0x65e	; 0x65e <W5100read>
    5400:	81 11       	cpse	r24, r1
    5402:	fa cf       	rjmp	.-12     	; 0x53f8 <WebserverSocketOpen+0x42>
    5404:	83 e0       	ldi	r24, 0x03	; 3
    5406:	97 e0       	ldi	r25, 0x07	; 7
    5408:	0e 94 2f 03 	call	0x65e	; 0x65e <W5100read>
    540c:	83 31       	cpi	r24, 0x13	; 19
    540e:	19 f0       	breq	.+6      	; 0x5416 <WebserverSocketOpen+0x60>
    5410:	c6 df       	rcall	.-116    	; 0x539e <WebserverSocket_close>
    5412:	80 e0       	ldi	r24, 0x00	; 0
    5414:	01 c0       	rjmp	.+2      	; 0x5418 <WebserverSocketOpen+0x62>
    5416:	81 e0       	ldi	r24, 0x01	; 1
    5418:	df 91       	pop	r29
    541a:	cf 91       	pop	r28
    541c:	1f 91       	pop	r17
    541e:	08 95       	ret

00005420 <Webserver_listen>:
    5420:	83 e0       	ldi	r24, 0x03	; 3
    5422:	97 e0       	ldi	r25, 0x07	; 7
    5424:	0e 94 2f 03 	call	0x65e	; 0x65e <W5100read>
    5428:	83 31       	cpi	r24, 0x13	; 19
    542a:	a1 f4       	brne	.+40     	; 0x5454 <Webserver_listen+0x34>
    542c:	62 e0       	ldi	r22, 0x02	; 2
    542e:	81 e0       	ldi	r24, 0x01	; 1
    5430:	97 e0       	ldi	r25, 0x07	; 7
    5432:	0e 94 29 04 	call	0x852	; 0x852 <W5100write>
    5436:	81 e0       	ldi	r24, 0x01	; 1
    5438:	97 e0       	ldi	r25, 0x07	; 7
    543a:	0e 94 2f 03 	call	0x65e	; 0x65e <W5100read>
    543e:	81 11       	cpse	r24, r1
    5440:	fa cf       	rjmp	.-12     	; 0x5436 <Webserver_listen+0x16>
    5442:	83 e0       	ldi	r24, 0x03	; 3
    5444:	97 e0       	ldi	r25, 0x07	; 7
    5446:	0e 94 2f 03 	call	0x65e	; 0x65e <W5100read>
    544a:	84 31       	cpi	r24, 0x14	; 20
    544c:	29 f0       	breq	.+10     	; 0x5458 <Webserver_listen+0x38>
    544e:	a7 df       	rcall	.-178    	; 0x539e <WebserverSocket_close>
    5450:	80 e0       	ldi	r24, 0x00	; 0
    5452:	08 95       	ret
    5454:	80 e0       	ldi	r24, 0x00	; 0
    5456:	08 95       	ret
    5458:	81 e0       	ldi	r24, 0x01	; 1
    545a:	08 95       	ret

0000545c <Webserver_recv>:
    545c:	8f 92       	push	r8
    545e:	9f 92       	push	r9
    5460:	af 92       	push	r10
    5462:	bf 92       	push	r11
    5464:	cf 92       	push	r12
    5466:	df 92       	push	r13
    5468:	ef 92       	push	r14
    546a:	ff 92       	push	r15
    546c:	0f 93       	push	r16
    546e:	1f 93       	push	r17
    5470:	cf 93       	push	r28
    5472:	df 93       	push	r29
    5474:	6c 01       	movw	r12, r24
    5476:	7b 01       	movw	r14, r22
    5478:	61 15       	cp	r22, r1
    547a:	71 05       	cpc	r23, r1
    547c:	09 f4       	brne	.+2      	; 0x5480 <Webserver_recv+0x24>
    547e:	45 c0       	rjmp	.+138    	; 0x550a <Webserver_recv+0xae>
    5480:	61 30       	cpi	r22, 0x01	; 1
    5482:	84 e0       	ldi	r24, 0x04	; 4
    5484:	78 07       	cpc	r23, r24
    5486:	48 f5       	brcc	.+82     	; 0x54da <Webserver_recv+0x7e>
    5488:	2e c0       	rjmp	.+92     	; 0x54e6 <Webserver_recv+0x8a>
    548a:	21 97       	sbiw	r28, 0x01	; 1
    548c:	c4 01       	movw	r24, r8
    548e:	97 70       	andi	r25, 0x07	; 7
    5490:	98 58       	subi	r25, 0x88	; 136
    5492:	0e 94 2f 03 	call	0x65e	; 0x65e <W5100read>
    5496:	f8 01       	movw	r30, r16
    5498:	81 93       	st	Z+, r24
    549a:	8f 01       	movw	r16, r30
    549c:	ff ef       	ldi	r31, 0xFF	; 255
    549e:	8f 1a       	sub	r8, r31
    54a0:	9f 0a       	sbc	r9, r31
    54a2:	20 97       	sbiw	r28, 0x00	; 0
    54a4:	91 f7       	brne	.-28     	; 0x548a <Webserver_recv+0x2e>
    54a6:	ae 0c       	add	r10, r14
    54a8:	bf 1c       	adc	r11, r15
    54aa:	f6 01       	movw	r30, r12
    54ac:	ee 0d       	add	r30, r14
    54ae:	ff 1d       	adc	r31, r15
    54b0:	10 82       	st	Z, r1
    54b2:	6b 2d       	mov	r22, r11
    54b4:	88 e2       	ldi	r24, 0x28	; 40
    54b6:	97 e0       	ldi	r25, 0x07	; 7
    54b8:	0e 94 29 04 	call	0x852	; 0x852 <W5100write>
    54bc:	6a 2d       	mov	r22, r10
    54be:	89 e2       	ldi	r24, 0x29	; 41
    54c0:	97 e0       	ldi	r25, 0x07	; 7
    54c2:	0e 94 29 04 	call	0x852	; 0x852 <W5100write>
    54c6:	60 e4       	ldi	r22, 0x40	; 64
    54c8:	81 e0       	ldi	r24, 0x01	; 1
    54ca:	97 e0       	ldi	r25, 0x07	; 7
    54cc:	0e 94 29 04 	call	0x852	; 0x852 <W5100write>
    54d0:	8a e1       	ldi	r24, 0x1A	; 26
    54d2:	8a 95       	dec	r24
    54d4:	f1 f7       	brne	.-4      	; 0x54d2 <Webserver_recv+0x76>
    54d6:	00 c0       	rjmp	.+0      	; 0x54d8 <Webserver_recv+0x7c>
    54d8:	18 c0       	rjmp	.+48     	; 0x550a <Webserver_recv+0xae>
    54da:	0f 2e       	mov	r0, r31
    54dc:	fe ef       	ldi	r31, 0xFE	; 254
    54de:	ef 2e       	mov	r14, r31
    54e0:	f3 e0       	ldi	r31, 0x03	; 3
    54e2:	ff 2e       	mov	r15, r31
    54e4:	f0 2d       	mov	r31, r0
    54e6:	88 e2       	ldi	r24, 0x28	; 40
    54e8:	97 e0       	ldi	r25, 0x07	; 7
    54ea:	0e 94 2f 03 	call	0x65e	; 0x65e <W5100read>
    54ee:	a8 2e       	mov	r10, r24
    54f0:	89 e2       	ldi	r24, 0x29	; 41
    54f2:	97 e0       	ldi	r25, 0x07	; 7
    54f4:	0e 94 2f 03 	call	0x65e	; 0x65e <W5100read>
    54f8:	b1 2c       	mov	r11, r1
    54fa:	ba 2c       	mov	r11, r10
    54fc:	aa 24       	eor	r10, r10
    54fe:	a8 0e       	add	r10, r24
    5500:	b1 1c       	adc	r11, r1
    5502:	45 01       	movw	r8, r10
    5504:	e7 01       	movw	r28, r14
    5506:	86 01       	movw	r16, r12
    5508:	c0 cf       	rjmp	.-128    	; 0x548a <Webserver_recv+0x2e>
    550a:	81 e0       	ldi	r24, 0x01	; 1
    550c:	90 e0       	ldi	r25, 0x00	; 0
    550e:	df 91       	pop	r29
    5510:	cf 91       	pop	r28
    5512:	1f 91       	pop	r17
    5514:	0f 91       	pop	r16
    5516:	ff 90       	pop	r15
    5518:	ef 90       	pop	r14
    551a:	df 90       	pop	r13
    551c:	cf 90       	pop	r12
    551e:	bf 90       	pop	r11
    5520:	af 90       	pop	r10
    5522:	9f 90       	pop	r9
    5524:	8f 90       	pop	r8
    5526:	08 95       	ret

00005528 <WebserverSocket_disconnect>:
    5528:	68 e0       	ldi	r22, 0x08	; 8
    552a:	81 e0       	ldi	r24, 0x01	; 1
    552c:	97 e0       	ldi	r25, 0x07	; 7
    552e:	0e 94 29 04 	call	0x852	; 0x852 <W5100write>
    5532:	81 e0       	ldi	r24, 0x01	; 1
    5534:	97 e0       	ldi	r25, 0x07	; 7
    5536:	0e 94 2f 03 	call	0x65e	; 0x65e <W5100read>
    553a:	81 11       	cpse	r24, r1
    553c:	fa cf       	rjmp	.-12     	; 0x5532 <WebserverSocket_disconnect+0xa>
    553e:	08 95       	ret

00005540 <Webserver_send>:
    5540:	af 92       	push	r10
    5542:	bf 92       	push	r11
    5544:	cf 92       	push	r12
    5546:	df 92       	push	r13
    5548:	ef 92       	push	r14
    554a:	ff 92       	push	r15
    554c:	0f 93       	push	r16
    554e:	1f 93       	push	r17
    5550:	cf 93       	push	r28
    5552:	df 93       	push	r29
    5554:	6c 01       	movw	r12, r24
    5556:	7b 01       	movw	r14, r22
    5558:	61 15       	cp	r22, r1
    555a:	71 05       	cpc	r23, r1
    555c:	09 f4       	brne	.+2      	; 0x5560 <Webserver_send+0x20>
    555e:	56 c0       	rjmp	.+172    	; 0x560c <Webserver_send+0xcc>
    5560:	80 e2       	ldi	r24, 0x20	; 32
    5562:	97 e0       	ldi	r25, 0x07	; 7
    5564:	0e 94 2f 03 	call	0x65e	; 0x65e <W5100read>
    5568:	c8 2f       	mov	r28, r24
    556a:	d0 e0       	ldi	r29, 0x00	; 0
    556c:	dc 2f       	mov	r29, r28
    556e:	cc 27       	eor	r28, r28
    5570:	81 e2       	ldi	r24, 0x21	; 33
    5572:	97 e0       	ldi	r25, 0x07	; 7
    5574:	0e 94 2f 03 	call	0x65e	; 0x65e <W5100read>
    5578:	c8 0f       	add	r28, r24
    557a:	d1 1d       	adc	r29, r1
    557c:	ce 15       	cp	r28, r14
    557e:	df 05       	cpc	r29, r15
    5580:	08 f4       	brcc	.+2      	; 0x5584 <Webserver_send+0x44>
    5582:	5b c0       	rjmp	.+182    	; 0x563a <Webserver_send+0xfa>
    5584:	49 c0       	rjmp	.+146    	; 0x5618 <Webserver_send+0xd8>
    5586:	8f e9       	ldi	r24, 0x9F	; 159
    5588:	9f e0       	ldi	r25, 0x0F	; 15
    558a:	01 97       	sbiw	r24, 0x01	; 1
    558c:	f1 f7       	brne	.-4      	; 0x558a <Webserver_send+0x4a>
    558e:	00 c0       	rjmp	.+0      	; 0x5590 <Webserver_send+0x50>
    5590:	00 00       	nop
    5592:	80 e2       	ldi	r24, 0x20	; 32
    5594:	97 e0       	ldi	r25, 0x07	; 7
    5596:	0e 94 2f 03 	call	0x65e	; 0x65e <W5100read>
    559a:	08 2f       	mov	r16, r24
    559c:	10 e0       	ldi	r17, 0x00	; 0
    559e:	10 2f       	mov	r17, r16
    55a0:	00 27       	eor	r16, r16
    55a2:	81 e2       	ldi	r24, 0x21	; 33
    55a4:	97 e0       	ldi	r25, 0x07	; 7
    55a6:	0e 94 2f 03 	call	0x65e	; 0x65e <W5100read>
    55aa:	98 01       	movw	r18, r16
    55ac:	28 0f       	add	r18, r24
    55ae:	31 1d       	adc	r19, r1
    55b0:	21 97       	sbiw	r28, 0x01	; 1
    55b2:	20 97       	sbiw	r28, 0x00	; 0
    55b4:	11 f4       	brne	.+4      	; 0x55ba <Webserver_send+0x7a>
    55b6:	b8 df       	rcall	.-144    	; 0x5528 <WebserverSocket_disconnect>
    55b8:	58 c0       	rjmp	.+176    	; 0x566a <Webserver_send+0x12a>
    55ba:	2e 15       	cp	r18, r14
    55bc:	3f 05       	cpc	r19, r15
    55be:	18 f3       	brcs	.-58     	; 0x5586 <Webserver_send+0x46>
    55c0:	2b c0       	rjmp	.+86     	; 0x5618 <Webserver_send+0xd8>
    55c2:	21 97       	sbiw	r28, 0x01	; 1
    55c4:	c8 01       	movw	r24, r16
    55c6:	97 70       	andi	r25, 0x07	; 7
    55c8:	f6 01       	movw	r30, r12
    55ca:	61 91       	ld	r22, Z+
    55cc:	6f 01       	movw	r12, r30
    55ce:	98 5a       	subi	r25, 0xA8	; 168
    55d0:	0e 94 29 04 	call	0x852	; 0x852 <W5100write>
    55d4:	0f 5f       	subi	r16, 0xFF	; 255
    55d6:	1f 4f       	sbci	r17, 0xFF	; 255
    55d8:	20 97       	sbiw	r28, 0x00	; 0
    55da:	99 f7       	brne	.-26     	; 0x55c2 <Webserver_send+0x82>
    55dc:	ea 0c       	add	r14, r10
    55de:	fb 1c       	adc	r15, r11
    55e0:	6f 2d       	mov	r22, r15
    55e2:	84 e2       	ldi	r24, 0x24	; 36
    55e4:	97 e0       	ldi	r25, 0x07	; 7
    55e6:	0e 94 29 04 	call	0x852	; 0x852 <W5100write>
    55ea:	6e 2d       	mov	r22, r14
    55ec:	85 e2       	ldi	r24, 0x25	; 37
    55ee:	97 e0       	ldi	r25, 0x07	; 7
    55f0:	0e 94 29 04 	call	0x852	; 0x852 <W5100write>
    55f4:	60 e2       	ldi	r22, 0x20	; 32
    55f6:	81 e0       	ldi	r24, 0x01	; 1
    55f8:	97 e0       	ldi	r25, 0x07	; 7
    55fa:	0e 94 29 04 	call	0x852	; 0x852 <W5100write>
    55fe:	81 e0       	ldi	r24, 0x01	; 1
    5600:	97 e0       	ldi	r25, 0x07	; 7
    5602:	0e 94 2f 03 	call	0x65e	; 0x65e <W5100read>
    5606:	81 11       	cpse	r24, r1
    5608:	fa cf       	rjmp	.-12     	; 0x55fe <Webserver_send+0xbe>
    560a:	03 c0       	rjmp	.+6      	; 0x5612 <Webserver_send+0xd2>
    560c:	c0 e0       	ldi	r28, 0x00	; 0
    560e:	d0 e0       	ldi	r29, 0x00	; 0
    5610:	2c c0       	rjmp	.+88     	; 0x566a <Webserver_send+0x12a>
    5612:	c1 e0       	ldi	r28, 0x01	; 1
    5614:	d0 e0       	ldi	r29, 0x00	; 0
    5616:	29 c0       	rjmp	.+82     	; 0x566a <Webserver_send+0x12a>
    5618:	84 e2       	ldi	r24, 0x24	; 36
    561a:	97 e0       	ldi	r25, 0x07	; 7
    561c:	0e 94 2f 03 	call	0x65e	; 0x65e <W5100read>
    5620:	a8 2e       	mov	r10, r24
    5622:	85 e2       	ldi	r24, 0x25	; 37
    5624:	97 e0       	ldi	r25, 0x07	; 7
    5626:	0e 94 2f 03 	call	0x65e	; 0x65e <W5100read>
    562a:	b1 2c       	mov	r11, r1
    562c:	ba 2c       	mov	r11, r10
    562e:	aa 24       	eor	r10, r10
    5630:	a8 0e       	add	r10, r24
    5632:	b1 1c       	adc	r11, r1
    5634:	85 01       	movw	r16, r10
    5636:	e7 01       	movw	r28, r14
    5638:	c4 cf       	rjmp	.-120    	; 0x55c2 <Webserver_send+0x82>
    563a:	8f e9       	ldi	r24, 0x9F	; 159
    563c:	9f e0       	ldi	r25, 0x0F	; 15
    563e:	01 97       	sbiw	r24, 0x01	; 1
    5640:	f1 f7       	brne	.-4      	; 0x563e <Webserver_send+0xfe>
    5642:	00 c0       	rjmp	.+0      	; 0x5644 <Webserver_send+0x104>
    5644:	00 00       	nop
    5646:	80 e2       	ldi	r24, 0x20	; 32
    5648:	97 e0       	ldi	r25, 0x07	; 7
    564a:	0e 94 2f 03 	call	0x65e	; 0x65e <W5100read>
    564e:	c8 2f       	mov	r28, r24
    5650:	d0 e0       	ldi	r29, 0x00	; 0
    5652:	dc 2f       	mov	r29, r28
    5654:	cc 27       	eor	r28, r28
    5656:	81 e2       	ldi	r24, 0x21	; 33
    5658:	97 e0       	ldi	r25, 0x07	; 7
    565a:	0e 94 2f 03 	call	0x65e	; 0x65e <W5100read>
    565e:	9e 01       	movw	r18, r28
    5660:	28 0f       	add	r18, r24
    5662:	31 1d       	adc	r19, r1
    5664:	c9 ee       	ldi	r28, 0xE9	; 233
    5666:	d3 e0       	ldi	r29, 0x03	; 3
    5668:	a8 cf       	rjmp	.-176    	; 0x55ba <Webserver_send+0x7a>
    566a:	ce 01       	movw	r24, r28
    566c:	df 91       	pop	r29
    566e:	cf 91       	pop	r28
    5670:	1f 91       	pop	r17
    5672:	0f 91       	pop	r16
    5674:	ff 90       	pop	r15
    5676:	ef 90       	pop	r14
    5678:	df 90       	pop	r13
    567a:	cf 90       	pop	r12
    567c:	bf 90       	pop	r11
    567e:	af 90       	pop	r10
    5680:	08 95       	ret

00005682 <ModbusTCPRun>:
    5682:	ef 92       	push	r14
    5684:	ff 92       	push	r15
    5686:	0f 93       	push	r16
    5688:	1f 93       	push	r17
    568a:	cf 93       	push	r28
    568c:	df 93       	push	r29
    568e:	81 30       	cpi	r24, 0x01	; 1
    5690:	09 f0       	breq	.+2      	; 0x5694 <ModbusTCPRun+0x12>
    5692:	6a c0       	rjmp	.+212    	; 0x5768 <ModbusTCPRun+0xe6>
    5694:	e0 91 61 0e 	lds	r30, 0x0E61
    5698:	f0 e0       	ldi	r31, 0x00	; 0
    569a:	fe 2f       	mov	r31, r30
    569c:	ee 27       	eor	r30, r30
    569e:	80 91 62 0e 	lds	r24, 0x0E62
    56a2:	e8 0f       	add	r30, r24
    56a4:	f1 1d       	adc	r31, r1
    56a6:	80 91 63 0e 	lds	r24, 0x0E63
    56aa:	90 e0       	ldi	r25, 0x00	; 0
    56ac:	98 2f       	mov	r25, r24
    56ae:	88 27       	eor	r24, r24
    56b0:	20 91 64 0e 	lds	r18, 0x0E64
    56b4:	82 0f       	add	r24, r18
    56b6:	91 1d       	adc	r25, r1
    56b8:	8c 01       	movw	r16, r24
    56ba:	16 95       	lsr	r17
    56bc:	07 95       	ror	r16
    56be:	16 95       	lsr	r17
    56c0:	07 95       	ror	r16
    56c2:	16 95       	lsr	r17
    56c4:	07 95       	ror	r16
    56c6:	98 01       	movw	r18, r16
    56c8:	22 0f       	add	r18, r18
    56ca:	33 1f       	adc	r19, r19
    56cc:	22 0f       	add	r18, r18
    56ce:	33 1f       	adc	r19, r19
    56d0:	22 0f       	add	r18, r18
    56d2:	33 1f       	adc	r19, r19
    56d4:	28 17       	cp	r18, r24
    56d6:	39 07       	cpc	r19, r25
    56d8:	10 f4       	brcc	.+4      	; 0x56de <ModbusTCPRun+0x5c>
    56da:	0f 5f       	subi	r16, 0xFF	; 255
    56dc:	1f 4f       	sbci	r17, 0xFF	; 255
    56de:	83 e0       	ldi	r24, 0x03	; 3
    56e0:	80 0f       	add	r24, r16
    56e2:	80 93 5e 0e 	sts	0x0E5E, r24
    56e6:	00 93 61 0e 	sts	0x0E61, r16
    56ea:	01 15       	cp	r16, r1
    56ec:	11 05       	cpc	r17, r1
    56ee:	39 f5       	brne	.+78     	; 0x573e <ModbusTCPRun+0xbc>
    56f0:	33 c0       	rjmp	.+102    	; 0x5758 <ModbusTCPRun+0xd6>
    56f2:	41 91       	ld	r20, Z+
    56f4:	51 91       	ld	r21, Z+
    56f6:	45 2b       	or	r20, r21
    56f8:	71 f0       	breq	.+28     	; 0x5716 <ModbusTCPRun+0x94>
    56fa:	f8 80       	ld	r15, Y
    56fc:	ac 01       	movw	r20, r24
    56fe:	bd 01       	movw	r22, r26
    5700:	02 2e       	mov	r0, r18
    5702:	04 c0       	rjmp	.+8      	; 0x570c <ModbusTCPRun+0x8a>
    5704:	44 0f       	add	r20, r20
    5706:	55 1f       	adc	r21, r21
    5708:	66 1f       	adc	r22, r22
    570a:	77 1f       	adc	r23, r23
    570c:	0a 94       	dec	r0
    570e:	d2 f7       	brpl	.-12     	; 0x5704 <ModbusTCPRun+0x82>
    5710:	4f 29       	or	r20, r15
    5712:	48 83       	st	Y, r20
    5714:	0e c0       	rjmp	.+28     	; 0x5732 <ModbusTCPRun+0xb0>
    5716:	ac 01       	movw	r20, r24
    5718:	bd 01       	movw	r22, r26
    571a:	02 2e       	mov	r0, r18
    571c:	04 c0       	rjmp	.+8      	; 0x5726 <ModbusTCPRun+0xa4>
    571e:	44 0f       	add	r20, r20
    5720:	55 1f       	adc	r21, r21
    5722:	66 1f       	adc	r22, r22
    5724:	77 1f       	adc	r23, r23
    5726:	0a 94       	dec	r0
    5728:	d2 f7       	brpl	.-12     	; 0x571e <ModbusTCPRun+0x9c>
    572a:	40 95       	com	r20
    572c:	58 81       	ld	r21, Y
    572e:	45 23       	and	r20, r21
    5730:	48 83       	st	Y, r20
    5732:	2f 5f       	subi	r18, 0xFF	; 255
    5734:	3f 4f       	sbci	r19, 0xFF	; 255
    5736:	28 30       	cpi	r18, 0x08	; 8
    5738:	31 05       	cpc	r19, r1
    573a:	d9 f6       	brne	.-74     	; 0x56f2 <ModbusTCPRun+0x70>
    573c:	0d c0       	rjmp	.+26     	; 0x5758 <ModbusTCPRun+0xd6>
    573e:	ee 0f       	add	r30, r30
    5740:	ff 1f       	adc	r31, r31
    5742:	e6 5f       	subi	r30, 0xF6	; 246
    5744:	f6 4f       	sbci	r31, 0xF6	; 246
    5746:	20 e0       	ldi	r18, 0x00	; 0
    5748:	30 e0       	ldi	r19, 0x00	; 0
    574a:	c2 e6       	ldi	r28, 0x62	; 98
    574c:	de e0       	ldi	r29, 0x0E	; 14
    574e:	81 e0       	ldi	r24, 0x01	; 1
    5750:	90 e0       	ldi	r25, 0x00	; 0
    5752:	a0 e0       	ldi	r26, 0x00	; 0
    5754:	b0 e0       	ldi	r27, 0x00	; 0
    5756:	cd cf       	rjmp	.-102    	; 0x56f2 <ModbusTCPRun+0x70>
    5758:	b8 01       	movw	r22, r16
    575a:	67 5f       	subi	r22, 0xF7	; 247
    575c:	7f 4f       	sbci	r23, 0xFF	; 255
    575e:	89 e5       	ldi	r24, 0x59	; 89
    5760:	9e e0       	ldi	r25, 0x0E	; 14
    5762:	ee de       	rcall	.-548    	; 0x5540 <Webserver_send>
    5764:	80 e0       	ldi	r24, 0x00	; 0
    5766:	bb c0       	rjmp	.+374    	; 0x58de <ModbusTCPRun+0x25c>
    5768:	82 30       	cpi	r24, 0x02	; 2
    576a:	09 f0       	breq	.+2      	; 0x576e <ModbusTCPRun+0xec>
    576c:	6a c0       	rjmp	.+212    	; 0x5842 <ModbusTCPRun+0x1c0>
    576e:	e0 91 61 0e 	lds	r30, 0x0E61
    5772:	f0 e0       	ldi	r31, 0x00	; 0
    5774:	fe 2f       	mov	r31, r30
    5776:	ee 27       	eor	r30, r30
    5778:	80 91 62 0e 	lds	r24, 0x0E62
    577c:	e8 0f       	add	r30, r24
    577e:	f1 1d       	adc	r31, r1
    5780:	80 91 63 0e 	lds	r24, 0x0E63
    5784:	90 e0       	ldi	r25, 0x00	; 0
    5786:	98 2f       	mov	r25, r24
    5788:	88 27       	eor	r24, r24
    578a:	20 91 64 0e 	lds	r18, 0x0E64
    578e:	82 0f       	add	r24, r18
    5790:	91 1d       	adc	r25, r1
    5792:	8c 01       	movw	r16, r24
    5794:	16 95       	lsr	r17
    5796:	07 95       	ror	r16
    5798:	16 95       	lsr	r17
    579a:	07 95       	ror	r16
    579c:	16 95       	lsr	r17
    579e:	07 95       	ror	r16
    57a0:	98 01       	movw	r18, r16
    57a2:	22 0f       	add	r18, r18
    57a4:	33 1f       	adc	r19, r19
    57a6:	22 0f       	add	r18, r18
    57a8:	33 1f       	adc	r19, r19
    57aa:	22 0f       	add	r18, r18
    57ac:	33 1f       	adc	r19, r19
    57ae:	28 17       	cp	r18, r24
    57b0:	39 07       	cpc	r19, r25
    57b2:	10 f4       	brcc	.+4      	; 0x57b8 <ModbusTCPRun+0x136>
    57b4:	0f 5f       	subi	r16, 0xFF	; 255
    57b6:	1f 4f       	sbci	r17, 0xFF	; 255
    57b8:	83 e0       	ldi	r24, 0x03	; 3
    57ba:	80 0f       	add	r24, r16
    57bc:	80 93 5e 0e 	sts	0x0E5E, r24
    57c0:	00 93 61 0e 	sts	0x0E61, r16
    57c4:	01 15       	cp	r16, r1
    57c6:	11 05       	cpc	r17, r1
    57c8:	39 f5       	brne	.+78     	; 0x5818 <ModbusTCPRun+0x196>
    57ca:	33 c0       	rjmp	.+102    	; 0x5832 <ModbusTCPRun+0x1b0>
    57cc:	41 91       	ld	r20, Z+
    57ce:	51 91       	ld	r21, Z+
    57d0:	45 2b       	or	r20, r21
    57d2:	71 f0       	breq	.+28     	; 0x57f0 <ModbusTCPRun+0x16e>
    57d4:	f8 80       	ld	r15, Y
    57d6:	ac 01       	movw	r20, r24
    57d8:	bd 01       	movw	r22, r26
    57da:	02 2e       	mov	r0, r18
    57dc:	04 c0       	rjmp	.+8      	; 0x57e6 <ModbusTCPRun+0x164>
    57de:	44 0f       	add	r20, r20
    57e0:	55 1f       	adc	r21, r21
    57e2:	66 1f       	adc	r22, r22
    57e4:	77 1f       	adc	r23, r23
    57e6:	0a 94       	dec	r0
    57e8:	d2 f7       	brpl	.-12     	; 0x57de <ModbusTCPRun+0x15c>
    57ea:	4f 29       	or	r20, r15
    57ec:	48 83       	st	Y, r20
    57ee:	0e c0       	rjmp	.+28     	; 0x580c <ModbusTCPRun+0x18a>
    57f0:	ac 01       	movw	r20, r24
    57f2:	bd 01       	movw	r22, r26
    57f4:	02 2e       	mov	r0, r18
    57f6:	04 c0       	rjmp	.+8      	; 0x5800 <ModbusTCPRun+0x17e>
    57f8:	44 0f       	add	r20, r20
    57fa:	55 1f       	adc	r21, r21
    57fc:	66 1f       	adc	r22, r22
    57fe:	77 1f       	adc	r23, r23
    5800:	0a 94       	dec	r0
    5802:	d2 f7       	brpl	.-12     	; 0x57f8 <ModbusTCPRun+0x176>
    5804:	40 95       	com	r20
    5806:	58 81       	ld	r21, Y
    5808:	45 23       	and	r20, r21
    580a:	48 83       	st	Y, r20
    580c:	2f 5f       	subi	r18, 0xFF	; 255
    580e:	3f 4f       	sbci	r19, 0xFF	; 255
    5810:	28 30       	cpi	r18, 0x08	; 8
    5812:	31 05       	cpc	r19, r1
    5814:	d9 f6       	brne	.-74     	; 0x57cc <ModbusTCPRun+0x14a>
    5816:	0d c0       	rjmp	.+26     	; 0x5832 <ModbusTCPRun+0x1b0>
    5818:	ee 0f       	add	r30, r30
    581a:	ff 1f       	adc	r31, r31
    581c:	e8 5d       	subi	r30, 0xD8	; 216
    581e:	f5 4f       	sbci	r31, 0xF5	; 245
    5820:	20 e0       	ldi	r18, 0x00	; 0
    5822:	30 e0       	ldi	r19, 0x00	; 0
    5824:	c2 e6       	ldi	r28, 0x62	; 98
    5826:	de e0       	ldi	r29, 0x0E	; 14
    5828:	81 e0       	ldi	r24, 0x01	; 1
    582a:	90 e0       	ldi	r25, 0x00	; 0
    582c:	a0 e0       	ldi	r26, 0x00	; 0
    582e:	b0 e0       	ldi	r27, 0x00	; 0
    5830:	cd cf       	rjmp	.-102    	; 0x57cc <ModbusTCPRun+0x14a>
    5832:	b8 01       	movw	r22, r16
    5834:	67 5f       	subi	r22, 0xF7	; 247
    5836:	7f 4f       	sbci	r23, 0xFF	; 255
    5838:	89 e5       	ldi	r24, 0x59	; 89
    583a:	9e e0       	ldi	r25, 0x0E	; 14
    583c:	81 de       	rcall	.-766    	; 0x5540 <Webserver_send>
    583e:	80 e0       	ldi	r24, 0x00	; 0
    5840:	9c c0       	rjmp	.+312    	; 0x597a <ModbusTCPRun+0x2f8>
    5842:	83 30       	cpi	r24, 0x03	; 3
    5844:	09 f0       	breq	.+2      	; 0x5848 <ModbusTCPRun+0x1c6>
    5846:	4b c0       	rjmp	.+150    	; 0x58de <ModbusTCPRun+0x25c>
    5848:	e1 e6       	ldi	r30, 0x61	; 97
    584a:	fe e0       	ldi	r31, 0x0E	; 14
    584c:	20 81       	ld	r18, Z
    584e:	30 e0       	ldi	r19, 0x00	; 0
    5850:	32 2f       	mov	r19, r18
    5852:	22 27       	eor	r18, r18
    5854:	80 91 62 0e 	lds	r24, 0x0E62
    5858:	28 0f       	add	r18, r24
    585a:	31 1d       	adc	r19, r1
    585c:	40 91 63 0e 	lds	r20, 0x0E63
    5860:	50 e0       	ldi	r21, 0x00	; 0
    5862:	54 2f       	mov	r21, r20
    5864:	44 27       	eor	r20, r20
    5866:	80 91 64 0e 	lds	r24, 0x0E64
    586a:	48 0f       	add	r20, r24
    586c:	51 1d       	adc	r21, r1
    586e:	ba 01       	movw	r22, r20
    5870:	66 0f       	add	r22, r22
    5872:	77 1f       	adc	r23, r23
    5874:	c9 01       	movw	r24, r18
    5876:	88 0f       	add	r24, r24
    5878:	99 1f       	adc	r25, r25
    587a:	dc 01       	movw	r26, r24
    587c:	ae 5a       	subi	r26, 0xAE	; 174
    587e:	b2 4f       	sbci	r27, 0xF2	; 242
    5880:	ec 01       	movw	r28, r24
    5882:	c8 56       	subi	r28, 0x68	; 104
    5884:	dd 4e       	sbci	r29, 0xED	; 237
    5886:	88 81       	ld	r24, Y
    5888:	99 81       	ldd	r25, Y+1	; 0x01
    588a:	8d 93       	st	X+, r24
    588c:	9c 93       	st	X, r25
    588e:	83 e0       	ldi	r24, 0x03	; 3
    5890:	86 0f       	add	r24, r22
    5892:	80 93 5e 0e 	sts	0x0E5E, r24
    5896:	60 83       	st	Z, r22
    5898:	41 15       	cp	r20, r1
    589a:	51 05       	cpc	r21, r1
    589c:	c9 f0       	breq	.+50     	; 0x58d0 <ModbusTCPRun+0x24e>
    589e:	e3 e6       	ldi	r30, 0x63	; 99
    58a0:	fe e0       	ldi	r31, 0x0E	; 14
    58a2:	a0 e0       	ldi	r26, 0x00	; 0
    58a4:	b0 e0       	ldi	r27, 0x00	; 0
    58a6:	80 e0       	ldi	r24, 0x00	; 0
    58a8:	90 e0       	ldi	r25, 0x00	; 0
    58aa:	a2 0f       	add	r26, r18
    58ac:	b3 1f       	adc	r27, r19
    58ae:	aa 0f       	add	r26, r26
    58b0:	bb 1f       	adc	r27, r27
    58b2:	ae 5a       	subi	r26, 0xAE	; 174
    58b4:	b2 4f       	sbci	r27, 0xF2	; 242
    58b6:	cc 91       	ld	r28, X
    58b8:	11 96       	adiw	r26, 0x01	; 1
    58ba:	dc 91       	ld	r29, X
    58bc:	df 01       	movw	r26, r30
    58be:	11 97       	sbiw	r26, 0x01	; 1
    58c0:	dc 93       	st	X, r29
    58c2:	c0 83       	st	Z, r28
    58c4:	01 96       	adiw	r24, 0x01	; 1
    58c6:	dc 01       	movw	r26, r24
    58c8:	32 96       	adiw	r30, 0x02	; 2
    58ca:	84 17       	cp	r24, r20
    58cc:	95 07       	cpc	r25, r21
    58ce:	69 f7       	brne	.-38     	; 0x58aa <ModbusTCPRun+0x228>
    58d0:	67 5f       	subi	r22, 0xF7	; 247
    58d2:	7f 4f       	sbci	r23, 0xFF	; 255
    58d4:	89 e5       	ldi	r24, 0x59	; 89
    58d6:	9e e0       	ldi	r25, 0x0E	; 14
    58d8:	33 de       	rcall	.-922    	; 0x5540 <Webserver_send>
    58da:	80 e0       	ldi	r24, 0x00	; 0
    58dc:	78 c0       	rjmp	.+240    	; 0x59ce <ModbusTCPRun+0x34c>
    58de:	84 30       	cpi	r24, 0x04	; 4
    58e0:	09 f0       	breq	.+2      	; 0x58e4 <ModbusTCPRun+0x262>
    58e2:	4b c0       	rjmp	.+150    	; 0x597a <ModbusTCPRun+0x2f8>
    58e4:	e1 e6       	ldi	r30, 0x61	; 97
    58e6:	fe e0       	ldi	r31, 0x0E	; 14
    58e8:	20 81       	ld	r18, Z
    58ea:	30 e0       	ldi	r19, 0x00	; 0
    58ec:	32 2f       	mov	r19, r18
    58ee:	22 27       	eor	r18, r18
    58f0:	80 91 62 0e 	lds	r24, 0x0E62
    58f4:	28 0f       	add	r18, r24
    58f6:	31 1d       	adc	r19, r1
    58f8:	40 91 63 0e 	lds	r20, 0x0E63
    58fc:	50 e0       	ldi	r21, 0x00	; 0
    58fe:	54 2f       	mov	r21, r20
    5900:	44 27       	eor	r20, r20
    5902:	80 91 64 0e 	lds	r24, 0x0E64
    5906:	48 0f       	add	r20, r24
    5908:	51 1d       	adc	r21, r1
    590a:	ba 01       	movw	r22, r20
    590c:	66 0f       	add	r22, r22
    590e:	77 1f       	adc	r23, r23
    5910:	c9 01       	movw	r24, r18
    5912:	88 0f       	add	r24, r24
    5914:	99 1f       	adc	r25, r25
    5916:	dc 01       	movw	r26, r24
    5918:	ae 5e       	subi	r26, 0xEE	; 238
    591a:	bb 4e       	sbci	r27, 0xEB	; 235
    591c:	ec 01       	movw	r28, r24
    591e:	c0 55       	subi	r28, 0x50	; 80
    5920:	d3 4f       	sbci	r29, 0xF3	; 243
    5922:	88 81       	ld	r24, Y
    5924:	99 81       	ldd	r25, Y+1	; 0x01
    5926:	8d 93       	st	X+, r24
    5928:	9c 93       	st	X, r25
    592a:	83 e0       	ldi	r24, 0x03	; 3
    592c:	86 0f       	add	r24, r22
    592e:	80 93 5e 0e 	sts	0x0E5E, r24
    5932:	60 83       	st	Z, r22
    5934:	41 15       	cp	r20, r1
    5936:	51 05       	cpc	r21, r1
    5938:	c9 f0       	breq	.+50     	; 0x596c <ModbusTCPRun+0x2ea>
    593a:	a2 e6       	ldi	r26, 0x62	; 98
    593c:	be e0       	ldi	r27, 0x0E	; 14
    593e:	e3 e6       	ldi	r30, 0x63	; 99
    5940:	fe e0       	ldi	r31, 0x0E	; 14
    5942:	c0 e0       	ldi	r28, 0x00	; 0
    5944:	d0 e0       	ldi	r29, 0x00	; 0
    5946:	80 e0       	ldi	r24, 0x00	; 0
    5948:	90 e0       	ldi	r25, 0x00	; 0
    594a:	c2 0f       	add	r28, r18
    594c:	d3 1f       	adc	r29, r19
    594e:	cc 0f       	add	r28, r28
    5950:	dd 1f       	adc	r29, r29
    5952:	c0 55       	subi	r28, 0x50	; 80
    5954:	d3 4f       	sbci	r29, 0xF3	; 243
    5956:	18 81       	ld	r17, Y
    5958:	c9 81       	ldd	r28, Y+1	; 0x01
    595a:	cc 93       	st	X, r28
    595c:	10 83       	st	Z, r17
    595e:	01 96       	adiw	r24, 0x01	; 1
    5960:	ec 01       	movw	r28, r24
    5962:	12 96       	adiw	r26, 0x02	; 2
    5964:	32 96       	adiw	r30, 0x02	; 2
    5966:	84 17       	cp	r24, r20
    5968:	95 07       	cpc	r25, r21
    596a:	79 f7       	brne	.-34     	; 0x594a <ModbusTCPRun+0x2c8>
    596c:	67 5f       	subi	r22, 0xF7	; 247
    596e:	7f 4f       	sbci	r23, 0xFF	; 255
    5970:	89 e5       	ldi	r24, 0x59	; 89
    5972:	9e e0       	ldi	r25, 0x0E	; 14
    5974:	e5 dd       	rcall	.-1078   	; 0x5540 <Webserver_send>
    5976:	80 e0       	ldi	r24, 0x00	; 0
    5978:	53 c0       	rjmp	.+166    	; 0x5a20 <ModbusTCPRun+0x39e>
    597a:	85 30       	cpi	r24, 0x05	; 5
    597c:	41 f5       	brne	.+80     	; 0x59ce <ModbusTCPRun+0x34c>
    597e:	e0 91 61 0e 	lds	r30, 0x0E61
    5982:	f0 e0       	ldi	r31, 0x00	; 0
    5984:	fe 2f       	mov	r31, r30
    5986:	ee 27       	eor	r30, r30
    5988:	80 91 62 0e 	lds	r24, 0x0E62
    598c:	e8 0f       	add	r30, r24
    598e:	f1 1d       	adc	r31, r1
    5990:	ee 0f       	add	r30, r30
    5992:	ff 1f       	adc	r31, r31
    5994:	e6 5f       	subi	r30, 0xF6	; 246
    5996:	f6 4f       	sbci	r31, 0xF6	; 246
    5998:	20 91 63 0e 	lds	r18, 0x0E63
    599c:	30 e0       	ldi	r19, 0x00	; 0
    599e:	32 2f       	mov	r19, r18
    59a0:	22 27       	eor	r18, r18
    59a2:	80 91 64 0e 	lds	r24, 0x0E64
    59a6:	28 0f       	add	r18, r24
    59a8:	31 1d       	adc	r19, r1
    59aa:	81 e0       	ldi	r24, 0x01	; 1
    59ac:	90 e0       	ldi	r25, 0x00	; 0
    59ae:	23 2b       	or	r18, r19
    59b0:	11 f4       	brne	.+4      	; 0x59b6 <ModbusTCPRun+0x334>
    59b2:	80 e0       	ldi	r24, 0x00	; 0
    59b4:	90 e0       	ldi	r25, 0x00	; 0
    59b6:	91 83       	std	Z+1, r25	; 0x01
    59b8:	80 83       	st	Z, r24
    59ba:	86 e0       	ldi	r24, 0x06	; 6
    59bc:	80 93 5e 0e 	sts	0x0E5E, r24
    59c0:	6c e0       	ldi	r22, 0x0C	; 12
    59c2:	70 e0       	ldi	r23, 0x00	; 0
    59c4:	89 e5       	ldi	r24, 0x59	; 89
    59c6:	9e e0       	ldi	r25, 0x0E	; 14
    59c8:	bb dd       	rcall	.-1162   	; 0x5540 <Webserver_send>
    59ca:	80 e0       	ldi	r24, 0x00	; 0
    59cc:	8f c0       	rjmp	.+286    	; 0x5aec <ModbusTCPRun+0x46a>
    59ce:	86 30       	cpi	r24, 0x06	; 6
    59d0:	39 f5       	brne	.+78     	; 0x5a20 <ModbusTCPRun+0x39e>
    59d2:	20 91 61 0e 	lds	r18, 0x0E61
    59d6:	30 e0       	ldi	r19, 0x00	; 0
    59d8:	32 2f       	mov	r19, r18
    59da:	22 27       	eor	r18, r18
    59dc:	80 91 62 0e 	lds	r24, 0x0E62
    59e0:	28 0f       	add	r18, r24
    59e2:	31 1d       	adc	r19, r1
    59e4:	80 91 63 0e 	lds	r24, 0x0E63
    59e8:	90 e0       	ldi	r25, 0x00	; 0
    59ea:	98 2f       	mov	r25, r24
    59ec:	88 27       	eor	r24, r24
    59ee:	40 91 64 0e 	lds	r20, 0x0E64
    59f2:	84 0f       	add	r24, r20
    59f4:	91 1d       	adc	r25, r1
    59f6:	22 0f       	add	r18, r18
    59f8:	33 1f       	adc	r19, r19
    59fa:	f9 01       	movw	r30, r18
    59fc:	ee 5a       	subi	r30, 0xAE	; 174
    59fe:	f2 4f       	sbci	r31, 0xF2	; 242
    5a00:	91 83       	std	Z+1, r25	; 0x01
    5a02:	80 83       	st	Z, r24
    5a04:	f9 01       	movw	r30, r18
    5a06:	e8 56       	subi	r30, 0x68	; 104
    5a08:	fd 4e       	sbci	r31, 0xED	; 237
    5a0a:	91 83       	std	Z+1, r25	; 0x01
    5a0c:	80 83       	st	Z, r24
    5a0e:	86 e0       	ldi	r24, 0x06	; 6
    5a10:	80 93 5e 0e 	sts	0x0E5E, r24
    5a14:	6c e0       	ldi	r22, 0x0C	; 12
    5a16:	70 e0       	ldi	r23, 0x00	; 0
    5a18:	89 e5       	ldi	r24, 0x59	; 89
    5a1a:	9e e0       	ldi	r25, 0x0E	; 14
    5a1c:	91 dd       	rcall	.-1246   	; 0x5540 <Webserver_send>
    5a1e:	a9 c0       	rjmp	.+338    	; 0x5b72 <ModbusTCPRun+0x4f0>
    5a20:	8f 30       	cpi	r24, 0x0F	; 15
    5a22:	09 f0       	breq	.+2      	; 0x5a26 <ModbusTCPRun+0x3a4>
    5a24:	63 c0       	rjmp	.+198    	; 0x5aec <ModbusTCPRun+0x46a>
    5a26:	80 91 61 0e 	lds	r24, 0x0E61
    5a2a:	90 e0       	ldi	r25, 0x00	; 0
    5a2c:	98 2f       	mov	r25, r24
    5a2e:	88 27       	eor	r24, r24
    5a30:	20 91 62 0e 	lds	r18, 0x0E62
    5a34:	ac 01       	movw	r20, r24
    5a36:	42 0f       	add	r20, r18
    5a38:	51 1d       	adc	r21, r1
    5a3a:	9a 01       	movw	r18, r20
    5a3c:	60 91 63 0e 	lds	r22, 0x0E63
    5a40:	70 e0       	ldi	r23, 0x00	; 0
    5a42:	76 2f       	mov	r23, r22
    5a44:	66 27       	eor	r22, r22
    5a46:	80 91 64 0e 	lds	r24, 0x0E64
    5a4a:	68 0f       	add	r22, r24
    5a4c:	71 1d       	adc	r23, r1
    5a4e:	8b 01       	movw	r16, r22
    5a50:	16 95       	lsr	r17
    5a52:	07 95       	ror	r16
    5a54:	16 95       	lsr	r17
    5a56:	07 95       	ror	r16
    5a58:	16 95       	lsr	r17
    5a5a:	07 95       	ror	r16
    5a5c:	c8 01       	movw	r24, r16
    5a5e:	88 0f       	add	r24, r24
    5a60:	99 1f       	adc	r25, r25
    5a62:	88 0f       	add	r24, r24
    5a64:	99 1f       	adc	r25, r25
    5a66:	88 0f       	add	r24, r24
    5a68:	99 1f       	adc	r25, r25
    5a6a:	86 17       	cp	r24, r22
    5a6c:	97 07       	cpc	r25, r23
    5a6e:	10 f4       	brcc	.+4      	; 0x5a74 <ModbusTCPRun+0x3f2>
    5a70:	0f 5f       	subi	r16, 0xFF	; 255
    5a72:	1f 4f       	sbci	r17, 0xFF	; 255
    5a74:	86 e0       	ldi	r24, 0x06	; 6
    5a76:	80 93 5e 0e 	sts	0x0E5E, r24
    5a7a:	01 15       	cp	r16, r1
    5a7c:	11 05       	cpc	r17, r1
    5a7e:	81 f1       	breq	.+96     	; 0x5ae0 <ModbusTCPRun+0x45e>
    5a80:	e9 01       	movw	r28, r18
    5a82:	cc 0f       	add	r28, r28
    5a84:	dd 1f       	adc	r29, r29
    5a86:	c6 5f       	subi	r28, 0xF6	; 246
    5a88:	d6 4f       	sbci	r29, 0xF6	; 246
    5a8a:	a6 e6       	ldi	r26, 0x66	; 102
    5a8c:	be e0       	ldi	r27, 0x0E	; 14
    5a8e:	0a 59       	subi	r16, 0x9A	; 154
    5a90:	11 4f       	sbci	r17, 0xF1	; 241
    5a92:	40 e0       	ldi	r20, 0x00	; 0
    5a94:	50 e0       	ldi	r21, 0x00	; 0
    5a96:	e1 2c       	mov	r14, r1
    5a98:	f1 2c       	mov	r15, r1
    5a9a:	1e c0       	rjmp	.+60     	; 0x5ad8 <ModbusTCPRun+0x456>
    5a9c:	9c 01       	movw	r18, r24
    5a9e:	24 0f       	add	r18, r20
    5aa0:	35 1f       	adc	r19, r21
    5aa2:	26 17       	cp	r18, r22
    5aa4:	37 07       	cpc	r19, r23
    5aa6:	60 f4       	brcc	.+24     	; 0x5ac0 <ModbusTCPRun+0x43e>
    5aa8:	2c 91       	ld	r18, X
    5aaa:	30 e0       	ldi	r19, 0x00	; 0
    5aac:	08 2e       	mov	r0, r24
    5aae:	02 c0       	rjmp	.+4      	; 0x5ab4 <ModbusTCPRun+0x432>
    5ab0:	35 95       	asr	r19
    5ab2:	27 95       	ror	r18
    5ab4:	0a 94       	dec	r0
    5ab6:	e2 f7       	brpl	.-8      	; 0x5ab0 <ModbusTCPRun+0x42e>
    5ab8:	21 70       	andi	r18, 0x01	; 1
    5aba:	33 27       	eor	r19, r19
    5abc:	31 83       	std	Z+1, r19	; 0x01
    5abe:	20 83       	st	Z, r18
    5ac0:	01 96       	adiw	r24, 0x01	; 1
    5ac2:	32 96       	adiw	r30, 0x02	; 2
    5ac4:	88 30       	cpi	r24, 0x08	; 8
    5ac6:	91 05       	cpc	r25, r1
    5ac8:	49 f7       	brne	.-46     	; 0x5a9c <ModbusTCPRun+0x41a>
    5aca:	60 96       	adiw	r28, 0x10	; 16
    5acc:	48 5f       	subi	r20, 0xF8	; 248
    5ace:	5f 4f       	sbci	r21, 0xFF	; 255
    5ad0:	11 96       	adiw	r26, 0x01	; 1
    5ad2:	a0 17       	cp	r26, r16
    5ad4:	b1 07       	cpc	r27, r17
    5ad6:	21 f0       	breq	.+8      	; 0x5ae0 <ModbusTCPRun+0x45e>
    5ad8:	fe 01       	movw	r30, r28
    5ada:	8e 2d       	mov	r24, r14
    5adc:	9f 2d       	mov	r25, r15
    5ade:	de cf       	rjmp	.-68     	; 0x5a9c <ModbusTCPRun+0x41a>
    5ae0:	6c e0       	ldi	r22, 0x0C	; 12
    5ae2:	70 e0       	ldi	r23, 0x00	; 0
    5ae4:	89 e5       	ldi	r24, 0x59	; 89
    5ae6:	9e e0       	ldi	r25, 0x0E	; 14
    5ae8:	2b dd       	rcall	.-1450   	; 0x5540 <Webserver_send>
    5aea:	43 c0       	rjmp	.+134    	; 0x5b72 <ModbusTCPRun+0x4f0>
    5aec:	80 31       	cpi	r24, 0x10	; 16
    5aee:	09 f0       	breq	.+2      	; 0x5af2 <ModbusTCPRun+0x470>
    5af0:	40 c0       	rjmp	.+128    	; 0x5b72 <ModbusTCPRun+0x4f0>
    5af2:	c0 91 61 0e 	lds	r28, 0x0E61
    5af6:	d0 e0       	ldi	r29, 0x00	; 0
    5af8:	dc 2f       	mov	r29, r28
    5afa:	cc 27       	eor	r28, r28
    5afc:	80 91 62 0e 	lds	r24, 0x0E62
    5b00:	c8 0f       	add	r28, r24
    5b02:	d1 1d       	adc	r29, r1
    5b04:	60 91 63 0e 	lds	r22, 0x0E63
    5b08:	70 e0       	ldi	r23, 0x00	; 0
    5b0a:	76 2f       	mov	r23, r22
    5b0c:	66 27       	eor	r22, r22
    5b0e:	80 91 64 0e 	lds	r24, 0x0E64
    5b12:	68 0f       	add	r22, r24
    5b14:	71 1d       	adc	r23, r1
    5b16:	86 e0       	ldi	r24, 0x06	; 6
    5b18:	80 93 5e 0e 	sts	0x0E5E, r24
    5b1c:	61 15       	cp	r22, r1
    5b1e:	71 05       	cpc	r23, r1
    5b20:	19 f1       	breq	.+70     	; 0x5b68 <ModbusTCPRun+0x4e6>
    5b22:	e7 e6       	ldi	r30, 0x67	; 103
    5b24:	fe e0       	ldi	r31, 0x0E	; 14
    5b26:	40 e0       	ldi	r20, 0x00	; 0
    5b28:	50 e0       	ldi	r21, 0x00	; 0
    5b2a:	80 e0       	ldi	r24, 0x00	; 0
    5b2c:	90 e0       	ldi	r25, 0x00	; 0
    5b2e:	4c 0f       	add	r20, r28
    5b30:	5d 1f       	adc	r21, r29
    5b32:	df 01       	movw	r26, r30
    5b34:	11 97       	sbiw	r26, 0x01	; 1
    5b36:	2c 91       	ld	r18, X
    5b38:	30 e0       	ldi	r19, 0x00	; 0
    5b3a:	32 2f       	mov	r19, r18
    5b3c:	22 27       	eor	r18, r18
    5b3e:	a0 81       	ld	r26, Z
    5b40:	2a 0f       	add	r18, r26
    5b42:	31 1d       	adc	r19, r1
    5b44:	44 0f       	add	r20, r20
    5b46:	55 1f       	adc	r21, r21
    5b48:	da 01       	movw	r26, r20
    5b4a:	ae 5a       	subi	r26, 0xAE	; 174
    5b4c:	b2 4f       	sbci	r27, 0xF2	; 242
    5b4e:	2d 93       	st	X+, r18
    5b50:	3c 93       	st	X, r19
    5b52:	da 01       	movw	r26, r20
    5b54:	a8 56       	subi	r26, 0x68	; 104
    5b56:	bd 4e       	sbci	r27, 0xED	; 237
    5b58:	2d 93       	st	X+, r18
    5b5a:	3c 93       	st	X, r19
    5b5c:	01 96       	adiw	r24, 0x01	; 1
    5b5e:	ac 01       	movw	r20, r24
    5b60:	32 96       	adiw	r30, 0x02	; 2
    5b62:	86 17       	cp	r24, r22
    5b64:	97 07       	cpc	r25, r23
    5b66:	19 f7       	brne	.-58     	; 0x5b2e <ModbusTCPRun+0x4ac>
    5b68:	6c e0       	ldi	r22, 0x0C	; 12
    5b6a:	70 e0       	ldi	r23, 0x00	; 0
    5b6c:	89 e5       	ldi	r24, 0x59	; 89
    5b6e:	9e e0       	ldi	r25, 0x0E	; 14
    5b70:	e7 dc       	rcall	.-1586   	; 0x5540 <Webserver_send>
    5b72:	df 91       	pop	r29
    5b74:	cf 91       	pop	r28
    5b76:	1f 91       	pop	r17
    5b78:	0f 91       	pop	r16
    5b7a:	ff 90       	pop	r15
    5b7c:	ef 90       	pop	r14
    5b7e:	08 95       	ret

00005b80 <SetFC>:
    5b80:	82 30       	cpi	r24, 0x02	; 2
    5b82:	91 05       	cpc	r25, r1
    5b84:	61 f0       	breq	.+24     	; 0x5b9e <SetFC+0x1e>
    5b86:	83 30       	cpi	r24, 0x03	; 3
    5b88:	91 05       	cpc	r25, r1
    5b8a:	71 f0       	breq	.+28     	; 0x5ba8 <SetFC+0x28>
    5b8c:	21 e0       	ldi	r18, 0x01	; 1
    5b8e:	81 30       	cpi	r24, 0x01	; 1
    5b90:	91 05       	cpc	r25, r1
    5b92:	09 f0       	breq	.+2      	; 0x5b96 <SetFC+0x16>
    5b94:	20 e0       	ldi	r18, 0x00	; 0
    5b96:	84 30       	cpi	r24, 0x04	; 4
    5b98:	91 05       	cpc	r25, r1
    5b9a:	59 f0       	breq	.+22     	; 0x5bb2 <SetFC+0x32>
    5b9c:	01 c0       	rjmp	.+2      	; 0x5ba0 <SetFC+0x20>
    5b9e:	22 e0       	ldi	r18, 0x02	; 2
    5ba0:	85 30       	cpi	r24, 0x05	; 5
    5ba2:	91 05       	cpc	r25, r1
    5ba4:	59 f0       	breq	.+22     	; 0x5bbc <SetFC+0x3c>
    5ba6:	01 c0       	rjmp	.+2      	; 0x5baa <SetFC+0x2a>
    5ba8:	23 e0       	ldi	r18, 0x03	; 3
    5baa:	86 30       	cpi	r24, 0x06	; 6
    5bac:	91 05       	cpc	r25, r1
    5bae:	51 f0       	breq	.+20     	; 0x5bc4 <SetFC+0x44>
    5bb0:	01 c0       	rjmp	.+2      	; 0x5bb4 <SetFC+0x34>
    5bb2:	24 e0       	ldi	r18, 0x04	; 4
    5bb4:	8f 30       	cpi	r24, 0x0F	; 15
    5bb6:	91 05       	cpc	r25, r1
    5bb8:	39 f0       	breq	.+14     	; 0x5bc8 <SetFC+0x48>
    5bba:	01 c0       	rjmp	.+2      	; 0x5bbe <SetFC+0x3e>
    5bbc:	25 e0       	ldi	r18, 0x05	; 5
    5bbe:	40 97       	sbiw	r24, 0x10	; 16
    5bc0:	29 f0       	breq	.+10     	; 0x5bcc <SetFC+0x4c>
    5bc2:	05 c0       	rjmp	.+10     	; 0x5bce <SetFC+0x4e>
    5bc4:	26 e0       	ldi	r18, 0x06	; 6
    5bc6:	03 c0       	rjmp	.+6      	; 0x5bce <SetFC+0x4e>
    5bc8:	2f e0       	ldi	r18, 0x0F	; 15
    5bca:	01 c0       	rjmp	.+2      	; 0x5bce <SetFC+0x4e>
    5bcc:	20 e1       	ldi	r18, 0x10	; 16
    5bce:	82 2f       	mov	r24, r18
    5bd0:	08 95       	ret

00005bd2 <Modbus_TCP_Automat>:
    5bd2:	cf 93       	push	r28
    5bd4:	df 93       	push	r29
    5bd6:	d0 91 bd 06 	lds	r29, 0x06BD
    5bda:	81 11       	cpse	r24, r1
    5bdc:	03 c0       	rjmp	.+6      	; 0x5be4 <Modbus_TCP_Automat+0x12>
    5bde:	10 92 bd 06 	sts	0x06BD, r1
    5be2:	0a c0       	rjmp	.+20     	; 0x5bf8 <Modbus_TCP_Automat+0x26>
    5be4:	8d 2f       	mov	r24, r29
    5be6:	90 e0       	ldi	r25, 0x00	; 0
    5be8:	80 31       	cpi	r24, 0x10	; 16
    5bea:	91 05       	cpc	r25, r1
    5bec:	08 f0       	brcs	.+2      	; 0x5bf0 <Modbus_TCP_Automat+0x1e>
    5bee:	f7 c0       	rjmp	.+494    	; 0x5dde <Modbus_TCP_Automat+0x20c>
    5bf0:	fc 01       	movw	r30, r24
    5bf2:	ea 57       	subi	r30, 0x7A	; 122
    5bf4:	ff 4f       	sbci	r31, 0xFF	; 255
    5bf6:	e4 c2       	rjmp	.+1480   	; 0x61c0 <__tablejump2__>
    5bf8:	80 91 bc 06 	lds	r24, 0x06BC
    5bfc:	81 11       	cpse	r24, r1
    5bfe:	04 c0       	rjmp	.+8      	; 0x5c08 <Modbus_TCP_Automat+0x36>
    5c00:	0e 94 9c 06 	call	0xd38	; 0xd38 <Timer16Alloc>
    5c04:	80 93 bc 06 	sts	0x06BC, r24
    5c08:	81 e0       	ldi	r24, 0x01	; 1
    5c0a:	80 93 bd 06 	sts	0x06BD, r24
    5c0e:	07 c1       	rjmp	.+526    	; 0x5e1e <Modbus_TCP_Automat+0x24c>
    5c10:	83 e0       	ldi	r24, 0x03	; 3
    5c12:	97 e0       	ldi	r25, 0x07	; 7
    5c14:	0e 94 2f 03 	call	0x65e	; 0x65e <W5100read>
    5c18:	80 93 8c 12 	sts	0x128C, r24
    5c1c:	87 31       	cpi	r24, 0x17	; 23
    5c1e:	89 f0       	breq	.+34     	; 0x5c42 <Modbus_TCP_Automat+0x70>
    5c20:	28 f4       	brcc	.+10     	; 0x5c2c <Modbus_TCP_Automat+0x5a>
    5c22:	88 23       	and	r24, r24
    5c24:	51 f0       	breq	.+20     	; 0x5c3a <Modbus_TCP_Automat+0x68>
    5c26:	83 31       	cpi	r24, 0x13	; 19
    5c28:	61 f1       	breq	.+88     	; 0x5c82 <Modbus_TCP_Automat+0xb0>
    5c2a:	d9 c0       	rjmp	.+434    	; 0x5dde <Modbus_TCP_Automat+0x20c>
    5c2c:	88 31       	cpi	r24, 0x18	; 24
    5c2e:	69 f1       	breq	.+90     	; 0x5c8a <Modbus_TCP_Automat+0xb8>
    5c30:	8a 51       	subi	r24, 0x1A	; 26
    5c32:	84 30       	cpi	r24, 0x04	; 4
    5c34:	08 f0       	brcs	.+2      	; 0x5c38 <Modbus_TCP_Automat+0x66>
    5c36:	d3 c0       	rjmp	.+422    	; 0x5dde <Modbus_TCP_Automat+0x20c>
    5c38:	28 c0       	rjmp	.+80     	; 0x5c8a <Modbus_TCP_Automat+0xb8>
    5c3a:	82 e0       	ldi	r24, 0x02	; 2
    5c3c:	80 93 bd 06 	sts	0x06BD, r24
    5c40:	ee c0       	rjmp	.+476    	; 0x5e1e <Modbus_TCP_Automat+0x24c>
    5c42:	80 91 b8 06 	lds	r24, 0x06B8
    5c46:	90 91 b9 06 	lds	r25, 0x06B9
    5c4a:	a0 91 ba 06 	lds	r26, 0x06BA
    5c4e:	b0 91 bb 06 	lds	r27, 0x06BB
    5c52:	89 2b       	or	r24, r25
    5c54:	8a 2b       	or	r24, r26
    5c56:	8b 2b       	or	r24, r27
    5c58:	51 f4       	brne	.+20     	; 0x5c6e <Modbus_TCP_Automat+0x9c>
    5c5a:	85 e0       	ldi	r24, 0x05	; 5
    5c5c:	80 93 bd 06 	sts	0x06BD, r24
    5c60:	61 e0       	ldi	r22, 0x01	; 1
    5c62:	70 e0       	ldi	r23, 0x00	; 0
    5c64:	80 91 bc 06 	lds	r24, 0x06BC
    5c68:	0e 94 e2 06 	call	0xdc4	; 0xdc4 <StartTimer16>
    5c6c:	b8 c0       	rjmp	.+368    	; 0x5dde <Modbus_TCP_Automat+0x20c>
    5c6e:	86 e0       	ldi	r24, 0x06	; 6
    5c70:	80 93 bd 06 	sts	0x06BD, r24
    5c74:	61 e0       	ldi	r22, 0x01	; 1
    5c76:	70 e0       	ldi	r23, 0x00	; 0
    5c78:	80 91 bc 06 	lds	r24, 0x06BC
    5c7c:	0e 94 e2 06 	call	0xdc4	; 0xdc4 <StartTimer16>
    5c80:	ae c0       	rjmp	.+348    	; 0x5dde <Modbus_TCP_Automat+0x20c>
    5c82:	83 e0       	ldi	r24, 0x03	; 3
    5c84:	80 93 bd 06 	sts	0x06BD, r24
    5c88:	ca c0       	rjmp	.+404    	; 0x5e1e <Modbus_TCP_Automat+0x24c>
    5c8a:	89 db       	rcall	.-2286   	; 0x539e <WebserverSocket_close>
    5c8c:	a8 c0       	rjmp	.+336    	; 0x5dde <Modbus_TCP_Automat+0x20c>
    5c8e:	46 ef       	ldi	r20, 0xF6	; 246
    5c90:	51 e0       	ldi	r21, 0x01	; 1
    5c92:	61 e0       	ldi	r22, 0x01	; 1
    5c94:	83 e0       	ldi	r24, 0x03	; 3
    5c96:	8f db       	rcall	.-2274   	; 0x53b6 <WebserverSocketOpen>
    5c98:	88 23       	and	r24, r24
    5c9a:	21 f0       	breq	.+8      	; 0x5ca4 <Modbus_TCP_Automat+0xd2>
    5c9c:	83 e0       	ldi	r24, 0x03	; 3
    5c9e:	80 93 bd 06 	sts	0x06BD, r24
    5ca2:	bd c0       	rjmp	.+378    	; 0x5e1e <Modbus_TCP_Automat+0x24c>
    5ca4:	81 e0       	ldi	r24, 0x01	; 1
    5ca6:	80 93 bd 06 	sts	0x06BD, r24
    5caa:	b9 c0       	rjmp	.+370    	; 0x5e1e <Modbus_TCP_Automat+0x24c>
    5cac:	b9 db       	rcall	.-2190   	; 0x5420 <Webserver_listen>
    5cae:	81 11       	cpse	r24, r1
    5cb0:	04 c0       	rjmp	.+8      	; 0x5cba <Modbus_TCP_Automat+0xe8>
    5cb2:	84 e0       	ldi	r24, 0x04	; 4
    5cb4:	80 93 bd 06 	sts	0x06BD, r24
    5cb8:	b2 c0       	rjmp	.+356    	; 0x5e1e <Modbus_TCP_Automat+0x24c>
    5cba:	81 e0       	ldi	r24, 0x01	; 1
    5cbc:	80 93 bd 06 	sts	0x06BD, r24
    5cc0:	ae c0       	rjmp	.+348    	; 0x5e1e <Modbus_TCP_Automat+0x24c>
    5cc2:	81 e0       	ldi	r24, 0x01	; 1
    5cc4:	80 93 bd 06 	sts	0x06BD, r24
    5cc8:	aa c0       	rjmp	.+340    	; 0x5e1e <Modbus_TCP_Automat+0x24c>
    5cca:	c0 91 bc 06 	lds	r28, 0x06BC
    5cce:	8c 2f       	mov	r24, r28
    5cd0:	0e 94 8e 08 	call	0x111c	; 0x111c <Timer16Stopp>
    5cd4:	88 23       	and	r24, r24
    5cd6:	09 f4       	brne	.+2      	; 0x5cda <Modbus_TCP_Automat+0x108>
    5cd8:	82 c0       	rjmp	.+260    	; 0x5dde <Modbus_TCP_Automat+0x20c>
    5cda:	61 e0       	ldi	r22, 0x01	; 1
    5cdc:	70 e0       	ldi	r23, 0x00	; 0
    5cde:	8c 2f       	mov	r24, r28
    5ce0:	0e 94 e2 06 	call	0xdc4	; 0xdc4 <StartTimer16>
    5ce4:	86 e0       	ldi	r24, 0x06	; 6
    5ce6:	80 93 bd 06 	sts	0x06BD, r24
    5cea:	c6 e0       	ldi	r28, 0x06	; 6
    5cec:	7e c0       	rjmp	.+252    	; 0x5dea <Modbus_TCP_Automat+0x218>
    5cee:	c0 91 bc 06 	lds	r28, 0x06BC
    5cf2:	8c 2f       	mov	r24, r28
    5cf4:	0e 94 8e 08 	call	0x111c	; 0x111c <Timer16Stopp>
    5cf8:	88 23       	and	r24, r24
    5cfa:	09 f4       	brne	.+2      	; 0x5cfe <Modbus_TCP_Automat+0x12c>
    5cfc:	70 c0       	rjmp	.+224    	; 0x5dde <Modbus_TCP_Automat+0x20c>
    5cfe:	40 91 b8 06 	lds	r20, 0x06B8
    5d02:	50 91 b9 06 	lds	r21, 0x06B9
    5d06:	60 91 ba 06 	lds	r22, 0x06BA
    5d0a:	70 91 bb 06 	lds	r23, 0x06BB
    5d0e:	48 3e       	cpi	r20, 0xE8	; 232
    5d10:	53 40       	sbci	r21, 0x03	; 3
    5d12:	61 05       	cpc	r22, r1
    5d14:	71 05       	cpc	r23, r1
    5d16:	78 f0       	brcs	.+30     	; 0x5d36 <Modbus_TCP_Automat+0x164>
    5d18:	20 91 1c 09 	lds	r18, 0x091C
    5d1c:	30 91 1d 09 	lds	r19, 0x091D
    5d20:	23 2b       	or	r18, r19
    5d22:	79 f4       	brne	.+30     	; 0x5d42 <Modbus_TCP_Automat+0x170>
    5d24:	62 e3       	ldi	r22, 0x32	; 50
    5d26:	70 e0       	ldi	r23, 0x00	; 0
    5d28:	8c 2f       	mov	r24, r28
    5d2a:	0e 94 e2 06 	call	0xdc4	; 0xdc4 <StartTimer16>
    5d2e:	87 e0       	ldi	r24, 0x07	; 7
    5d30:	80 93 bd 06 	sts	0x06BD, r24
    5d34:	74 c0       	rjmp	.+232    	; 0x5e1e <Modbus_TCP_Automat+0x24c>
    5d36:	80 91 1c 09 	lds	r24, 0x091C
    5d3a:	90 91 1d 09 	lds	r25, 0x091D
    5d3e:	89 2b       	or	r24, r25
    5d40:	21 f0       	breq	.+8      	; 0x5d4a <Modbus_TCP_Automat+0x178>
    5d42:	89 e0       	ldi	r24, 0x09	; 9
    5d44:	80 93 bd 06 	sts	0x06BD, r24
    5d48:	6a c0       	rjmp	.+212    	; 0x5e1e <Modbus_TCP_Automat+0x24c>
    5d4a:	81 e0       	ldi	r24, 0x01	; 1
    5d4c:	80 93 bd 06 	sts	0x06BD, r24
    5d50:	66 c0       	rjmp	.+204    	; 0x5e1e <Modbus_TCP_Automat+0x24c>
    5d52:	80 91 bc 06 	lds	r24, 0x06BC
    5d56:	0e 94 8e 08 	call	0x111c	; 0x111c <Timer16Stopp>
    5d5a:	88 23       	and	r24, r24
    5d5c:	09 f4       	brne	.+2      	; 0x5d60 <Modbus_TCP_Automat+0x18e>
    5d5e:	3f c0       	rjmp	.+126    	; 0x5dde <Modbus_TCP_Automat+0x20c>
    5d60:	10 92 b8 06 	sts	0x06B8, r1
    5d64:	10 92 b9 06 	sts	0x06B9, r1
    5d68:	10 92 ba 06 	sts	0x06BA, r1
    5d6c:	10 92 bb 06 	sts	0x06BB, r1
    5d70:	88 e0       	ldi	r24, 0x08	; 8
    5d72:	80 93 bd 06 	sts	0x06BD, r24
    5d76:	53 c0       	rjmp	.+166    	; 0x5e1e <Modbus_TCP_Automat+0x24c>
    5d78:	fe da       	rcall	.-2564   	; 0x5376 <Webserver_recv_size>
    5d7a:	90 93 1d 09 	sts	0x091D, r25
    5d7e:	80 93 1c 09 	sts	0x091C, r24
    5d82:	89 2b       	or	r24, r25
    5d84:	21 f0       	breq	.+8      	; 0x5d8e <Modbus_TCP_Automat+0x1bc>
    5d86:	89 e0       	ldi	r24, 0x09	; 9
    5d88:	80 93 bd 06 	sts	0x06BD, r24
    5d8c:	48 c0       	rjmp	.+144    	; 0x5e1e <Modbus_TCP_Automat+0x24c>
    5d8e:	cc db       	rcall	.-2152   	; 0x5528 <WebserverSocket_disconnect>
    5d90:	81 e0       	ldi	r24, 0x01	; 1
    5d92:	80 93 bd 06 	sts	0x06BD, r24
    5d96:	43 c0       	rjmp	.+134    	; 0x5e1e <Modbus_TCP_Automat+0x24c>
    5d98:	10 92 b8 06 	sts	0x06B8, r1
    5d9c:	10 92 b9 06 	sts	0x06B9, r1
    5da0:	10 92 ba 06 	sts	0x06BA, r1
    5da4:	10 92 bb 06 	sts	0x06BB, r1
    5da8:	60 91 1c 09 	lds	r22, 0x091C
    5dac:	70 91 1d 09 	lds	r23, 0x091D
    5db0:	89 e5       	ldi	r24, 0x59	; 89
    5db2:	9e e0       	ldi	r25, 0x0E	; 14
    5db4:	53 db       	rcall	.-2394   	; 0x545c <Webserver_recv>
    5db6:	80 91 60 0e 	lds	r24, 0x0E60
    5dba:	90 e0       	ldi	r25, 0x00	; 0
    5dbc:	e1 de       	rcall	.-574    	; 0x5b80 <SetFC>
    5dbe:	61 dc       	rcall	.-1854   	; 0x5682 <ModbusTCPRun>
    5dc0:	81 e0       	ldi	r24, 0x01	; 1
    5dc2:	80 93 bd 06 	sts	0x06BD, r24
    5dc6:	2b c0       	rjmp	.+86     	; 0x5e1e <Modbus_TCP_Automat+0x24c>
    5dc8:	af db       	rcall	.-2210   	; 0x5528 <WebserverSocket_disconnect>
    5dca:	81 e0       	ldi	r24, 0x01	; 1
    5dcc:	80 93 bd 06 	sts	0x06BD, r24
    5dd0:	26 c0       	rjmp	.+76     	; 0x5e1e <Modbus_TCP_Automat+0x24c>
    5dd2:	aa db       	rcall	.-2220   	; 0x5528 <WebserverSocket_disconnect>
    5dd4:	e4 da       	rcall	.-2616   	; 0x539e <WebserverSocket_close>
    5dd6:	81 e0       	ldi	r24, 0x01	; 1
    5dd8:	80 93 bd 06 	sts	0x06BD, r24
    5ddc:	20 c0       	rjmp	.+64     	; 0x5e1e <Modbus_TCP_Automat+0x24c>
    5dde:	c0 91 bd 06 	lds	r28, 0x06BD
    5de2:	cd 17       	cp	r28, r29
    5de4:	f1 f0       	breq	.+60     	; 0x5e22 <Modbus_TCP_Automat+0x250>
    5de6:	c6 30       	cpi	r28, 0x06	; 6
    5de8:	e1 f4       	brne	.+56     	; 0x5e22 <Modbus_TCP_Automat+0x250>
    5dea:	c5 da       	rcall	.-2678   	; 0x5376 <Webserver_recv_size>
    5dec:	90 93 1d 09 	sts	0x091D, r25
    5df0:	80 93 1c 09 	sts	0x091C, r24
    5df4:	40 91 b8 06 	lds	r20, 0x06B8
    5df8:	50 91 b9 06 	lds	r21, 0x06B9
    5dfc:	60 91 ba 06 	lds	r22, 0x06BA
    5e00:	70 91 bb 06 	lds	r23, 0x06BB
    5e04:	4f 5f       	subi	r20, 0xFF	; 255
    5e06:	5f 4f       	sbci	r21, 0xFF	; 255
    5e08:	6f 4f       	sbci	r22, 0xFF	; 255
    5e0a:	7f 4f       	sbci	r23, 0xFF	; 255
    5e0c:	40 93 b8 06 	sts	0x06B8, r20
    5e10:	50 93 b9 06 	sts	0x06B9, r21
    5e14:	60 93 ba 06 	sts	0x06BA, r22
    5e18:	70 93 bb 06 	sts	0x06BB, r23
    5e1c:	02 c0       	rjmp	.+4      	; 0x5e22 <Modbus_TCP_Automat+0x250>
    5e1e:	c0 91 bd 06 	lds	r28, 0x06BD
    5e22:	8c 2f       	mov	r24, r28
    5e24:	df 91       	pop	r29
    5e26:	cf 91       	pop	r28
    5e28:	08 95       	ret

00005e2a <LED_On>:
    5e2a:	a3 9a       	sbi	0x14, 3	; 20
    5e2c:	08 95       	ret

00005e2e <pduReceived>:
    5e2e:	0f 93       	push	r16
    5e30:	1f 93       	push	r17
    5e32:	cf 93       	push	r28
    5e34:	df 93       	push	r29
    5e36:	cd b7       	in	r28, 0x3d	; 61
    5e38:	de b7       	in	r29, 0x3e	; 62
    5e3a:	c4 59       	subi	r28, 0x94	; 148
    5e3c:	d1 09       	sbc	r29, r1
    5e3e:	0f b6       	in	r0, 0x3f	; 63
    5e40:	f8 94       	cli
    5e42:	de bf       	out	0x3e, r29	; 62
    5e44:	0f be       	out	0x3f, r0	; 63
    5e46:	cd bf       	out	0x3d, r28	; 61
    5e48:	ce 01       	movw	r24, r28
    5e4a:	01 96       	adiw	r24, 0x01	; 1
    5e4c:	0e 94 3b 22 	call	0x4476	; 0x4476 <SNMP_requestPdu>
    5e50:	80 93 11 14 	sts	0x1411, r24
    5e54:	99 81       	ldd	r25, Y+1	; 0x01
    5e56:	20 e6       	ldi	r18, 0x60	; 96
    5e58:	29 0f       	add	r18, r25
    5e5a:	22 30       	cpi	r18, 0x02	; 2
    5e5c:	18 f0       	brcs	.+6      	; 0x5e64 <pduReceived+0x36>
    5e5e:	93 3a       	cpi	r25, 0xA3	; 163
    5e60:	09 f0       	breq	.+2      	; 0x5e64 <pduReceived+0x36>
    5e62:	69 c0       	rjmp	.+210    	; 0x5f36 <pduReceived+0x108>
    5e64:	2a 85       	ldd	r18, Y+10	; 0x0a
    5e66:	21 11       	cpse	r18, r1
    5e68:	66 c0       	rjmp	.+204    	; 0x5f36 <pduReceived+0x108>
    5e6a:	81 11       	cpse	r24, r1
    5e6c:	64 c0       	rjmp	.+200    	; 0x5f36 <pduReceived+0x108>
    5e6e:	88 e2       	ldi	r24, 0x28	; 40
    5e70:	9b e0       	ldi	r25, 0x0B	; 11
    5e72:	9f 93       	push	r25
    5e74:	8f 93       	push	r24
    5e76:	8d b7       	in	r24, 0x3d	; 61
    5e78:	9e b7       	in	r25, 0x3e	; 62
    5e7a:	82 54       	subi	r24, 0x42	; 66
    5e7c:	91 09       	sbc	r25, r1
    5e7e:	0f b6       	in	r0, 0x3f	; 63
    5e80:	f8 94       	cli
    5e82:	9e bf       	out	0x3e, r25	; 62
    5e84:	0f be       	out	0x3f, r0	; 63
    5e86:	8d bf       	out	0x3d, r24	; 61
    5e88:	ad b7       	in	r26, 0x3d	; 61
    5e8a:	be b7       	in	r27, 0x3e	; 62
    5e8c:	11 96       	adiw	r26, 0x01	; 1
    5e8e:	82 e4       	ldi	r24, 0x42	; 66
    5e90:	fe 01       	movw	r30, r28
    5e92:	3f 96       	adiw	r30, 0x0f	; 15
    5e94:	01 90       	ld	r0, Z+
    5e96:	0d 92       	st	X+, r0
    5e98:	8a 95       	dec	r24
    5e9a:	e1 f7       	brne	.-8      	; 0x5e94 <pduReceived+0x66>
    5e9c:	0e 94 27 1d 	call	0x3a4e	; 0x3a4e <SNMP_OID_toString>
    5ea0:	0f b6       	in	r0, 0x3f	; 63
    5ea2:	f8 94       	cli
    5ea4:	de bf       	out	0x3e, r29	; 62
    5ea6:	0f be       	out	0x3f, r0	; 63
    5ea8:	cd bf       	out	0x3d, r28	; 61
    5eaa:	be 01       	movw	r22, r28
    5eac:	6f 5f       	subi	r22, 0xFF	; 255
    5eae:	7f 4f       	sbci	r23, 0xFF	; 255
    5eb0:	88 e2       	ldi	r24, 0x28	; 40
    5eb2:	9b e0       	ldi	r25, 0x0B	; 11
    5eb4:	a7 d9       	rcall	.-3250   	; 0x5204 <SNMP_VARS_Processing>
    5eb6:	81 30       	cpi	r24, 0x01	; 1
    5eb8:	a1 f1       	breq	.+104    	; 0x5f22 <pduReceived+0xf4>
    5eba:	89 81       	ldd	r24, Y+1	; 0x01
    5ebc:	81 3a       	cpi	r24, 0xA1	; 161
    5ebe:	69 f5       	brne	.+90     	; 0x5f1a <pduReceived+0xec>
    5ec0:	88 e2       	ldi	r24, 0x28	; 40
    5ec2:	9b e0       	ldi	r25, 0x0B	; 11
    5ec4:	0e 94 bd 21 	call	0x437a	; 0x437a <GetNextOid>
    5ec8:	99 23       	and	r25, r25
    5eca:	14 f1       	brlt	.+68     	; 0x5f10 <pduReceived+0xe2>
    5ecc:	8c 01       	movw	r16, r24
    5ece:	00 0f       	add	r16, r16
    5ed0:	11 1f       	adc	r17, r17
    5ed2:	00 0f       	add	r16, r16
    5ed4:	11 1f       	adc	r17, r17
    5ed6:	00 0f       	add	r16, r16
    5ed8:	11 1f       	adc	r17, r17
    5eda:	08 1b       	sub	r16, r24
    5edc:	19 0b       	sbc	r17, r25
    5ede:	0c 5f       	subi	r16, 0xFC	; 252
    5ee0:	1d 4f       	sbci	r17, 0xFD	; 253
    5ee2:	f8 01       	movw	r30, r16
    5ee4:	60 81       	ld	r22, Z
    5ee6:	71 81       	ldd	r23, Z+1	; 0x01
    5ee8:	ce 01       	movw	r24, r28
    5eea:	0f 96       	adiw	r24, 0x0f	; 15
    5eec:	0e 94 aa 1d 	call	0x3b54	; 0x3b54 <SNMP_OID_fromString>
    5ef0:	f8 01       	movw	r30, r16
    5ef2:	22 81       	ldd	r18, Z+2	; 0x02
    5ef4:	ae 01       	movw	r20, r28
    5ef6:	4f 5a       	subi	r20, 0xAF	; 175
    5ef8:	5f 4f       	sbci	r21, 0xFF	; 255
    5efa:	65 81       	ldd	r22, Z+5	; 0x05
    5efc:	83 81       	ldd	r24, Z+3	; 0x03
    5efe:	94 81       	ldd	r25, Z+4	; 0x04
    5f00:	0e 94 e2 21 	call	0x43c4	; 0x43c4 <Encode>
    5f04:	80 93 0c 13 	sts	0x130C, r24
    5f08:	92 ea       	ldi	r25, 0xA2	; 162
    5f0a:	99 83       	std	Y+1, r25	; 0x01
    5f0c:	8a 87       	std	Y+10, r24	; 0x0a
    5f0e:	09 c0       	rjmp	.+18     	; 0x5f22 <pduReceived+0xf4>
    5f10:	82 ea       	ldi	r24, 0xA2	; 162
    5f12:	89 83       	std	Y+1, r24	; 0x01
    5f14:	82 e0       	ldi	r24, 0x02	; 2
    5f16:	8a 87       	std	Y+10, r24	; 0x0a
    5f18:	04 c0       	rjmp	.+8      	; 0x5f22 <pduReceived+0xf4>
    5f1a:	82 ea       	ldi	r24, 0xA2	; 162
    5f1c:	89 83       	std	Y+1, r24	; 0x01
    5f1e:	82 e0       	ldi	r24, 0x02	; 2
    5f20:	8a 87       	std	Y+10, r24	; 0x0a
    5f22:	ce 01       	movw	r24, r28
    5f24:	01 96       	adiw	r24, 0x01	; 1
    5f26:	0e 94 2c 25 	call	0x4a58	; 0x4a58 <SNMP_responsePdu>
    5f2a:	80 91 d0 06 	lds	r24, 0x06D0
    5f2e:	8f 5f       	subi	r24, 0xFF	; 255
    5f30:	80 93 d0 06 	sts	0x06D0, r24
    5f34:	10 c0       	rjmp	.+32     	; 0x5f56 <pduReceived+0x128>
    5f36:	95 3a       	cpi	r25, 0xA5	; 165
    5f38:	31 f4       	brne	.+12     	; 0x5f46 <pduReceived+0x118>
    5f3a:	77 df       	rcall	.-274    	; 0x5e2a <LED_On>
    5f3c:	ce 01       	movw	r24, r28
    5f3e:	01 96       	adiw	r24, 0x01	; 1
    5f40:	0e 94 cd 26 	call	0x4d9a	; 0x4d9a <SNMP_responsePduGetBulk>
    5f44:	08 c0       	rjmp	.+16     	; 0x5f56 <pduReceived+0x128>
    5f46:	82 ea       	ldi	r24, 0xA2	; 162
    5f48:	89 83       	std	Y+1, r24	; 0x01
    5f4a:	85 e0       	ldi	r24, 0x05	; 5
    5f4c:	8a 87       	std	Y+10, r24	; 0x0a
    5f4e:	ce 01       	movw	r24, r28
    5f50:	01 96       	adiw	r24, 0x01	; 1
    5f52:	0e 94 2c 25 	call	0x4a58	; 0x4a58 <SNMP_responsePdu>
    5f56:	cc 56       	subi	r28, 0x6C	; 108
    5f58:	df 4f       	sbci	r29, 0xFF	; 255
    5f5a:	0f b6       	in	r0, 0x3f	; 63
    5f5c:	f8 94       	cli
    5f5e:	de bf       	out	0x3e, r29	; 62
    5f60:	0f be       	out	0x3f, r0	; 63
    5f62:	cd bf       	out	0x3d, r28	; 61
    5f64:	df 91       	pop	r29
    5f66:	cf 91       	pop	r28
    5f68:	1f 91       	pop	r17
    5f6a:	0f 91       	pop	r16
    5f6c:	08 95       	ret

00005f6e <SNMP_Automat>:
    5f6e:	cf 93       	push	r28
    5f70:	c0 91 be 06 	lds	r28, 0x06BE
    5f74:	88 23       	and	r24, r24
    5f76:	41 f0       	breq	.+16     	; 0x5f88 <SNMP_Automat+0x1a>
    5f78:	c1 30       	cpi	r28, 0x01	; 1
    5f7a:	61 f0       	breq	.+24     	; 0x5f94 <SNMP_Automat+0x26>
    5f7c:	28 f0       	brcs	.+10     	; 0x5f88 <SNMP_Automat+0x1a>
    5f7e:	c2 30       	cpi	r28, 0x02	; 2
    5f80:	a1 f0       	breq	.+40     	; 0x5faa <SNMP_Automat+0x3c>
    5f82:	c3 30       	cpi	r28, 0x03	; 3
    5f84:	49 f1       	breq	.+82     	; 0x5fd8 <SNMP_Automat+0x6a>
    5f86:	31 c0       	rjmp	.+98     	; 0x5fea <SNMP_Automat+0x7c>
    5f88:	81 e0       	ldi	r24, 0x01	; 1
    5f8a:	80 93 be 06 	sts	0x06BE, r24
    5f8e:	c1 30       	cpi	r28, 0x01	; 1
    5f90:	a9 f5       	brne	.+106    	; 0x5ffc <SNMP_Automat+0x8e>
    5f92:	51 c0       	rjmp	.+162    	; 0x6036 <SNMP_Automat+0xc8>
    5f94:	61 ea       	ldi	r22, 0xA1	; 161
    5f96:	70 e0       	ldi	r23, 0x00	; 0
    5f98:	81 e0       	ldi	r24, 0x01	; 1
    5f9a:	0e 94 43 18 	call	0x3086	; 0x3086 <UDPbegin1_Automat>
    5f9e:	8f 3f       	cpi	r24, 0xFF	; 255
    5fa0:	21 f5       	brne	.+72     	; 0x5fea <SNMP_Automat+0x7c>
    5fa2:	82 e0       	ldi	r24, 0x02	; 2
    5fa4:	80 93 be 06 	sts	0x06BE, r24
    5fa8:	46 c0       	rjmp	.+140    	; 0x6036 <SNMP_Automat+0xc8>
    5faa:	63 e0       	ldi	r22, 0x03	; 3
    5fac:	70 e0       	ldi	r23, 0x00	; 0
    5fae:	81 e0       	ldi	r24, 0x01	; 1
    5fb0:	0e 94 d2 04 	call	0x9a4	; 0x9a4 <readSn>
    5fb4:	82 32       	cpi	r24, 0x22	; 34
    5fb6:	09 f0       	breq	.+2      	; 0x5fba <SNMP_Automat+0x4c>
    5fb8:	b6 d0       	rcall	.+364    	; 0x6126 <resetEthernet>
    5fba:	0e 94 2c 1b 	call	0x3658	; 0x3658 <_UDPtoSerialSocket_parsePacket>
    5fbe:	89 2b       	or	r24, r25
    5fc0:	a1 f0       	breq	.+40     	; 0x5fea <SNMP_Automat+0x7c>
    5fc2:	80 91 0a 0a 	lds	r24, 0x0A0A
    5fc6:	90 91 0b 0a 	lds	r25, 0x0A0B
    5fca:	89 2b       	or	r24, r25
    5fcc:	71 f0       	breq	.+28     	; 0x5fea <SNMP_Automat+0x7c>
    5fce:	2f df       	rcall	.-418    	; 0x5e2e <pduReceived>
    5fd0:	83 e0       	ldi	r24, 0x03	; 3
    5fd2:	80 93 be 06 	sts	0x06BE, r24
    5fd6:	2c c0       	rjmp	.+88     	; 0x6030 <SNMP_Automat+0xc2>
    5fd8:	81 e0       	ldi	r24, 0x01	; 1
    5fda:	0e 94 f2 18 	call	0x31e4	; 0x31e4 <_UDPtoSerialSocket_endPacket_Automat>
    5fde:	8f 3f       	cpi	r24, 0xFF	; 255
    5fe0:	21 f4       	brne	.+8      	; 0x5fea <SNMP_Automat+0x7c>
    5fe2:	82 e0       	ldi	r24, 0x02	; 2
    5fe4:	80 93 be 06 	sts	0x06BE, r24
    5fe8:	26 c0       	rjmp	.+76     	; 0x6036 <SNMP_Automat+0xc8>
    5fea:	80 91 be 06 	lds	r24, 0x06BE
    5fee:	8c 17       	cp	r24, r28
    5ff0:	11 f1       	breq	.+68     	; 0x6036 <SNMP_Automat+0xc8>
    5ff2:	81 30       	cpi	r24, 0x01	; 1
    5ff4:	19 f0       	breq	.+6      	; 0x5ffc <SNMP_Automat+0x8e>
    5ff6:	83 30       	cpi	r24, 0x03	; 3
    5ff8:	d9 f0       	breq	.+54     	; 0x6030 <SNMP_Automat+0xc2>
    5ffa:	1d c0       	rjmp	.+58     	; 0x6036 <SNMP_Automat+0xc8>
    5ffc:	61 ea       	ldi	r22, 0xA1	; 161
    5ffe:	70 e0       	ldi	r23, 0x00	; 0
    6000:	80 e0       	ldi	r24, 0x00	; 0
    6002:	0e 94 43 18 	call	0x3086	; 0x3086 <UDPbegin1_Automat>
    6006:	85 e7       	ldi	r24, 0x75	; 117
    6008:	93 e0       	ldi	r25, 0x03	; 3
    600a:	90 93 1b 09 	sts	0x091B, r25
    600e:	80 93 1a 09 	sts	0x091A, r24
    6012:	90 93 51 0d 	sts	0x0D51, r25
    6016:	80 93 50 0d 	sts	0x0D50, r24
    601a:	86 e0       	ldi	r24, 0x06	; 6
    601c:	90 e0       	ldi	r25, 0x00	; 0
    601e:	90 93 11 0a 	sts	0x0A11, r25
    6022:	80 93 10 0a 	sts	0x0A10, r24
    6026:	90 93 db 09 	sts	0x09DB, r25
    602a:	80 93 da 09 	sts	0x09DA, r24
    602e:	03 c0       	rjmp	.+6      	; 0x6036 <SNMP_Automat+0xc8>
    6030:	80 e0       	ldi	r24, 0x00	; 0
    6032:	0e 94 f2 18 	call	0x31e4	; 0x31e4 <_UDPtoSerialSocket_endPacket_Automat>
    6036:	80 91 be 06 	lds	r24, 0x06BE
    603a:	cf 91       	pop	r28
    603c:	08 95       	ret

0000603e <Ethernet_Automat>:
    603e:	ef 92       	push	r14
    6040:	ff 92       	push	r15
    6042:	0f 93       	push	r16
    6044:	1f 93       	push	r17
    6046:	cf 93       	push	r28
    6048:	c0 91 b7 06 	lds	r28, 0x06B7
    604c:	88 23       	and	r24, r24
    604e:	39 f0       	breq	.+14     	; 0x605e <Ethernet_Automat+0x20>
    6050:	c1 30       	cpi	r28, 0x01	; 1
    6052:	49 f0       	breq	.+18     	; 0x6066 <Ethernet_Automat+0x28>
    6054:	20 f0       	brcs	.+8      	; 0x605e <Ethernet_Automat+0x20>
    6056:	c2 30       	cpi	r28, 0x02	; 2
    6058:	09 f4       	brne	.+2      	; 0x605c <Ethernet_Automat+0x1e>
    605a:	49 c0       	rjmp	.+146    	; 0x60ee <Ethernet_Automat+0xb0>
    605c:	4f c0       	rjmp	.+158    	; 0x60fc <Ethernet_Automat+0xbe>
    605e:	81 e0       	ldi	r24, 0x01	; 1
    6060:	80 93 b7 06 	sts	0x06B7, r24
    6064:	58 c0       	rjmp	.+176    	; 0x6116 <Ethernet_Automat+0xd8>
    6066:	0e 94 99 03 	call	0x732	; 0x732 <W5100_init>
    606a:	68 94       	set
    606c:	ee 24       	eor	r14, r14
    606e:	e1 f8       	bld	r14, 1
    6070:	f1 2c       	mov	r15, r1
    6072:	0e ed       	ldi	r16, 0xDE	; 222
    6074:	10 e0       	ldi	r17, 0x00	; 0
    6076:	2c ec       	ldi	r18, 0xCC	; 204
    6078:	30 e0       	ldi	r19, 0x00	; 0
    607a:	4b eb       	ldi	r20, 0xBB	; 187
    607c:	50 e0       	ldi	r21, 0x00	; 0
    607e:	6a ea       	ldi	r22, 0xAA	; 170
    6080:	70 e0       	ldi	r23, 0x00	; 0
    6082:	80 e0       	ldi	r24, 0x00	; 0
    6084:	90 e0       	ldi	r25, 0x00	; 0
    6086:	0e 94 5a 04 	call	0x8b4	; 0x8b4 <W5100_SetMac>
    608a:	10 92 ce 09 	sts	0x09CE, r1
    608e:	8a ea       	ldi	r24, 0xAA	; 170
    6090:	80 93 cf 09 	sts	0x09CF, r24
    6094:	8b eb       	ldi	r24, 0xBB	; 187
    6096:	80 93 d0 09 	sts	0x09D0, r24
    609a:	8c ec       	ldi	r24, 0xCC	; 204
    609c:	80 93 d1 09 	sts	0x09D1, r24
    60a0:	8e ed       	ldi	r24, 0xDE	; 222
    60a2:	80 93 d2 09 	sts	0x09D2, r24
    60a6:	82 e0       	ldi	r24, 0x02	; 2
    60a8:	80 93 d3 09 	sts	0x09D3, r24
    60ac:	80 91 cb 06 	lds	r24, 0x06CB
    60b0:	81 11       	cpse	r24, r1
    60b2:	0f c0       	rjmp	.+30     	; 0x60d2 <Ethernet_Automat+0x94>
    60b4:	20 91 03 02 	lds	r18, 0x0203
    60b8:	30 e0       	ldi	r19, 0x00	; 0
    60ba:	40 91 02 02 	lds	r20, 0x0202
    60be:	50 e0       	ldi	r21, 0x00	; 0
    60c0:	60 91 01 02 	lds	r22, 0x0201
    60c4:	70 e0       	ldi	r23, 0x00	; 0
    60c6:	80 91 00 02 	lds	r24, 0x0200
    60ca:	90 e0       	ldi	r25, 0x00	; 0
    60cc:	0e 94 81 04 	call	0x902	; 0x902 <W5100_SetIP>
    60d0:	0a c0       	rjmp	.+20     	; 0x60e6 <Ethernet_Automat+0xa8>
    60d2:	20 e0       	ldi	r18, 0x00	; 0
    60d4:	30 e0       	ldi	r19, 0x00	; 0
    60d6:	40 e0       	ldi	r20, 0x00	; 0
    60d8:	50 e0       	ldi	r21, 0x00	; 0
    60da:	60 e0       	ldi	r22, 0x00	; 0
    60dc:	70 e0       	ldi	r23, 0x00	; 0
    60de:	80 e0       	ldi	r24, 0x00	; 0
    60e0:	90 e0       	ldi	r25, 0x00	; 0
    60e2:	0e 94 81 04 	call	0x902	; 0x902 <W5100_SetIP>
    60e6:	82 e0       	ldi	r24, 0x02	; 2
    60e8:	80 93 b7 06 	sts	0x06B7, r24
    60ec:	0d c0       	rjmp	.+26     	; 0x6108 <Ethernet_Automat+0xca>
    60ee:	81 e0       	ldi	r24, 0x01	; 1
    60f0:	3e df       	rcall	.-388    	; 0x5f6e <SNMP_Automat>
    60f2:	81 e0       	ldi	r24, 0x01	; 1
    60f4:	0e 94 0f 1c 	call	0x381e	; 0x381e <TEST_Automat>
    60f8:	81 e0       	ldi	r24, 0x01	; 1
    60fa:	6b dd       	rcall	.-1322   	; 0x5bd2 <Modbus_TCP_Automat>
    60fc:	80 91 b7 06 	lds	r24, 0x06B7
    6100:	8c 17       	cp	r24, r28
    6102:	49 f0       	breq	.+18     	; 0x6116 <Ethernet_Automat+0xd8>
    6104:	82 30       	cpi	r24, 0x02	; 2
    6106:	39 f4       	brne	.+14     	; 0x6116 <Ethernet_Automat+0xd8>
    6108:	80 e0       	ldi	r24, 0x00	; 0
    610a:	31 df       	rcall	.-414    	; 0x5f6e <SNMP_Automat>
    610c:	80 e0       	ldi	r24, 0x00	; 0
    610e:	0e 94 0f 1c 	call	0x381e	; 0x381e <TEST_Automat>
    6112:	80 e0       	ldi	r24, 0x00	; 0
    6114:	5e dd       	rcall	.-1348   	; 0x5bd2 <Modbus_TCP_Automat>
    6116:	80 91 b7 06 	lds	r24, 0x06B7
    611a:	cf 91       	pop	r28
    611c:	1f 91       	pop	r17
    611e:	0f 91       	pop	r16
    6120:	ff 90       	pop	r15
    6122:	ef 90       	pop	r14
    6124:	08 95       	ret

00006126 <resetEthernet>:
    6126:	80 e0       	ldi	r24, 0x00	; 0
    6128:	8a cf       	rjmp	.-236    	; 0x603e <Ethernet_Automat>
    612a:	08 95       	ret

0000612c <LED_Cycle>:
}

void LED_Cycle(){
static uint8_t state = 0;
	if(Timer16Stopp(LED_Timer)){
    612c:	80 91 43 0a 	lds	r24, 0x0A43
    6130:	0e 94 8e 08 	call	0x111c	; 0x111c <Timer16Stopp>
    6134:	88 23       	and	r24, r24
    6136:	91 f0       	breq	.+36     	; 0x615c <LED_Cycle+0x30>
		StartTimer16(LED_Timer,100);
    6138:	64 e6       	ldi	r22, 0x64	; 100
    613a:	70 e0       	ldi	r23, 0x00	; 0
    613c:	80 91 43 0a 	lds	r24, 0x0A43
    6140:	0e 94 e2 06 	call	0xdc4	; 0xdc4 <StartTimer16>
		if(state == 0){
    6144:	80 91 b6 06 	lds	r24, 0x06B6
    6148:	81 11       	cpse	r24, r1
    614a:	05 c0       	rjmp	.+10     	; 0x6156 <LED_Cycle+0x2a>
				PORTB|=1<<PB7;
    614c:	2f 9a       	sbi	0x05, 7	; 5
				//PORTG&=~(1<<PG3);
				state = 1;
    614e:	81 e0       	ldi	r24, 0x01	; 1
    6150:	80 93 b6 06 	sts	0x06B6, r24
    6154:	08 95       	ret
		}
		else{
				PORTB&=~(1<<PB7);
    6156:	2f 98       	cbi	0x05, 7	; 5
				//PORTG|=1<<PG3;
				state = 0;
    6158:	10 92 b6 06 	sts	0x06B6, r1
    615c:	08 95       	ret

0000615e <sysInit>:
	}
};

void sysInit(){
	//  
	DDRB|=1<<PB7;
    615e:	27 9a       	sbi	0x04, 7	; 4
	DDRG|=1<<PG3;
    6160:	9b 9a       	sbi	0x13, 3	; 19
	// SPI
	SPCR |=(1<<SPE)|(1<<MSTR);
    6162:	8c b5       	in	r24, 0x2c	; 44
    6164:	80 65       	ori	r24, 0x50	; 80
    6166:	8c bd       	out	0x2c, r24	; 44
	SPSR = (0<<SPI2X);
    6168:	1d bc       	out	0x2d, r1	; 45
	SPI_DDR|=1<<SCK_PIN;
    616a:	21 9a       	sbi	0x04, 1	; 4
	SPI_DDR|=1<<MOSI_PIN;
    616c:	22 9a       	sbi	0x04, 2	; 4
	SPI_DDR&=~(1<<MISO_PIN);
    616e:	23 98       	cbi	0x04, 3	; 4
	SPI_DDR|=1<<SS_PIN;
    6170:	20 9a       	sbi	0x04, 0	; 4
	SPI_PORT|=1<<SS_PIN;
    6172:	28 9a       	sbi	0x05, 0	; 5
	TimeInit();
    6174:	0e 94 b5 08 	call	0x116a	; 0x116a <TimeInit>
	myMillisTimer = Timer32Alloc();
    6178:	0e 94 a3 06 	call	0xd46	; 0xd46 <Timer32Alloc>
    617c:	80 93 07 0a 	sts	0x0A07, r24
	StartTimer32(myMillisTimer,1000000);
    6180:	40 e4       	ldi	r20, 0x40	; 64
    6182:	52 e4       	ldi	r21, 0x42	; 66
    6184:	6f e0       	ldi	r22, 0x0F	; 15
    6186:	70 e0       	ldi	r23, 0x00	; 0
    6188:	0e 94 46 08 	call	0x108c	; 0x108c <StartTimer32>
	TimersInc();
    618c:	0e 94 58 09 	call	0x12b0	; 0x12b0 <TimersInc>

// ~~~~~~~~~~~~~
void
USART_Init(void)
{
	MB_Init();
    6190:	0c 94 cb 12 	jmp	0x2596	; 0x2596 <MB_Init>
    6194:	08 95       	ret

00006196 <sysCycle>:
	#ifdef MODBUS
		USART_Init();
	#endif
}
void sysCycle(){
	TimersInc();
    6196:	0e 94 58 09 	call	0x12b0	; 0x12b0 <TimersInc>
	TimeCycle();
    619a:	0c 94 3e 0a 	jmp	0x147c	; 0x147c <TimeCycle>
    619e:	08 95       	ret

000061a0 <main>:
}


int main(void)
{
	sysInit();
    61a0:	de df       	rcall	.-68     	; 0x615e <sysInit>
	TimeCycle();
    61a2:	0e 94 3e 0a 	call	0x147c	; 0x147c <TimeCycle>
    W5100_init();
    61a6:	0e 94 99 03 	call	0x732	; 0x732 <W5100_init>
	TimeCycle();
    61aa:	0e 94 3e 0a 	call	0x147c	; 0x147c <TimeCycle>
	Ethernet_Automat(0);
    61ae:	80 e0       	ldi	r24, 0x00	; 0
    61b0:	46 df       	rcall	.-372    	; 0x603e <Ethernet_Automat>
    while (1) 
    {
		//_delay_ms(100);
		sysCycle();
    61b2:	f1 df       	rcall	.-30     	; 0x6196 <sysCycle>
		LED_Cycle();
    61b4:	bb df       	rcall	.-138    	; 0x612c <LED_Cycle>
		Ethernet_Automat(1);
    61b6:	81 e0       	ldi	r24, 0x01	; 1
    61b8:	42 df       	rcall	.-380    	; 0x603e <Ethernet_Automat>
		#ifdef LOGGING
		SerialCycle();
		#endif
		#ifdef MODBUS
		USART_Cycle();
    61ba:	0e 94 47 17 	call	0x2e8e	; 0x2e8e <USART_Cycle>
    61be:	f9 cf       	rjmp	.-14     	; 0x61b2 <main+0x12>

000061c0 <__tablejump2__>:
    61c0:	ee 0f       	add	r30, r30
    61c2:	ff 1f       	adc	r31, r31

000061c4 <__tablejump__>:
    61c4:	05 90       	lpm	r0, Z+
    61c6:	f4 91       	lpm	r31, Z
    61c8:	e0 2d       	mov	r30, r0
    61ca:	19 94       	eijmp

000061cc <atoi>:
    61cc:	fc 01       	movw	r30, r24
    61ce:	88 27       	eor	r24, r24
    61d0:	99 27       	eor	r25, r25
    61d2:	e8 94       	clt
    61d4:	21 91       	ld	r18, Z+
    61d6:	20 32       	cpi	r18, 0x20	; 32
    61d8:	e9 f3       	breq	.-6      	; 0x61d4 <atoi+0x8>
    61da:	29 30       	cpi	r18, 0x09	; 9
    61dc:	10 f0       	brcs	.+4      	; 0x61e2 <atoi+0x16>
    61de:	2e 30       	cpi	r18, 0x0E	; 14
    61e0:	c8 f3       	brcs	.-14     	; 0x61d4 <atoi+0x8>
    61e2:	2b 32       	cpi	r18, 0x2B	; 43
    61e4:	39 f0       	breq	.+14     	; 0x61f4 <atoi+0x28>
    61e6:	2d 32       	cpi	r18, 0x2D	; 45
    61e8:	31 f4       	brne	.+12     	; 0x61f6 <atoi+0x2a>
    61ea:	68 94       	set
    61ec:	03 c0       	rjmp	.+6      	; 0x61f4 <atoi+0x28>
    61ee:	5a d0       	rcall	.+180    	; 0x62a4 <__mulhi_const_10>
    61f0:	82 0f       	add	r24, r18
    61f2:	91 1d       	adc	r25, r1
    61f4:	21 91       	ld	r18, Z+
    61f6:	20 53       	subi	r18, 0x30	; 48
    61f8:	2a 30       	cpi	r18, 0x0A	; 10
    61fa:	c8 f3       	brcs	.-14     	; 0x61ee <atoi+0x22>
    61fc:	1e f4       	brtc	.+6      	; 0x6204 <atoi+0x38>
    61fe:	90 95       	com	r25
    6200:	81 95       	neg	r24
    6202:	9f 4f       	sbci	r25, 0xFF	; 255
    6204:	08 95       	ret

00006206 <atol>:
    6206:	1f 93       	push	r17
    6208:	fc 01       	movw	r30, r24
    620a:	99 27       	eor	r25, r25
    620c:	88 27       	eor	r24, r24
    620e:	bc 01       	movw	r22, r24
    6210:	e8 94       	clt
    6212:	11 91       	ld	r17, Z+
    6214:	10 32       	cpi	r17, 0x20	; 32
    6216:	e9 f3       	breq	.-6      	; 0x6212 <atol+0xc>
    6218:	19 30       	cpi	r17, 0x09	; 9
    621a:	10 f0       	brcs	.+4      	; 0x6220 <atol+0x1a>
    621c:	1e 30       	cpi	r17, 0x0E	; 14
    621e:	c8 f3       	brcs	.-14     	; 0x6212 <atol+0xc>
    6220:	1b 32       	cpi	r17, 0x2B	; 43
    6222:	49 f0       	breq	.+18     	; 0x6236 <atol+0x30>
    6224:	1d 32       	cpi	r17, 0x2D	; 45
    6226:	41 f4       	brne	.+16     	; 0x6238 <atol+0x32>
    6228:	68 94       	set
    622a:	05 c0       	rjmp	.+10     	; 0x6236 <atol+0x30>
    622c:	26 d0       	rcall	.+76     	; 0x627a <__mulsi_const_10>
    622e:	61 0f       	add	r22, r17
    6230:	71 1d       	adc	r23, r1
    6232:	81 1d       	adc	r24, r1
    6234:	91 1d       	adc	r25, r1
    6236:	11 91       	ld	r17, Z+
    6238:	10 53       	subi	r17, 0x30	; 48
    623a:	1a 30       	cpi	r17, 0x0A	; 10
    623c:	b8 f3       	brcs	.-18     	; 0x622c <atol+0x26>
    623e:	3e f4       	brtc	.+14     	; 0x624e <atol+0x48>
    6240:	90 95       	com	r25
    6242:	80 95       	com	r24
    6244:	70 95       	com	r23
    6246:	61 95       	neg	r22
    6248:	7f 4f       	sbci	r23, 0xFF	; 255
    624a:	8f 4f       	sbci	r24, 0xFF	; 255
    624c:	9f 4f       	sbci	r25, 0xFF	; 255
    624e:	1f 91       	pop	r17
    6250:	08 95       	ret

00006252 <strcat>:
    6252:	fb 01       	movw	r30, r22
    6254:	dc 01       	movw	r26, r24
    6256:	0d 90       	ld	r0, X+
    6258:	00 20       	and	r0, r0
    625a:	e9 f7       	brne	.-6      	; 0x6256 <strcat+0x4>
    625c:	11 97       	sbiw	r26, 0x01	; 1
    625e:	01 90       	ld	r0, Z+
    6260:	0d 92       	st	X+, r0
    6262:	00 20       	and	r0, r0
    6264:	e1 f7       	brne	.-8      	; 0x625e <strcat+0xc>
    6266:	08 95       	ret

00006268 <strcmp>:
    6268:	fb 01       	movw	r30, r22
    626a:	dc 01       	movw	r26, r24
    626c:	8d 91       	ld	r24, X+
    626e:	01 90       	ld	r0, Z+
    6270:	80 19       	sub	r24, r0
    6272:	01 10       	cpse	r0, r1
    6274:	d9 f3       	breq	.-10     	; 0x626c <strcmp+0x4>
    6276:	99 0b       	sbc	r25, r25
    6278:	08 95       	ret

0000627a <__mulsi_const_10>:
    627a:	59 2f       	mov	r21, r25
    627c:	48 2f       	mov	r20, r24
    627e:	37 2f       	mov	r19, r23
    6280:	26 2f       	mov	r18, r22
    6282:	66 0f       	add	r22, r22
    6284:	77 1f       	adc	r23, r23
    6286:	88 1f       	adc	r24, r24
    6288:	99 1f       	adc	r25, r25
    628a:	66 0f       	add	r22, r22
    628c:	77 1f       	adc	r23, r23
    628e:	88 1f       	adc	r24, r24
    6290:	99 1f       	adc	r25, r25
    6292:	62 0f       	add	r22, r18
    6294:	73 1f       	adc	r23, r19
    6296:	84 1f       	adc	r24, r20
    6298:	95 1f       	adc	r25, r21
    629a:	66 0f       	add	r22, r22
    629c:	77 1f       	adc	r23, r23
    629e:	88 1f       	adc	r24, r24
    62a0:	99 1f       	adc	r25, r25
    62a2:	08 95       	ret

000062a4 <__mulhi_const_10>:
    62a4:	7a e0       	ldi	r23, 0x0A	; 10
    62a6:	97 9f       	mul	r25, r23
    62a8:	90 2d       	mov	r25, r0
    62aa:	87 9f       	mul	r24, r23
    62ac:	80 2d       	mov	r24, r0
    62ae:	91 0d       	add	r25, r1
    62b0:	11 24       	eor	r1, r1
    62b2:	08 95       	ret

000062b4 <__utoa_ncheck>:
    62b4:	bb 27       	eor	r27, r27

000062b6 <__utoa_common>:
    62b6:	fb 01       	movw	r30, r22
    62b8:	55 27       	eor	r21, r21
    62ba:	aa 27       	eor	r26, r26
    62bc:	88 0f       	add	r24, r24
    62be:	99 1f       	adc	r25, r25
    62c0:	aa 1f       	adc	r26, r26
    62c2:	a4 17       	cp	r26, r20
    62c4:	10 f0       	brcs	.+4      	; 0x62ca <__utoa_common+0x14>
    62c6:	a4 1b       	sub	r26, r20
    62c8:	83 95       	inc	r24
    62ca:	50 51       	subi	r21, 0x10	; 16
    62cc:	b9 f7       	brne	.-18     	; 0x62bc <__utoa_common+0x6>
    62ce:	a0 5d       	subi	r26, 0xD0	; 208
    62d0:	aa 33       	cpi	r26, 0x3A	; 58
    62d2:	08 f0       	brcs	.+2      	; 0x62d6 <__utoa_common+0x20>
    62d4:	a9 5d       	subi	r26, 0xD9	; 217
    62d6:	a1 93       	st	Z+, r26
    62d8:	00 97       	sbiw	r24, 0x00	; 0
    62da:	79 f7       	brne	.-34     	; 0x62ba <__utoa_common+0x4>
    62dc:	b1 11       	cpse	r27, r1
    62de:	b1 93       	st	Z+, r27
    62e0:	11 92       	st	Z+, r1
    62e2:	cb 01       	movw	r24, r22
    62e4:	1b c3       	rjmp	.+1590   	; 0x691c <strrev>

000062e6 <sscanf>:
    62e6:	cf 93       	push	r28
    62e8:	df 93       	push	r29
    62ea:	cd b7       	in	r28, 0x3d	; 61
    62ec:	de b7       	in	r29, 0x3e	; 62
    62ee:	2e 97       	sbiw	r28, 0x0e	; 14
    62f0:	0f b6       	in	r0, 0x3f	; 63
    62f2:	f8 94       	cli
    62f4:	de bf       	out	0x3e, r29	; 62
    62f6:	0f be       	out	0x3f, r0	; 63
    62f8:	cd bf       	out	0x3d, r28	; 61
    62fa:	85 e0       	ldi	r24, 0x05	; 5
    62fc:	8c 83       	std	Y+4, r24	; 0x04
    62fe:	8c 89       	ldd	r24, Y+20	; 0x14
    6300:	9d 89       	ldd	r25, Y+21	; 0x15
    6302:	9a 83       	std	Y+2, r25	; 0x02
    6304:	89 83       	std	Y+1, r24	; 0x01
    6306:	ae 01       	movw	r20, r28
    6308:	48 5e       	subi	r20, 0xE8	; 232
    630a:	5f 4f       	sbci	r21, 0xFF	; 255
    630c:	6e 89       	ldd	r22, Y+22	; 0x16
    630e:	7f 89       	ldd	r23, Y+23	; 0x17
    6310:	ce 01       	movw	r24, r28
    6312:	01 96       	adiw	r24, 0x01	; 1
    6314:	99 d1       	rcall	.+818    	; 0x6648 <vfscanf>
    6316:	2e 96       	adiw	r28, 0x0e	; 14
    6318:	0f b6       	in	r0, 0x3f	; 63
    631a:	f8 94       	cli
    631c:	de bf       	out	0x3e, r29	; 62
    631e:	0f be       	out	0x3f, r0	; 63
    6320:	cd bf       	out	0x3d, r28	; 61
    6322:	df 91       	pop	r29
    6324:	cf 91       	pop	r28
    6326:	08 95       	ret

00006328 <putval>:
    6328:	20 fd       	sbrc	r18, 0
    632a:	09 c0       	rjmp	.+18     	; 0x633e <putval+0x16>
    632c:	fc 01       	movw	r30, r24
    632e:	23 fd       	sbrc	r18, 3
    6330:	05 c0       	rjmp	.+10     	; 0x633c <putval+0x14>
    6332:	22 ff       	sbrs	r18, 2
    6334:	02 c0       	rjmp	.+4      	; 0x633a <putval+0x12>
    6336:	73 83       	std	Z+3, r23	; 0x03
    6338:	62 83       	std	Z+2, r22	; 0x02
    633a:	51 83       	std	Z+1, r21	; 0x01
    633c:	40 83       	st	Z, r20
    633e:	08 95       	ret

00006340 <mulacc>:
    6340:	44 fd       	sbrc	r20, 4
    6342:	10 c0       	rjmp	.+32     	; 0x6364 <mulacc+0x24>
    6344:	46 fd       	sbrc	r20, 6
    6346:	10 c0       	rjmp	.+32     	; 0x6368 <mulacc+0x28>
    6348:	db 01       	movw	r26, r22
    634a:	fc 01       	movw	r30, r24
    634c:	aa 0f       	add	r26, r26
    634e:	bb 1f       	adc	r27, r27
    6350:	ee 1f       	adc	r30, r30
    6352:	ff 1f       	adc	r31, r31
    6354:	10 94       	com	r1
    6356:	d1 f7       	brne	.-12     	; 0x634c <mulacc+0xc>
    6358:	6a 0f       	add	r22, r26
    635a:	7b 1f       	adc	r23, r27
    635c:	8e 1f       	adc	r24, r30
    635e:	9f 1f       	adc	r25, r31
    6360:	31 e0       	ldi	r19, 0x01	; 1
    6362:	03 c0       	rjmp	.+6      	; 0x636a <mulacc+0x2a>
    6364:	33 e0       	ldi	r19, 0x03	; 3
    6366:	01 c0       	rjmp	.+2      	; 0x636a <mulacc+0x2a>
    6368:	34 e0       	ldi	r19, 0x04	; 4
    636a:	66 0f       	add	r22, r22
    636c:	77 1f       	adc	r23, r23
    636e:	88 1f       	adc	r24, r24
    6370:	99 1f       	adc	r25, r25
    6372:	31 50       	subi	r19, 0x01	; 1
    6374:	d1 f7       	brne	.-12     	; 0x636a <mulacc+0x2a>
    6376:	62 0f       	add	r22, r18
    6378:	71 1d       	adc	r23, r1
    637a:	81 1d       	adc	r24, r1
    637c:	91 1d       	adc	r25, r1
    637e:	08 95       	ret

00006380 <skip_spaces>:
    6380:	0f 93       	push	r16
    6382:	1f 93       	push	r17
    6384:	cf 93       	push	r28
    6386:	df 93       	push	r29
    6388:	8c 01       	movw	r16, r24
    638a:	c8 01       	movw	r24, r16
    638c:	d7 d2       	rcall	.+1454   	; 0x693c <fgetc>
    638e:	ec 01       	movw	r28, r24
    6390:	97 fd       	sbrc	r25, 7
    6392:	06 c0       	rjmp	.+12     	; 0x63a0 <skip_spaces+0x20>
    6394:	b0 d2       	rcall	.+1376   	; 0x68f6 <isspace>
    6396:	89 2b       	or	r24, r25
    6398:	c1 f7       	brne	.-16     	; 0x638a <skip_spaces+0xa>
    639a:	b8 01       	movw	r22, r16
    639c:	ce 01       	movw	r24, r28
    639e:	0c d3       	rcall	.+1560   	; 0x69b8 <ungetc>
    63a0:	ce 01       	movw	r24, r28
    63a2:	df 91       	pop	r29
    63a4:	cf 91       	pop	r28
    63a6:	1f 91       	pop	r17
    63a8:	0f 91       	pop	r16
    63aa:	08 95       	ret

000063ac <conv_int>:
    63ac:	8f 92       	push	r8
    63ae:	9f 92       	push	r9
    63b0:	af 92       	push	r10
    63b2:	cf 92       	push	r12
    63b4:	df 92       	push	r13
    63b6:	ef 92       	push	r14
    63b8:	ff 92       	push	r15
    63ba:	0f 93       	push	r16
    63bc:	1f 93       	push	r17
    63be:	cf 93       	push	r28
    63c0:	df 93       	push	r29
    63c2:	ec 01       	movw	r28, r24
    63c4:	a6 2e       	mov	r10, r22
    63c6:	4a 01       	movw	r8, r20
    63c8:	02 2f       	mov	r16, r18
    63ca:	b8 d2       	rcall	.+1392   	; 0x693c <fgetc>
    63cc:	ac 01       	movw	r20, r24
    63ce:	55 27       	eor	r21, r21
    63d0:	4b 32       	cpi	r20, 0x2B	; 43
    63d2:	51 05       	cpc	r21, r1
    63d4:	21 f0       	breq	.+8      	; 0x63de <conv_int+0x32>
    63d6:	4d 32       	cpi	r20, 0x2D	; 45
    63d8:	51 05       	cpc	r21, r1
    63da:	49 f4       	brne	.+18     	; 0x63ee <conv_int+0x42>
    63dc:	00 68       	ori	r16, 0x80	; 128
    63de:	aa 94       	dec	r10
    63e0:	11 f4       	brne	.+4      	; 0x63e6 <conv_int+0x3a>
    63e2:	80 e0       	ldi	r24, 0x00	; 0
    63e4:	60 c0       	rjmp	.+192    	; 0x64a6 <conv_int+0xfa>
    63e6:	ce 01       	movw	r24, r28
    63e8:	a9 d2       	rcall	.+1362   	; 0x693c <fgetc>
    63ea:	97 fd       	sbrc	r25, 7
    63ec:	fa cf       	rjmp	.-12     	; 0x63e2 <conv_int+0x36>
    63ee:	10 2f       	mov	r17, r16
    63f0:	1d 7f       	andi	r17, 0xFD	; 253
    63f2:	30 2f       	mov	r19, r16
    63f4:	30 73       	andi	r19, 0x30	; 48
    63f6:	f1 f4       	brne	.+60     	; 0x6434 <conv_int+0x88>
    63f8:	80 33       	cpi	r24, 0x30	; 48
    63fa:	e1 f4       	brne	.+56     	; 0x6434 <conv_int+0x88>
    63fc:	ff 24       	eor	r15, r15
    63fe:	fa 94       	dec	r15
    6400:	fa 0c       	add	r15, r10
    6402:	09 f4       	brne	.+2      	; 0x6406 <conv_int+0x5a>
    6404:	3d c0       	rjmp	.+122    	; 0x6480 <conv_int+0xd4>
    6406:	ce 01       	movw	r24, r28
    6408:	99 d2       	rcall	.+1330   	; 0x693c <fgetc>
    640a:	97 fd       	sbrc	r25, 7
    640c:	39 c0       	rjmp	.+114    	; 0x6480 <conv_int+0xd4>
    640e:	38 2f       	mov	r19, r24
    6410:	3f 7d       	andi	r19, 0xDF	; 223
    6412:	38 35       	cpi	r19, 0x58	; 88
    6414:	49 f4       	brne	.+18     	; 0x6428 <conv_int+0x7c>
    6416:	12 64       	ori	r17, 0x42	; 66
    6418:	aa 94       	dec	r10
    641a:	aa 94       	dec	r10
    641c:	89 f1       	breq	.+98     	; 0x6480 <conv_int+0xd4>
    641e:	ce 01       	movw	r24, r28
    6420:	8d d2       	rcall	.+1306   	; 0x693c <fgetc>
    6422:	97 ff       	sbrs	r25, 7
    6424:	07 c0       	rjmp	.+14     	; 0x6434 <conv_int+0x88>
    6426:	2c c0       	rjmp	.+88     	; 0x6480 <conv_int+0xd4>
    6428:	06 ff       	sbrs	r16, 6
    642a:	02 c0       	rjmp	.+4      	; 0x6430 <conv_int+0x84>
    642c:	12 60       	ori	r17, 0x02	; 2
    642e:	01 c0       	rjmp	.+2      	; 0x6432 <conv_int+0x86>
    6430:	12 61       	ori	r17, 0x12	; 18
    6432:	af 2c       	mov	r10, r15
    6434:	c1 2c       	mov	r12, r1
    6436:	d1 2c       	mov	r13, r1
    6438:	76 01       	movw	r14, r12
    643a:	20 ed       	ldi	r18, 0xD0	; 208
    643c:	28 0f       	add	r18, r24
    643e:	28 30       	cpi	r18, 0x08	; 8
    6440:	78 f0       	brcs	.+30     	; 0x6460 <conv_int+0xb4>
    6442:	14 ff       	sbrs	r17, 4
    6444:	03 c0       	rjmp	.+6      	; 0x644c <conv_int+0xa0>
    6446:	be 01       	movw	r22, r28
    6448:	b7 d2       	rcall	.+1390   	; 0x69b8 <ungetc>
    644a:	17 c0       	rjmp	.+46     	; 0x647a <conv_int+0xce>
    644c:	2a 30       	cpi	r18, 0x0A	; 10
    644e:	40 f0       	brcs	.+16     	; 0x6460 <conv_int+0xb4>
    6450:	16 ff       	sbrs	r17, 6
    6452:	f9 cf       	rjmp	.-14     	; 0x6446 <conv_int+0x9a>
    6454:	2f 7d       	andi	r18, 0xDF	; 223
    6456:	3f ee       	ldi	r19, 0xEF	; 239
    6458:	32 0f       	add	r19, r18
    645a:	36 30       	cpi	r19, 0x06	; 6
    645c:	a0 f7       	brcc	.-24     	; 0x6446 <conv_int+0x9a>
    645e:	27 50       	subi	r18, 0x07	; 7
    6460:	41 2f       	mov	r20, r17
    6462:	c7 01       	movw	r24, r14
    6464:	b6 01       	movw	r22, r12
    6466:	6c df       	rcall	.-296    	; 0x6340 <mulacc>
    6468:	6b 01       	movw	r12, r22
    646a:	7c 01       	movw	r14, r24
    646c:	12 60       	ori	r17, 0x02	; 2
    646e:	aa 94       	dec	r10
    6470:	51 f0       	breq	.+20     	; 0x6486 <conv_int+0xda>
    6472:	ce 01       	movw	r24, r28
    6474:	63 d2       	rcall	.+1222   	; 0x693c <fgetc>
    6476:	97 ff       	sbrs	r25, 7
    6478:	e0 cf       	rjmp	.-64     	; 0x643a <conv_int+0x8e>
    647a:	11 fd       	sbrc	r17, 1
    647c:	04 c0       	rjmp	.+8      	; 0x6486 <conv_int+0xda>
    647e:	b1 cf       	rjmp	.-158    	; 0x63e2 <conv_int+0x36>
    6480:	c1 2c       	mov	r12, r1
    6482:	d1 2c       	mov	r13, r1
    6484:	76 01       	movw	r14, r12
    6486:	17 ff       	sbrs	r17, 7
    6488:	08 c0       	rjmp	.+16     	; 0x649a <conv_int+0xee>
    648a:	f0 94       	com	r15
    648c:	e0 94       	com	r14
    648e:	d0 94       	com	r13
    6490:	c0 94       	com	r12
    6492:	c1 1c       	adc	r12, r1
    6494:	d1 1c       	adc	r13, r1
    6496:	e1 1c       	adc	r14, r1
    6498:	f1 1c       	adc	r15, r1
    649a:	21 2f       	mov	r18, r17
    649c:	b7 01       	movw	r22, r14
    649e:	a6 01       	movw	r20, r12
    64a0:	c4 01       	movw	r24, r8
    64a2:	42 df       	rcall	.-380    	; 0x6328 <putval>
    64a4:	81 e0       	ldi	r24, 0x01	; 1
    64a6:	df 91       	pop	r29
    64a8:	cf 91       	pop	r28
    64aa:	1f 91       	pop	r17
    64ac:	0f 91       	pop	r16
    64ae:	ff 90       	pop	r15
    64b0:	ef 90       	pop	r14
    64b2:	df 90       	pop	r13
    64b4:	cf 90       	pop	r12
    64b6:	af 90       	pop	r10
    64b8:	9f 90       	pop	r9
    64ba:	8f 90       	pop	r8
    64bc:	08 95       	ret

000064be <conv_brk>:
    64be:	7f 92       	push	r7
    64c0:	8f 92       	push	r8
    64c2:	9f 92       	push	r9
    64c4:	af 92       	push	r10
    64c6:	bf 92       	push	r11
    64c8:	cf 92       	push	r12
    64ca:	df 92       	push	r13
    64cc:	ef 92       	push	r14
    64ce:	ff 92       	push	r15
    64d0:	0f 93       	push	r16
    64d2:	1f 93       	push	r17
    64d4:	cf 93       	push	r28
    64d6:	df 93       	push	r29
    64d8:	cd b7       	in	r28, 0x3d	; 61
    64da:	de b7       	in	r29, 0x3e	; 62
    64dc:	a1 97       	sbiw	r28, 0x21	; 33
    64de:	0f b6       	in	r0, 0x3f	; 63
    64e0:	f8 94       	cli
    64e2:	de bf       	out	0x3e, r29	; 62
    64e4:	0f be       	out	0x3f, r0	; 63
    64e6:	cd bf       	out	0x3d, r28	; 61
    64e8:	5c 01       	movw	r10, r24
    64ea:	7a 01       	movw	r14, r20
    64ec:	8e 01       	movw	r16, r28
    64ee:	0f 5f       	subi	r16, 0xFF	; 255
    64f0:	1f 4f       	sbci	r17, 0xFF	; 255
    64f2:	68 01       	movw	r12, r16
    64f4:	80 e2       	ldi	r24, 0x20	; 32
    64f6:	d8 01       	movw	r26, r16
    64f8:	1d 92       	st	X+, r1
    64fa:	8a 95       	dec	r24
    64fc:	e9 f7       	brne	.-6      	; 0x64f8 <conv_brk+0x3a>
    64fe:	f5 01       	movw	r30, r10
    6500:	73 80       	ldd	r7, Z+3	; 0x03
    6502:	40 e0       	ldi	r20, 0x00	; 0
    6504:	50 e0       	ldi	r21, 0x00	; 0
    6506:	81 2c       	mov	r8, r1
    6508:	b0 e0       	ldi	r27, 0x00	; 0
    650a:	91 2c       	mov	r9, r1
    650c:	81 e0       	ldi	r24, 0x01	; 1
    650e:	90 e0       	ldi	r25, 0x00	; 0
    6510:	f9 01       	movw	r30, r18
    6512:	73 fc       	sbrc	r7, 3
    6514:	a5 91       	lpm	r26, Z+
    6516:	73 fe       	sbrs	r7, 3
    6518:	a1 91       	ld	r26, Z+
    651a:	8f 01       	movw	r16, r30
    651c:	7a 2f       	mov	r23, r26
    651e:	9f 01       	movw	r18, r30
    6520:	a1 11       	cpse	r26, r1
    6522:	03 c0       	rjmp	.+6      	; 0x652a <conv_brk+0x6c>
    6524:	80 e0       	ldi	r24, 0x00	; 0
    6526:	90 e0       	ldi	r25, 0x00	; 0
    6528:	7b c0       	rjmp	.+246    	; 0x6620 <conv_brk+0x162>
    652a:	ae 35       	cpi	r26, 0x5E	; 94
    652c:	19 f4       	brne	.+6      	; 0x6534 <conv_brk+0x76>
    652e:	41 15       	cp	r20, r1
    6530:	51 05       	cpc	r21, r1
    6532:	59 f1       	breq	.+86     	; 0x658a <conv_brk+0xcc>
    6534:	e9 2d       	mov	r30, r9
    6536:	f0 e0       	ldi	r31, 0x00	; 0
    6538:	e4 17       	cp	r30, r20
    653a:	f5 07       	cpc	r31, r21
    653c:	3c f4       	brge	.+14     	; 0x654c <conv_brk+0x8e>
    653e:	ad 35       	cpi	r26, 0x5D	; 93
    6540:	69 f1       	breq	.+90     	; 0x659c <conv_brk+0xde>
    6542:	ad 32       	cpi	r26, 0x2D	; 45
    6544:	19 f4       	brne	.+6      	; 0x654c <conv_brk+0x8e>
    6546:	bb 23       	and	r27, r27
    6548:	19 f1       	breq	.+70     	; 0x6590 <conv_brk+0xd2>
    654a:	03 c0       	rjmp	.+6      	; 0x6552 <conv_brk+0x94>
    654c:	b1 11       	cpse	r27, r1
    654e:	01 c0       	rjmp	.+2      	; 0x6552 <conv_brk+0x94>
    6550:	8a 2e       	mov	r8, r26
    6552:	e7 2f       	mov	r30, r23
    6554:	e6 95       	lsr	r30
    6556:	e6 95       	lsr	r30
    6558:	e6 95       	lsr	r30
    655a:	86 01       	movw	r16, r12
    655c:	0e 0f       	add	r16, r30
    655e:	11 1d       	adc	r17, r1
    6560:	f8 01       	movw	r30, r16
    6562:	a7 2f       	mov	r26, r23
    6564:	a7 70       	andi	r26, 0x07	; 7
    6566:	8c 01       	movw	r16, r24
    6568:	02 c0       	rjmp	.+4      	; 0x656e <conv_brk+0xb0>
    656a:	00 0f       	add	r16, r16
    656c:	11 1f       	adc	r17, r17
    656e:	aa 95       	dec	r26
    6570:	e2 f7       	brpl	.-8      	; 0x656a <conv_brk+0xac>
    6572:	d8 01       	movw	r26, r16
    6574:	b0 81       	ld	r27, Z
    6576:	ba 2b       	or	r27, r26
    6578:	b0 83       	st	Z, r27
    657a:	78 15       	cp	r23, r8
    657c:	59 f0       	breq	.+22     	; 0x6594 <conv_brk+0xd6>
    657e:	78 15       	cp	r23, r8
    6580:	10 f4       	brcc	.+4      	; 0x6586 <conv_brk+0xc8>
    6582:	7f 5f       	subi	r23, 0xFF	; 255
    6584:	e6 cf       	rjmp	.-52     	; 0x6552 <conv_brk+0x94>
    6586:	71 50       	subi	r23, 0x01	; 1
    6588:	e4 cf       	rjmp	.-56     	; 0x6552 <conv_brk+0x94>
    658a:	99 24       	eor	r9, r9
    658c:	93 94       	inc	r9
    658e:	03 c0       	rjmp	.+6      	; 0x6596 <conv_brk+0xd8>
    6590:	b1 e0       	ldi	r27, 0x01	; 1
    6592:	01 c0       	rjmp	.+2      	; 0x6596 <conv_brk+0xd8>
    6594:	b0 e0       	ldi	r27, 0x00	; 0
    6596:	4f 5f       	subi	r20, 0xFF	; 255
    6598:	5f 4f       	sbci	r21, 0xFF	; 255
    659a:	ba cf       	rjmp	.-140    	; 0x6510 <conv_brk+0x52>
    659c:	bb 23       	and	r27, r27
    659e:	19 f0       	breq	.+6      	; 0x65a6 <conv_brk+0xe8>
    65a0:	8e 81       	ldd	r24, Y+6	; 0x06
    65a2:	80 62       	ori	r24, 0x20	; 32
    65a4:	8e 83       	std	Y+6, r24	; 0x06
    65a6:	91 10       	cpse	r9, r1
    65a8:	03 c0       	rjmp	.+6      	; 0x65b0 <conv_brk+0xf2>
    65aa:	99 24       	eor	r9, r9
    65ac:	93 94       	inc	r9
    65ae:	15 c0       	rjmp	.+42     	; 0x65da <conv_brk+0x11c>
    65b0:	f6 01       	movw	r30, r12
    65b2:	ce 01       	movw	r24, r28
    65b4:	81 96       	adiw	r24, 0x21	; 33
    65b6:	20 81       	ld	r18, Z
    65b8:	20 95       	com	r18
    65ba:	21 93       	st	Z+, r18
    65bc:	e8 17       	cp	r30, r24
    65be:	f9 07       	cpc	r31, r25
    65c0:	d1 f7       	brne	.-12     	; 0x65b6 <conv_brk+0xf8>
    65c2:	f3 cf       	rjmp	.-26     	; 0x65aa <conv_brk+0xec>
    65c4:	e1 14       	cp	r14, r1
    65c6:	f1 04       	cpc	r15, r1
    65c8:	29 f0       	breq	.+10     	; 0x65d4 <conv_brk+0x116>
    65ca:	d7 01       	movw	r26, r14
    65cc:	8c 93       	st	X, r24
    65ce:	f7 01       	movw	r30, r14
    65d0:	31 96       	adiw	r30, 0x01	; 1
    65d2:	7f 01       	movw	r14, r30
    65d4:	61 50       	subi	r22, 0x01	; 1
    65d6:	f1 f0       	breq	.+60     	; 0x6614 <conv_brk+0x156>
    65d8:	91 2c       	mov	r9, r1
    65da:	c5 01       	movw	r24, r10
    65dc:	69 a3       	std	Y+33, r22	; 0x21
    65de:	ae d1       	rcall	.+860    	; 0x693c <fgetc>
    65e0:	69 a1       	ldd	r22, Y+33	; 0x21
    65e2:	97 fd       	sbrc	r25, 7
    65e4:	15 c0       	rjmp	.+42     	; 0x6610 <conv_brk+0x152>
    65e6:	28 2f       	mov	r18, r24
    65e8:	26 95       	lsr	r18
    65ea:	26 95       	lsr	r18
    65ec:	26 95       	lsr	r18
    65ee:	f6 01       	movw	r30, r12
    65f0:	e2 0f       	add	r30, r18
    65f2:	f1 1d       	adc	r31, r1
    65f4:	20 81       	ld	r18, Z
    65f6:	30 e0       	ldi	r19, 0x00	; 0
    65f8:	ac 01       	movw	r20, r24
    65fa:	47 70       	andi	r20, 0x07	; 7
    65fc:	55 27       	eor	r21, r21
    65fe:	02 c0       	rjmp	.+4      	; 0x6604 <conv_brk+0x146>
    6600:	35 95       	asr	r19
    6602:	27 95       	ror	r18
    6604:	4a 95       	dec	r20
    6606:	e2 f7       	brpl	.-8      	; 0x6600 <conv_brk+0x142>
    6608:	20 fd       	sbrc	r18, 0
    660a:	dc cf       	rjmp	.-72     	; 0x65c4 <conv_brk+0x106>
    660c:	b5 01       	movw	r22, r10
    660e:	d4 d1       	rcall	.+936    	; 0x69b8 <ungetc>
    6610:	91 10       	cpse	r9, r1
    6612:	88 cf       	rjmp	.-240    	; 0x6524 <conv_brk+0x66>
    6614:	e1 14       	cp	r14, r1
    6616:	f1 04       	cpc	r15, r1
    6618:	11 f0       	breq	.+4      	; 0x661e <conv_brk+0x160>
    661a:	d7 01       	movw	r26, r14
    661c:	1c 92       	st	X, r1
    661e:	c8 01       	movw	r24, r16
    6620:	a1 96       	adiw	r28, 0x21	; 33
    6622:	0f b6       	in	r0, 0x3f	; 63
    6624:	f8 94       	cli
    6626:	de bf       	out	0x3e, r29	; 62
    6628:	0f be       	out	0x3f, r0	; 63
    662a:	cd bf       	out	0x3d, r28	; 61
    662c:	df 91       	pop	r29
    662e:	cf 91       	pop	r28
    6630:	1f 91       	pop	r17
    6632:	0f 91       	pop	r16
    6634:	ff 90       	pop	r15
    6636:	ef 90       	pop	r14
    6638:	df 90       	pop	r13
    663a:	cf 90       	pop	r12
    663c:	bf 90       	pop	r11
    663e:	af 90       	pop	r10
    6640:	9f 90       	pop	r9
    6642:	8f 90       	pop	r8
    6644:	7f 90       	pop	r7
    6646:	08 95       	ret

00006648 <vfscanf>:
    6648:	4f 92       	push	r4
    664a:	5f 92       	push	r5
    664c:	7f 92       	push	r7
    664e:	8f 92       	push	r8
    6650:	9f 92       	push	r9
    6652:	af 92       	push	r10
    6654:	bf 92       	push	r11
    6656:	cf 92       	push	r12
    6658:	df 92       	push	r13
    665a:	ef 92       	push	r14
    665c:	ff 92       	push	r15
    665e:	0f 93       	push	r16
    6660:	1f 93       	push	r17
    6662:	cf 93       	push	r28
    6664:	df 93       	push	r29
    6666:	1f 92       	push	r1
    6668:	cd b7       	in	r28, 0x3d	; 61
    666a:	de b7       	in	r29, 0x3e	; 62
    666c:	8c 01       	movw	r16, r24
    666e:	2b 01       	movw	r4, r22
    6670:	7a 01       	movw	r14, r20
    6672:	fc 01       	movw	r30, r24
    6674:	17 82       	std	Z+7, r1	; 0x07
    6676:	16 82       	std	Z+6, r1	; 0x06
    6678:	a1 2c       	mov	r10, r1
    667a:	f8 01       	movw	r30, r16
    667c:	d3 80       	ldd	r13, Z+3	; 0x03
    667e:	f2 01       	movw	r30, r4
    6680:	d3 fc       	sbrc	r13, 3
    6682:	85 91       	lpm	r24, Z+
    6684:	d3 fe       	sbrs	r13, 3
    6686:	81 91       	ld	r24, Z+
    6688:	38 2f       	mov	r19, r24
    668a:	2f 01       	movw	r4, r30
    668c:	88 23       	and	r24, r24
    668e:	09 f4       	brne	.+2      	; 0x6692 <vfscanf+0x4a>
    6690:	ee c0       	rjmp	.+476    	; 0x686e <vfscanf+0x226>
    6692:	90 e0       	ldi	r25, 0x00	; 0
    6694:	39 83       	std	Y+1, r19	; 0x01
    6696:	2f d1       	rcall	.+606    	; 0x68f6 <isspace>
    6698:	39 81       	ldd	r19, Y+1	; 0x01
    669a:	89 2b       	or	r24, r25
    669c:	19 f0       	breq	.+6      	; 0x66a4 <vfscanf+0x5c>
    669e:	c8 01       	movw	r24, r16
    66a0:	6f de       	rcall	.-802    	; 0x6380 <skip_spaces>
    66a2:	eb cf       	rjmp	.-42     	; 0x667a <vfscanf+0x32>
    66a4:	35 32       	cpi	r19, 0x25	; 37
    66a6:	41 f4       	brne	.+16     	; 0x66b8 <vfscanf+0x70>
    66a8:	f2 01       	movw	r30, r4
    66aa:	d3 fc       	sbrc	r13, 3
    66ac:	35 91       	lpm	r19, Z+
    66ae:	d3 fe       	sbrs	r13, 3
    66b0:	31 91       	ld	r19, Z+
    66b2:	2f 01       	movw	r4, r30
    66b4:	35 32       	cpi	r19, 0x25	; 37
    66b6:	59 f4       	brne	.+22     	; 0x66ce <vfscanf+0x86>
    66b8:	c8 01       	movw	r24, r16
    66ba:	39 83       	std	Y+1, r19	; 0x01
    66bc:	3f d1       	rcall	.+638    	; 0x693c <fgetc>
    66be:	39 81       	ldd	r19, Y+1	; 0x01
    66c0:	97 fd       	sbrc	r25, 7
    66c2:	d3 c0       	rjmp	.+422    	; 0x686a <vfscanf+0x222>
    66c4:	38 17       	cp	r19, r24
    66c6:	c9 f2       	breq	.-78     	; 0x667a <vfscanf+0x32>
    66c8:	b8 01       	movw	r22, r16
    66ca:	76 d1       	rcall	.+748    	; 0x69b8 <ungetc>
    66cc:	d0 c0       	rjmp	.+416    	; 0x686e <vfscanf+0x226>
    66ce:	3a 32       	cpi	r19, 0x2A	; 42
    66d0:	41 f4       	brne	.+16     	; 0x66e2 <vfscanf+0x9a>
    66d2:	d3 fc       	sbrc	r13, 3
    66d4:	35 91       	lpm	r19, Z+
    66d6:	d3 fe       	sbrs	r13, 3
    66d8:	31 91       	ld	r19, Z+
    66da:	2f 01       	movw	r4, r30
    66dc:	bb 24       	eor	r11, r11
    66de:	b3 94       	inc	r11
    66e0:	01 c0       	rjmp	.+2      	; 0x66e4 <vfscanf+0x9c>
    66e2:	b1 2c       	mov	r11, r1
    66e4:	71 2c       	mov	r7, r1
    66e6:	20 ed       	ldi	r18, 0xD0	; 208
    66e8:	23 0f       	add	r18, r19
    66ea:	2a 30       	cpi	r18, 0x0A	; 10
    66ec:	88 f4       	brcc	.+34     	; 0x6710 <vfscanf+0xc8>
    66ee:	fb 2d       	mov	r31, r11
    66f0:	f2 60       	ori	r31, 0x02	; 2
    66f2:	bf 2e       	mov	r11, r31
    66f4:	67 2d       	mov	r22, r7
    66f6:	70 e0       	ldi	r23, 0x00	; 0
    66f8:	80 e0       	ldi	r24, 0x00	; 0
    66fa:	90 e0       	ldi	r25, 0x00	; 0
    66fc:	40 e2       	ldi	r20, 0x20	; 32
    66fe:	20 de       	rcall	.-960    	; 0x6340 <mulacc>
    6700:	76 2e       	mov	r7, r22
    6702:	f2 01       	movw	r30, r4
    6704:	d3 fc       	sbrc	r13, 3
    6706:	35 91       	lpm	r19, Z+
    6708:	d3 fe       	sbrs	r13, 3
    670a:	31 91       	ld	r19, Z+
    670c:	2f 01       	movw	r4, r30
    670e:	eb cf       	rjmp	.-42     	; 0x66e6 <vfscanf+0x9e>
    6710:	b1 fe       	sbrs	r11, 1
    6712:	03 c0       	rjmp	.+6      	; 0x671a <vfscanf+0xd2>
    6714:	71 10       	cpse	r7, r1
    6716:	03 c0       	rjmp	.+6      	; 0x671e <vfscanf+0xd6>
    6718:	aa c0       	rjmp	.+340    	; 0x686e <vfscanf+0x226>
    671a:	77 24       	eor	r7, r7
    671c:	7a 94       	dec	r7
    671e:	38 36       	cpi	r19, 0x68	; 104
    6720:	19 f0       	breq	.+6      	; 0x6728 <vfscanf+0xe0>
    6722:	3c 36       	cpi	r19, 0x6C	; 108
    6724:	61 f0       	breq	.+24     	; 0x673e <vfscanf+0xf6>
    6726:	14 c0       	rjmp	.+40     	; 0x6750 <vfscanf+0x108>
    6728:	f2 01       	movw	r30, r4
    672a:	d3 fc       	sbrc	r13, 3
    672c:	35 91       	lpm	r19, Z+
    672e:	d3 fe       	sbrs	r13, 3
    6730:	31 91       	ld	r19, Z+
    6732:	2f 01       	movw	r4, r30
    6734:	38 36       	cpi	r19, 0x68	; 104
    6736:	61 f4       	brne	.+24     	; 0x6750 <vfscanf+0x108>
    6738:	fb 2d       	mov	r31, r11
    673a:	f8 60       	ori	r31, 0x08	; 8
    673c:	bf 2e       	mov	r11, r31
    673e:	8b 2d       	mov	r24, r11
    6740:	84 60       	ori	r24, 0x04	; 4
    6742:	b8 2e       	mov	r11, r24
    6744:	f2 01       	movw	r30, r4
    6746:	d3 fc       	sbrc	r13, 3
    6748:	35 91       	lpm	r19, Z+
    674a:	d3 fe       	sbrs	r13, 3
    674c:	31 91       	ld	r19, Z+
    674e:	2f 01       	movw	r4, r30
    6750:	33 23       	and	r19, r19
    6752:	09 f4       	brne	.+2      	; 0x6756 <vfscanf+0x10e>
    6754:	8c c0       	rjmp	.+280    	; 0x686e <vfscanf+0x226>
    6756:	63 2f       	mov	r22, r19
    6758:	70 e0       	ldi	r23, 0x00	; 0
    675a:	85 ea       	ldi	r24, 0xA5	; 165
    675c:	93 e0       	ldi	r25, 0x03	; 3
    675e:	39 83       	std	Y+1, r19	; 0x01
    6760:	d2 d0       	rcall	.+420    	; 0x6906 <strchr_P>
    6762:	39 81       	ldd	r19, Y+1	; 0x01
    6764:	89 2b       	or	r24, r25
    6766:	09 f4       	brne	.+2      	; 0x676a <vfscanf+0x122>
    6768:	82 c0       	rjmp	.+260    	; 0x686e <vfscanf+0x226>
    676a:	b0 fc       	sbrc	r11, 0
    676c:	07 c0       	rjmp	.+14     	; 0x677c <vfscanf+0x134>
    676e:	f7 01       	movw	r30, r14
    6770:	c0 80       	ld	r12, Z
    6772:	d1 80       	ldd	r13, Z+1	; 0x01
    6774:	c7 01       	movw	r24, r14
    6776:	02 96       	adiw	r24, 0x02	; 2
    6778:	7c 01       	movw	r14, r24
    677a:	02 c0       	rjmp	.+4      	; 0x6780 <vfscanf+0x138>
    677c:	c1 2c       	mov	r12, r1
    677e:	d1 2c       	mov	r13, r1
    6780:	3e 36       	cpi	r19, 0x6E	; 110
    6782:	49 f4       	brne	.+18     	; 0x6796 <vfscanf+0x14e>
    6784:	f8 01       	movw	r30, r16
    6786:	46 81       	ldd	r20, Z+6	; 0x06
    6788:	57 81       	ldd	r21, Z+7	; 0x07
    678a:	60 e0       	ldi	r22, 0x00	; 0
    678c:	70 e0       	ldi	r23, 0x00	; 0
    678e:	2b 2d       	mov	r18, r11
    6790:	c6 01       	movw	r24, r12
    6792:	ca dd       	rcall	.-1132   	; 0x6328 <putval>
    6794:	72 cf       	rjmp	.-284    	; 0x667a <vfscanf+0x32>
    6796:	33 36       	cpi	r19, 0x63	; 99
    6798:	99 f4       	brne	.+38     	; 0x67c0 <vfscanf+0x178>
    679a:	b1 fc       	sbrc	r11, 1
    679c:	02 c0       	rjmp	.+4      	; 0x67a2 <vfscanf+0x15a>
    679e:	77 24       	eor	r7, r7
    67a0:	73 94       	inc	r7
    67a2:	c8 01       	movw	r24, r16
    67a4:	cb d0       	rcall	.+406    	; 0x693c <fgetc>
    67a6:	97 fd       	sbrc	r25, 7
    67a8:	60 c0       	rjmp	.+192    	; 0x686a <vfscanf+0x222>
    67aa:	c1 14       	cp	r12, r1
    67ac:	d1 04       	cpc	r13, r1
    67ae:	29 f0       	breq	.+10     	; 0x67ba <vfscanf+0x172>
    67b0:	f6 01       	movw	r30, r12
    67b2:	80 83       	st	Z, r24
    67b4:	c6 01       	movw	r24, r12
    67b6:	01 96       	adiw	r24, 0x01	; 1
    67b8:	6c 01       	movw	r12, r24
    67ba:	7a 94       	dec	r7
    67bc:	91 f7       	brne	.-28     	; 0x67a2 <vfscanf+0x15a>
    67be:	51 c0       	rjmp	.+162    	; 0x6862 <vfscanf+0x21a>
    67c0:	3b 35       	cpi	r19, 0x5B	; 91
    67c2:	51 f4       	brne	.+20     	; 0x67d8 <vfscanf+0x190>
    67c4:	92 01       	movw	r18, r4
    67c6:	a6 01       	movw	r20, r12
    67c8:	67 2d       	mov	r22, r7
    67ca:	c8 01       	movw	r24, r16
    67cc:	78 de       	rcall	.-784    	; 0x64be <conv_brk>
    67ce:	2c 01       	movw	r4, r24
    67d0:	00 97       	sbiw	r24, 0x00	; 0
    67d2:	09 f0       	breq	.+2      	; 0x67d6 <vfscanf+0x18e>
    67d4:	46 c0       	rjmp	.+140    	; 0x6862 <vfscanf+0x21a>
    67d6:	40 c0       	rjmp	.+128    	; 0x6858 <vfscanf+0x210>
    67d8:	c8 01       	movw	r24, r16
    67da:	39 83       	std	Y+1, r19	; 0x01
    67dc:	d1 dd       	rcall	.-1118   	; 0x6380 <skip_spaces>
    67de:	39 81       	ldd	r19, Y+1	; 0x01
    67e0:	97 fd       	sbrc	r25, 7
    67e2:	43 c0       	rjmp	.+134    	; 0x686a <vfscanf+0x222>
    67e4:	3f 36       	cpi	r19, 0x6F	; 111
    67e6:	51 f1       	breq	.+84     	; 0x683c <vfscanf+0x1f4>
    67e8:	28 f4       	brcc	.+10     	; 0x67f4 <vfscanf+0x1ac>
    67ea:	34 36       	cpi	r19, 0x64	; 100
    67ec:	19 f1       	breq	.+70     	; 0x6834 <vfscanf+0x1ec>
    67ee:	39 36       	cpi	r19, 0x69	; 105
    67f0:	61 f1       	breq	.+88     	; 0x684a <vfscanf+0x202>
    67f2:	28 c0       	rjmp	.+80     	; 0x6844 <vfscanf+0x1fc>
    67f4:	33 37       	cpi	r19, 0x73	; 115
    67f6:	69 f0       	breq	.+26     	; 0x6812 <vfscanf+0x1ca>
    67f8:	35 37       	cpi	r19, 0x75	; 117
    67fa:	e1 f0       	breq	.+56     	; 0x6834 <vfscanf+0x1ec>
    67fc:	23 c0       	rjmp	.+70     	; 0x6844 <vfscanf+0x1fc>
    67fe:	c1 14       	cp	r12, r1
    6800:	d1 04       	cpc	r13, r1
    6802:	29 f0       	breq	.+10     	; 0x680e <vfscanf+0x1c6>
    6804:	f6 01       	movw	r30, r12
    6806:	80 82       	st	Z, r8
    6808:	c6 01       	movw	r24, r12
    680a:	01 96       	adiw	r24, 0x01	; 1
    680c:	6c 01       	movw	r12, r24
    680e:	7a 94       	dec	r7
    6810:	59 f0       	breq	.+22     	; 0x6828 <vfscanf+0x1e0>
    6812:	c8 01       	movw	r24, r16
    6814:	93 d0       	rcall	.+294    	; 0x693c <fgetc>
    6816:	4c 01       	movw	r8, r24
    6818:	97 fd       	sbrc	r25, 7
    681a:	06 c0       	rjmp	.+12     	; 0x6828 <vfscanf+0x1e0>
    681c:	6c d0       	rcall	.+216    	; 0x68f6 <isspace>
    681e:	89 2b       	or	r24, r25
    6820:	71 f3       	breq	.-36     	; 0x67fe <vfscanf+0x1b6>
    6822:	b8 01       	movw	r22, r16
    6824:	c4 01       	movw	r24, r8
    6826:	c8 d0       	rcall	.+400    	; 0x69b8 <ungetc>
    6828:	c1 14       	cp	r12, r1
    682a:	d1 04       	cpc	r13, r1
    682c:	d1 f0       	breq	.+52     	; 0x6862 <vfscanf+0x21a>
    682e:	f6 01       	movw	r30, r12
    6830:	10 82       	st	Z, r1
    6832:	17 c0       	rjmp	.+46     	; 0x6862 <vfscanf+0x21a>
    6834:	fb 2d       	mov	r31, r11
    6836:	f0 62       	ori	r31, 0x20	; 32
    6838:	bf 2e       	mov	r11, r31
    683a:	07 c0       	rjmp	.+14     	; 0x684a <vfscanf+0x202>
    683c:	8b 2d       	mov	r24, r11
    683e:	80 61       	ori	r24, 0x10	; 16
    6840:	b8 2e       	mov	r11, r24
    6842:	03 c0       	rjmp	.+6      	; 0x684a <vfscanf+0x202>
    6844:	9b 2d       	mov	r25, r11
    6846:	90 64       	ori	r25, 0x40	; 64
    6848:	b9 2e       	mov	r11, r25
    684a:	2b 2d       	mov	r18, r11
    684c:	a6 01       	movw	r20, r12
    684e:	67 2d       	mov	r22, r7
    6850:	c8 01       	movw	r24, r16
    6852:	ac dd       	rcall	.-1192   	; 0x63ac <conv_int>
    6854:	81 11       	cpse	r24, r1
    6856:	05 c0       	rjmp	.+10     	; 0x6862 <vfscanf+0x21a>
    6858:	f8 01       	movw	r30, r16
    685a:	83 81       	ldd	r24, Z+3	; 0x03
    685c:	80 73       	andi	r24, 0x30	; 48
    685e:	29 f4       	brne	.+10     	; 0x686a <vfscanf+0x222>
    6860:	06 c0       	rjmp	.+12     	; 0x686e <vfscanf+0x226>
    6862:	b0 fc       	sbrc	r11, 0
    6864:	0a cf       	rjmp	.-492    	; 0x667a <vfscanf+0x32>
    6866:	a3 94       	inc	r10
    6868:	08 cf       	rjmp	.-496    	; 0x667a <vfscanf+0x32>
    686a:	aa 20       	and	r10, r10
    686c:	19 f0       	breq	.+6      	; 0x6874 <vfscanf+0x22c>
    686e:	8a 2d       	mov	r24, r10
    6870:	90 e0       	ldi	r25, 0x00	; 0
    6872:	02 c0       	rjmp	.+4      	; 0x6878 <vfscanf+0x230>
    6874:	8f ef       	ldi	r24, 0xFF	; 255
    6876:	9f ef       	ldi	r25, 0xFF	; 255
    6878:	0f 90       	pop	r0
    687a:	df 91       	pop	r29
    687c:	cf 91       	pop	r28
    687e:	1f 91       	pop	r17
    6880:	0f 91       	pop	r16
    6882:	ff 90       	pop	r15
    6884:	ef 90       	pop	r14
    6886:	df 90       	pop	r13
    6888:	cf 90       	pop	r12
    688a:	bf 90       	pop	r11
    688c:	af 90       	pop	r10
    688e:	9f 90       	pop	r9
    6890:	8f 90       	pop	r8
    6892:	7f 90       	pop	r7
    6894:	5f 90       	pop	r5
    6896:	4f 90       	pop	r4
    6898:	08 95       	ret

0000689a <__eerd_block_m2561>:
    689a:	dc 01       	movw	r26, r24
    689c:	cb 01       	movw	r24, r22

0000689e <__eerd_blraw_m2561>:
    689e:	fc 01       	movw	r30, r24
    68a0:	f9 99       	sbic	0x1f, 1	; 31
    68a2:	fe cf       	rjmp	.-4      	; 0x68a0 <__eerd_blraw_m2561+0x2>
    68a4:	06 c0       	rjmp	.+12     	; 0x68b2 <__eerd_blraw_m2561+0x14>
    68a6:	f2 bd       	out	0x22, r31	; 34
    68a8:	e1 bd       	out	0x21, r30	; 33
    68aa:	f8 9a       	sbi	0x1f, 0	; 31
    68ac:	31 96       	adiw	r30, 0x01	; 1
    68ae:	00 b4       	in	r0, 0x20	; 32
    68b0:	0d 92       	st	X+, r0
    68b2:	41 50       	subi	r20, 0x01	; 1
    68b4:	50 40       	sbci	r21, 0x00	; 0
    68b6:	b8 f7       	brcc	.-18     	; 0x68a6 <__eerd_blraw_m2561+0x8>
    68b8:	08 95       	ret

000068ba <__eerd_byte_m2561>:
    68ba:	f9 99       	sbic	0x1f, 1	; 31
    68bc:	fe cf       	rjmp	.-4      	; 0x68ba <__eerd_byte_m2561>
    68be:	92 bd       	out	0x22, r25	; 34
    68c0:	81 bd       	out	0x21, r24	; 33
    68c2:	f8 9a       	sbi	0x1f, 0	; 31
    68c4:	99 27       	eor	r25, r25
    68c6:	80 b5       	in	r24, 0x20	; 32
    68c8:	08 95       	ret

000068ca <__eerd_word_m2561>:
    68ca:	a8 e1       	ldi	r26, 0x18	; 24
    68cc:	b0 e0       	ldi	r27, 0x00	; 0
    68ce:	42 e0       	ldi	r20, 0x02	; 2
    68d0:	50 e0       	ldi	r21, 0x00	; 0
    68d2:	e5 cf       	rjmp	.-54     	; 0x689e <__eerd_blraw_m2561>

000068d4 <__eewr_byte_m2561>:
    68d4:	26 2f       	mov	r18, r22

000068d6 <__eewr_r18_m2561>:
    68d6:	f9 99       	sbic	0x1f, 1	; 31
    68d8:	fe cf       	rjmp	.-4      	; 0x68d6 <__eewr_r18_m2561>
    68da:	1f ba       	out	0x1f, r1	; 31
    68dc:	92 bd       	out	0x22, r25	; 34
    68de:	81 bd       	out	0x21, r24	; 33
    68e0:	20 bd       	out	0x20, r18	; 32
    68e2:	0f b6       	in	r0, 0x3f	; 63
    68e4:	f8 94       	cli
    68e6:	fa 9a       	sbi	0x1f, 2	; 31
    68e8:	f9 9a       	sbi	0x1f, 1	; 31
    68ea:	0f be       	out	0x3f, r0	; 63
    68ec:	01 96       	adiw	r24, 0x01	; 1
    68ee:	08 95       	ret

000068f0 <__eewr_word_m2561>:
    68f0:	f1 df       	rcall	.-30     	; 0x68d4 <__eewr_byte_m2561>
    68f2:	27 2f       	mov	r18, r23
    68f4:	f0 cf       	rjmp	.-32     	; 0x68d6 <__eewr_r18_m2561>

000068f6 <isspace>:
    68f6:	91 11       	cpse	r25, r1
    68f8:	78 c0       	rjmp	.+240    	; 0x69ea <__ctype_isfalse>
    68fa:	80 32       	cpi	r24, 0x20	; 32
    68fc:	19 f0       	breq	.+6      	; 0x6904 <isspace+0xe>
    68fe:	89 50       	subi	r24, 0x09	; 9
    6900:	85 50       	subi	r24, 0x05	; 5
    6902:	d0 f7       	brcc	.-12     	; 0x68f8 <isspace+0x2>
    6904:	08 95       	ret

00006906 <strchr_P>:
    6906:	fc 01       	movw	r30, r24
    6908:	05 90       	lpm	r0, Z+
    690a:	06 16       	cp	r0, r22
    690c:	21 f0       	breq	.+8      	; 0x6916 <strchr_P+0x10>
    690e:	00 20       	and	r0, r0
    6910:	d9 f7       	brne	.-10     	; 0x6908 <strchr_P+0x2>
    6912:	c0 01       	movw	r24, r0
    6914:	08 95       	ret
    6916:	31 97       	sbiw	r30, 0x01	; 1
    6918:	cf 01       	movw	r24, r30
    691a:	08 95       	ret

0000691c <strrev>:
    691c:	dc 01       	movw	r26, r24
    691e:	fc 01       	movw	r30, r24
    6920:	67 2f       	mov	r22, r23
    6922:	71 91       	ld	r23, Z+
    6924:	77 23       	and	r23, r23
    6926:	e1 f7       	brne	.-8      	; 0x6920 <strrev+0x4>
    6928:	32 97       	sbiw	r30, 0x02	; 2
    692a:	04 c0       	rjmp	.+8      	; 0x6934 <strrev+0x18>
    692c:	7c 91       	ld	r23, X
    692e:	6d 93       	st	X+, r22
    6930:	70 83       	st	Z, r23
    6932:	62 91       	ld	r22, -Z
    6934:	ae 17       	cp	r26, r30
    6936:	bf 07       	cpc	r27, r31
    6938:	c8 f3       	brcs	.-14     	; 0x692c <strrev+0x10>
    693a:	08 95       	ret

0000693c <fgetc>:
    693c:	cf 93       	push	r28
    693e:	df 93       	push	r29
    6940:	ec 01       	movw	r28, r24
    6942:	2b 81       	ldd	r18, Y+3	; 0x03
    6944:	20 ff       	sbrs	r18, 0
    6946:	33 c0       	rjmp	.+102    	; 0x69ae <fgetc+0x72>
    6948:	26 ff       	sbrs	r18, 6
    694a:	0a c0       	rjmp	.+20     	; 0x6960 <fgetc+0x24>
    694c:	2f 7b       	andi	r18, 0xBF	; 191
    694e:	2b 83       	std	Y+3, r18	; 0x03
    6950:	8e 81       	ldd	r24, Y+6	; 0x06
    6952:	9f 81       	ldd	r25, Y+7	; 0x07
    6954:	01 96       	adiw	r24, 0x01	; 1
    6956:	9f 83       	std	Y+7, r25	; 0x07
    6958:	8e 83       	std	Y+6, r24	; 0x06
    695a:	8a 81       	ldd	r24, Y+2	; 0x02
    695c:	90 e0       	ldi	r25, 0x00	; 0
    695e:	29 c0       	rjmp	.+82     	; 0x69b2 <fgetc+0x76>
    6960:	22 ff       	sbrs	r18, 2
    6962:	0f c0       	rjmp	.+30     	; 0x6982 <fgetc+0x46>
    6964:	e8 81       	ld	r30, Y
    6966:	f9 81       	ldd	r31, Y+1	; 0x01
    6968:	80 81       	ld	r24, Z
    696a:	99 27       	eor	r25, r25
    696c:	87 fd       	sbrc	r24, 7
    696e:	90 95       	com	r25
    6970:	00 97       	sbiw	r24, 0x00	; 0
    6972:	19 f4       	brne	.+6      	; 0x697a <fgetc+0x3e>
    6974:	20 62       	ori	r18, 0x20	; 32
    6976:	2b 83       	std	Y+3, r18	; 0x03
    6978:	1a c0       	rjmp	.+52     	; 0x69ae <fgetc+0x72>
    697a:	31 96       	adiw	r30, 0x01	; 1
    697c:	f9 83       	std	Y+1, r31	; 0x01
    697e:	e8 83       	st	Y, r30
    6980:	0e c0       	rjmp	.+28     	; 0x699e <fgetc+0x62>
    6982:	ea 85       	ldd	r30, Y+10	; 0x0a
    6984:	fb 85       	ldd	r31, Y+11	; 0x0b
    6986:	19 95       	eicall
    6988:	97 ff       	sbrs	r25, 7
    698a:	09 c0       	rjmp	.+18     	; 0x699e <fgetc+0x62>
    698c:	2b 81       	ldd	r18, Y+3	; 0x03
    698e:	01 96       	adiw	r24, 0x01	; 1
    6990:	11 f4       	brne	.+4      	; 0x6996 <fgetc+0x5a>
    6992:	80 e1       	ldi	r24, 0x10	; 16
    6994:	01 c0       	rjmp	.+2      	; 0x6998 <fgetc+0x5c>
    6996:	80 e2       	ldi	r24, 0x20	; 32
    6998:	82 2b       	or	r24, r18
    699a:	8b 83       	std	Y+3, r24	; 0x03
    699c:	08 c0       	rjmp	.+16     	; 0x69ae <fgetc+0x72>
    699e:	2e 81       	ldd	r18, Y+6	; 0x06
    69a0:	3f 81       	ldd	r19, Y+7	; 0x07
    69a2:	2f 5f       	subi	r18, 0xFF	; 255
    69a4:	3f 4f       	sbci	r19, 0xFF	; 255
    69a6:	3f 83       	std	Y+7, r19	; 0x07
    69a8:	2e 83       	std	Y+6, r18	; 0x06
    69aa:	99 27       	eor	r25, r25
    69ac:	02 c0       	rjmp	.+4      	; 0x69b2 <fgetc+0x76>
    69ae:	8f ef       	ldi	r24, 0xFF	; 255
    69b0:	9f ef       	ldi	r25, 0xFF	; 255
    69b2:	df 91       	pop	r29
    69b4:	cf 91       	pop	r28
    69b6:	08 95       	ret

000069b8 <ungetc>:
    69b8:	fb 01       	movw	r30, r22
    69ba:	23 81       	ldd	r18, Z+3	; 0x03
    69bc:	20 ff       	sbrs	r18, 0
    69be:	12 c0       	rjmp	.+36     	; 0x69e4 <ungetc+0x2c>
    69c0:	26 fd       	sbrc	r18, 6
    69c2:	10 c0       	rjmp	.+32     	; 0x69e4 <ungetc+0x2c>
    69c4:	8f 3f       	cpi	r24, 0xFF	; 255
    69c6:	3f ef       	ldi	r19, 0xFF	; 255
    69c8:	93 07       	cpc	r25, r19
    69ca:	61 f0       	breq	.+24     	; 0x69e4 <ungetc+0x2c>
    69cc:	82 83       	std	Z+2, r24	; 0x02
    69ce:	2f 7d       	andi	r18, 0xDF	; 223
    69d0:	20 64       	ori	r18, 0x40	; 64
    69d2:	23 83       	std	Z+3, r18	; 0x03
    69d4:	26 81       	ldd	r18, Z+6	; 0x06
    69d6:	37 81       	ldd	r19, Z+7	; 0x07
    69d8:	21 50       	subi	r18, 0x01	; 1
    69da:	31 09       	sbc	r19, r1
    69dc:	37 83       	std	Z+7, r19	; 0x07
    69de:	26 83       	std	Z+6, r18	; 0x06
    69e0:	99 27       	eor	r25, r25
    69e2:	08 95       	ret
    69e4:	8f ef       	ldi	r24, 0xFF	; 255
    69e6:	9f ef       	ldi	r25, 0xFF	; 255
    69e8:	08 95       	ret

000069ea <__ctype_isfalse>:
    69ea:	99 27       	eor	r25, r25
    69ec:	88 27       	eor	r24, r24

000069ee <__ctype_istrue>:
    69ee:	08 95       	ret

000069f0 <_exit>:
    69f0:	f8 94       	cli

000069f2 <__stop_program>:
    69f2:	ff cf       	rjmp	.-2      	; 0x69f2 <__stop_program>
