
Ethernet_to_Serial.elf:     file format elf32-avr

Sections:
Idx Name          Size      VMA       LMA       File off  Algn
  0 .data         00000362  00800200  0000727a  0000732e  2**0
                  CONTENTS, ALLOC, LOAD, DATA
  1 .text         0000727a  00000000  00000000  000000b4  2**1
                  CONTENTS, ALLOC, LOAD, READONLY, CODE
  2 .bss          00000e2b  00800562  00800562  00007690  2**0
                  ALLOC
  3 .eeprom       00000011  00810000  00810000  00007690  2**0
                  CONTENTS, ALLOC, LOAD, DATA
  4 .comment      0000005c  00000000  00000000  000076a1  2**0
                  CONTENTS, READONLY
  5 .debug_aranges 000007c8  00000000  00000000  000076fd  2**0
                  CONTENTS, READONLY, DEBUGGING
  6 .debug_info   0000c0b4  00000000  00000000  00007ec5  2**0
                  CONTENTS, READONLY, DEBUGGING
  7 .debug_abbrev 00000994  00000000  00000000  00013f79  2**0
                  CONTENTS, READONLY, DEBUGGING
  8 .debug_line   00005891  00000000  00000000  0001490d  2**0
                  CONTENTS, READONLY, DEBUGGING
  9 .debug_frame  00001d1c  00000000  00000000  0001a1a0  2**2
                  CONTENTS, READONLY, DEBUGGING
 10 .debug_str    00002518  00000000  00000000  0001bebc  2**0
                  CONTENTS, READONLY, DEBUGGING
 11 .debug_loc    0000c4a0  00000000  00000000  0001e3d4  2**0
                  CONTENTS, READONLY, DEBUGGING
 12 .debug_ranges 00000a68  00000000  00000000  0002a874  2**0
                  CONTENTS, READONLY, DEBUGGING

Disassembly of section .text:

00000000 <__vectors>:
       0:	95 c2       	rjmp	.+1322   	; 0x52c <__ctors_end>
       2:	00 00       	nop
       4:	b4 c2       	rjmp	.+1384   	; 0x56e <__bad_interrupt>
       6:	00 00       	nop
       8:	b2 c2       	rjmp	.+1380   	; 0x56e <__bad_interrupt>
       a:	00 00       	nop
       c:	b0 c2       	rjmp	.+1376   	; 0x56e <__bad_interrupt>
       e:	00 00       	nop
      10:	ae c2       	rjmp	.+1372   	; 0x56e <__bad_interrupt>
      12:	00 00       	nop
      14:	ac c2       	rjmp	.+1368   	; 0x56e <__bad_interrupt>
      16:	00 00       	nop
      18:	aa c2       	rjmp	.+1364   	; 0x56e <__bad_interrupt>
      1a:	00 00       	nop
      1c:	a8 c2       	rjmp	.+1360   	; 0x56e <__bad_interrupt>
      1e:	00 00       	nop
      20:	a6 c2       	rjmp	.+1356   	; 0x56e <__bad_interrupt>
      22:	00 00       	nop
      24:	a4 c2       	rjmp	.+1352   	; 0x56e <__bad_interrupt>
      26:	00 00       	nop
      28:	a2 c2       	rjmp	.+1348   	; 0x56e <__bad_interrupt>
      2a:	00 00       	nop
      2c:	a0 c2       	rjmp	.+1344   	; 0x56e <__bad_interrupt>
      2e:	00 00       	nop
      30:	9e c2       	rjmp	.+1340   	; 0x56e <__bad_interrupt>
      32:	00 00       	nop
      34:	0c 94 39 0c 	jmp	0x1872	; 0x1872 <__vector_13>
      38:	9a c2       	rjmp	.+1332   	; 0x56e <__bad_interrupt>
      3a:	00 00       	nop
      3c:	98 c2       	rjmp	.+1328   	; 0x56e <__bad_interrupt>
      3e:	00 00       	nop
      40:	96 c2       	rjmp	.+1324   	; 0x56e <__bad_interrupt>
      42:	00 00       	nop
      44:	0c 94 1b 0a 	jmp	0x1436	; 0x1436 <__vector_17>
      48:	92 c2       	rjmp	.+1316   	; 0x56e <__bad_interrupt>
      4a:	00 00       	nop
      4c:	90 c2       	rjmp	.+1312   	; 0x56e <__bad_interrupt>
      4e:	00 00       	nop
      50:	8e c2       	rjmp	.+1308   	; 0x56e <__bad_interrupt>
      52:	00 00       	nop
      54:	0c 94 07 0c 	jmp	0x180e	; 0x180e <__vector_21>
      58:	8a c2       	rjmp	.+1300   	; 0x56e <__bad_interrupt>
      5a:	00 00       	nop
      5c:	88 c2       	rjmp	.+1296   	; 0x56e <__bad_interrupt>
      5e:	00 00       	nop
      60:	86 c2       	rjmp	.+1292   	; 0x56e <__bad_interrupt>
      62:	00 00       	nop
      64:	0c 94 c1 17 	jmp	0x2f82	; 0x2f82 <__vector_25>
      68:	0c 94 14 18 	jmp	0x3028	; 0x3028 <__vector_26>
      6c:	0c 94 eb 17 	jmp	0x2fd6	; 0x2fd6 <__vector_27>
      70:	7e c2       	rjmp	.+1276   	; 0x56e <__bad_interrupt>
      72:	00 00       	nop
      74:	7c c2       	rjmp	.+1272   	; 0x56e <__bad_interrupt>
      76:	00 00       	nop
      78:	7a c2       	rjmp	.+1268   	; 0x56e <__bad_interrupt>
      7a:	00 00       	nop
      7c:	78 c2       	rjmp	.+1264   	; 0x56e <__bad_interrupt>
      7e:	00 00       	nop
      80:	76 c2       	rjmp	.+1260   	; 0x56e <__bad_interrupt>
      82:	00 00       	nop
      84:	74 c2       	rjmp	.+1256   	; 0x56e <__bad_interrupt>
      86:	00 00       	nop
      88:	72 c2       	rjmp	.+1252   	; 0x56e <__bad_interrupt>
      8a:	00 00       	nop
      8c:	70 c2       	rjmp	.+1248   	; 0x56e <__bad_interrupt>
      8e:	00 00       	nop
      90:	0c 94 3d 18 	jmp	0x307a	; 0x307a <__vector_36>
      94:	0c 94 90 18 	jmp	0x3120	; 0x3120 <__vector_37>
      98:	0c 94 67 18 	jmp	0x30ce	; 0x30ce <__vector_38>
      9c:	68 c2       	rjmp	.+1232   	; 0x56e <__bad_interrupt>
      9e:	00 00       	nop
      a0:	66 c2       	rjmp	.+1228   	; 0x56e <__bad_interrupt>
      a2:	00 00       	nop
      a4:	64 c2       	rjmp	.+1224   	; 0x56e <__bad_interrupt>
      a6:	00 00       	nop
      a8:	0c 94 6d 0c 	jmp	0x18da	; 0x18da <__vector_42>
      ac:	60 c2       	rjmp	.+1216   	; 0x56e <__bad_interrupt>
      ae:	00 00       	nop
      b0:	5e c2       	rjmp	.+1212   	; 0x56e <__bad_interrupt>
      b2:	00 00       	nop
      b4:	5c c2       	rjmp	.+1208   	; 0x56e <__bad_interrupt>
      b6:	00 00       	nop
      b8:	5a c2       	rjmp	.+1204   	; 0x56e <__bad_interrupt>
      ba:	00 00       	nop
      bc:	58 c2       	rjmp	.+1200   	; 0x56e <__bad_interrupt>
      be:	00 00       	nop
      c0:	56 c2       	rjmp	.+1196   	; 0x56e <__bad_interrupt>
      c2:	00 00       	nop
      c4:	54 c2       	rjmp	.+1192   	; 0x56e <__bad_interrupt>
      c6:	00 00       	nop
      c8:	52 c2       	rjmp	.+1188   	; 0x56e <__bad_interrupt>
      ca:	00 00       	nop
      cc:	78 10       	cpse	r7, r8
      ce:	78 10       	cpse	r7, r8
      d0:	48 11       	cpse	r20, r8
      d2:	48 11       	cpse	r20, r8
      d4:	3d 13       	cpse	r19, r29
      d6:	dc 11       	cpse	r29, r12
      d8:	3d 13       	cpse	r19, r29
      da:	3d 13       	cpse	r19, r29
      dc:	3d 13       	cpse	r19, r29
      de:	3d 13       	cpse	r19, r29
      e0:	3d 13       	cpse	r19, r29
      e2:	3d 13       	cpse	r19, r29
      e4:	3d 13       	cpse	r19, r29
      e6:	3d 13       	cpse	r19, r29
      e8:	24 12       	cpse	r2, r20
      ea:	cc 12       	cpse	r12, r28
      ec:	48 14       	cp	r4, r8
      ee:	48 14       	cp	r4, r8
      f0:	ff 14       	cp	r15, r15
      f2:	ff 14       	cp	r15, r15
      f4:	00 16       	cp	r0, r16
      f6:	84 15       	cp	r24, r4
      f8:	00 16       	cp	r0, r16
      fa:	00 16       	cp	r0, r16
      fc:	00 16       	cp	r0, r16
      fe:	00 16       	cp	r0, r16
     100:	00 16       	cp	r0, r16
     102:	00 16       	cp	r0, r16
     104:	00 16       	cp	r0, r16
     106:	00 16       	cp	r0, r16
     108:	cc 15       	cp	r28, r12
     10a:	cc 15       	cp	r28, r12
     10c:	ef 2b       	or	r30, r31
     10e:	30 2b       	or	r19, r16
     110:	27 2c       	mov	r2, r7
     112:	ec 2a       	or	r14, r28
     114:	27 2c       	mov	r2, r7
     116:	27 2c       	mov	r2, r7
     118:	27 2c       	mov	r2, r7
     11a:	27 2c       	mov	r2, r7
     11c:	27 2c       	mov	r2, r7
     11e:	27 2c       	mov	r2, r7
     120:	27 2c       	mov	r2, r7
     122:	27 2c       	mov	r2, r7
     124:	27 2c       	mov	r2, r7
     126:	27 2c       	mov	r2, r7
     128:	27 2c       	mov	r2, r7
     12a:	27 2c       	mov	r2, r7
     12c:	27 2c       	mov	r2, r7
     12e:	27 2c       	mov	r2, r7
     130:	27 2c       	mov	r2, r7
     132:	27 2c       	mov	r2, r7
     134:	27 2c       	mov	r2, r7
     136:	27 2c       	mov	r2, r7
     138:	27 2c       	mov	r2, r7
     13a:	27 2c       	mov	r2, r7
     13c:	27 2c       	mov	r2, r7
     13e:	27 2c       	mov	r2, r7
     140:	27 2c       	mov	r2, r7
     142:	27 2c       	mov	r2, r7
     144:	27 2c       	mov	r2, r7
     146:	27 2c       	mov	r2, r7
     148:	27 2c       	mov	r2, r7
     14a:	27 2c       	mov	r2, r7
     14c:	27 2c       	mov	r2, r7
     14e:	27 2c       	mov	r2, r7
     150:	27 2c       	mov	r2, r7
     152:	27 2c       	mov	r2, r7
     154:	27 2c       	mov	r2, r7
     156:	27 2c       	mov	r2, r7
     158:	27 2c       	mov	r2, r7
     15a:	27 2c       	mov	r2, r7
     15c:	27 2c       	mov	r2, r7
     15e:	27 2c       	mov	r2, r7
     160:	27 2c       	mov	r2, r7
     162:	27 2c       	mov	r2, r7
     164:	27 2c       	mov	r2, r7
     166:	27 2c       	mov	r2, r7
     168:	27 2c       	mov	r2, r7
     16a:	27 2c       	mov	r2, r7
     16c:	27 2c       	mov	r2, r7
     16e:	27 2c       	mov	r2, r7
     170:	27 2c       	mov	r2, r7
     172:	27 2c       	mov	r2, r7
     174:	27 2c       	mov	r2, r7
     176:	27 2c       	mov	r2, r7
     178:	27 2c       	mov	r2, r7
     17a:	27 2c       	mov	r2, r7
     17c:	27 2c       	mov	r2, r7
     17e:	27 2c       	mov	r2, r7
     180:	27 2c       	mov	r2, r7
     182:	27 2c       	mov	r2, r7
     184:	27 2c       	mov	r2, r7
     186:	27 2c       	mov	r2, r7
     188:	27 2c       	mov	r2, r7
     18a:	b6 2b       	or	r27, r22
     18c:	7b 2b       	or	r23, r27
     18e:	7b 2b       	or	r23, r27
     190:	7b 2b       	or	r23, r27
     192:	ec 2a       	or	r14, r28
     194:	b6 2b       	or	r27, r22
     196:	27 2c       	mov	r2, r7
     198:	7b 2b       	or	r23, r27
     19a:	b0 31       	cpi	r27, 0x10	; 16
     19c:	bc 31       	cpi	r27, 0x1C	; 28
     19e:	fb 31       	cpi	r31, 0x1B	; 27
     1a0:	0a 32       	cpi	r16, 0x2A	; 42
     1a2:	15 32       	cpi	r17, 0x25	; 37
     1a4:	19 32       	cpi	r17, 0x29	; 41
     1a6:	2b 32       	cpi	r18, 0x2B	; 43
     1a8:	5d 32       	cpi	r21, 0x2D	; 45
     1aa:	70 32       	cpi	r23, 0x20	; 32
     1ac:	80 32       	cpi	r24, 0x20	; 32
     1ae:	9e 32       	cpi	r25, 0x2E	; 46
     1b0:	6c 33       	cpi	r22, 0x3C	; 60
     1b2:	24 33       	cpi	r18, 0x34	; 52
     1b4:	61 33       	cpi	r22, 0x31	; 49
     1b6:	6c 33       	cpi	r22, 0x3C	; 60
     1b8:	66 33       	cpi	r22, 0x36	; 54

000001ba <__trampolines_end>:
     1ba:	00 c0       	rjmp	.+0      	; 0x1bc <__trampolines_end+0x2>
     1bc:	c1 01       	movw	r24, r2
     1be:	c3 03       	fmuls	r20, r19
     1c0:	02 c2       	rjmp	.+1028   	; 0x5c6 <StartTimer4+0x14>
     1c2:	c6 06       	cpc	r12, r22
     1c4:	07 c7       	rjmp	.+3598   	; 0xfd4 <StartTimer16+0x8>
     1c6:	05 c5       	rjmp	.+2570   	; 0xbd2 <execCmdS0_Automat+0x38>
     1c8:	c4 04       	cpc	r12, r4
     1ca:	cc 0c       	add	r12, r12
     1cc:	0d cd       	rjmp	.-1510   	; 0xfffffbe8 <__eeprom_end+0xff7efbd7>
     1ce:	0f cf       	rjmp	.-482    	; 0xffffffee <__eeprom_end+0xff7effdd>
     1d0:	ce 0e       	add	r12, r30
     1d2:	0a ca       	rjmp	.-3052   	; 0xfffff5e8 <__eeprom_end+0xff7ef5d7>
     1d4:	cb 0b       	sbc	r28, r27
     1d6:	c9 09       	sbc	r28, r9
     1d8:	08 c8       	rjmp	.-4080   	; 0xfffff1ea <__eeprom_end+0xff7ef1d9>
     1da:	d8 18       	sub	r13, r8
     1dc:	19 d9       	rcall	.-3534   	; 0xfffff410 <__eeprom_end+0xff7ef3ff>
     1de:	1b db       	rcall	.-2506   	; 0xfffff816 <__eeprom_end+0xff7ef805>
     1e0:	da 1a       	sub	r13, r26
     1e2:	1e de       	rcall	.-964    	; 0xfffffe20 <__eeprom_end+0xff7efe0f>
     1e4:	df 1f       	adc	r29, r31
     1e6:	dd 1d       	adc	r29, r13
     1e8:	1c dc       	rcall	.-1992   	; 0xfffffa22 <__eeprom_end+0xff7efa11>
     1ea:	14 d4       	rcall	.+2088   	; 0xa14 <execCmdSn+0x16>
     1ec:	d5 15       	cp	r29, r5
     1ee:	d7 17       	cp	r29, r23
     1f0:	16 d6       	rcall	.+3116   	; 0xe1e <W5100_send_data_processing_offset+0x92>
     1f2:	d2 12       	cpse	r13, r18
     1f4:	13 d3       	rcall	.+1574   	; 0x81c <W5100readBlock+0x22>
     1f6:	11 d1       	rcall	.+546    	; 0x41a <ledState>
     1f8:	d0 10       	cpse	r13, r0
     1fa:	f0 30       	cpi	r31, 0x00	; 0
     1fc:	31 f1       	breq	.+76     	; 0x24a <__trampolines_end+0x90>
     1fe:	33 f3       	brvs	.-52     	; 0x1cc <__trampolines_end+0x12>
     200:	f2 32       	cpi	r31, 0x22	; 34
     202:	36 f6       	brtc	.-116    	; 0x190 <__SREG__+0x151>
     204:	f7 37       	cpi	r31, 0x77	; 119
     206:	f5 35       	cpi	r31, 0x55	; 85
     208:	34 f4       	brge	.+12     	; 0x216 <__trampolines_end+0x5c>
     20a:	3c fc       	.word	0xfc3c	; ????
     20c:	fd 3d       	cpi	r31, 0xDD	; 221
     20e:	ff 3f       	cpi	r31, 0xFF	; 255
     210:	3e fe       	.word	0xfe3e	; ????
     212:	fa 3a       	cpi	r31, 0xAA	; 170
     214:	3b fb       	.word	0xfb3b	; ????
     216:	39 f9       	.word	0xf939	; ????
     218:	f8 38       	cpi	r31, 0x88	; 136
     21a:	28 e8       	ldi	r18, 0x88	; 136
     21c:	e9 29       	or	r30, r9
     21e:	eb 2b       	or	r30, r27
     220:	2a ea       	ldi	r18, 0xAA	; 170
     222:	ee 2e       	mov	r14, r30
     224:	2f ef       	ldi	r18, 0xFF	; 255
     226:	2d ed       	ldi	r18, 0xDD	; 221
     228:	ec 2c       	mov	r14, r12
     22a:	e4 24       	eor	r14, r4
     22c:	25 e5       	ldi	r18, 0x55	; 85
     22e:	27 e7       	ldi	r18, 0x77	; 119
     230:	e6 26       	eor	r14, r22
     232:	22 e2       	ldi	r18, 0x22	; 34
     234:	e3 23       	and	r30, r19
     236:	e1 21       	and	r30, r1
     238:	20 e0       	ldi	r18, 0x00	; 0
     23a:	a0 60       	ori	r26, 0x00	; 0
     23c:	61 a1       	ldd	r22, Z+33	; 0x21
     23e:	63 a3       	std	Z+35, r22	; 0x23
     240:	a2 62       	ori	r26, 0x22	; 34
     242:	66 a6       	std	Z+46, r6	; 0x2e
     244:	a7 67       	ori	r26, 0x77	; 119
     246:	a5 65       	ori	r26, 0x55	; 85
     248:	64 a4       	ldd	r6, Z+44	; 0x2c
     24a:	6c ac       	ldd	r6, Y+60	; 0x3c
     24c:	ad 6d       	ori	r26, 0xDD	; 221
     24e:	af 6f       	ori	r26, 0xFF	; 255
     250:	6e ae       	std	Y+62, r6	; 0x3e
     252:	aa 6a       	ori	r26, 0xAA	; 170
     254:	6b ab       	std	Y+51, r22	; 0x33
     256:	69 a9       	ldd	r22, Y+49	; 0x31
     258:	a8 68       	ori	r26, 0x88	; 136
     25a:	78 b8       	out	0x08, r7	; 8
     25c:	b9 79       	andi	r27, 0x99	; 153
     25e:	bb 7b       	andi	r27, 0xBB	; 187
     260:	7a ba       	out	0x1a, r7	; 26
     262:	be 7e       	andi	r27, 0xEE	; 238
     264:	7f bf       	out	0x3f, r23	; 63
     266:	7d bd       	out	0x2d, r23	; 45
     268:	bc 7c       	andi	r27, 0xCC	; 204
     26a:	b4 74       	andi	r27, 0x44	; 68
     26c:	75 b5       	in	r23, 0x25	; 37
     26e:	77 b7       	in	r23, 0x37	; 55
     270:	b6 76       	andi	r27, 0x66	; 102
     272:	72 b2       	in	r7, 0x12	; 18
     274:	b3 73       	andi	r27, 0x33	; 51
     276:	b1 71       	andi	r27, 0x11	; 17
     278:	70 b0       	in	r7, 0x00	; 0
     27a:	50 90 91 51 	lds	r5, 0x5191
     27e:	93 53       	subi	r25, 0x33	; 51
     280:	52 92       	st	-Z, r5
     282:	96 56       	subi	r25, 0x66	; 102
     284:	57 97       	sbiw	r26, 0x17	; 23
     286:	55 95       	asr	r21
     288:	94 54       	subi	r25, 0x44	; 68
     28a:	9c 5c       	subi	r25, 0xCC	; 204
     28c:	5d 9d       	mul	r21, r13
     28e:	5f 9f       	mul	r21, r31
     290:	9e 5e       	subi	r25, 0xEE	; 238
     292:	5a 9a       	sbi	0x0b, 2	; 11
     294:	9b 5b       	subi	r25, 0xBB	; 187
     296:	99 59       	subi	r25, 0x99	; 153
     298:	58 98       	cbi	0x0b, 0	; 11
     29a:	88 48       	sbci	r24, 0x88	; 136
     29c:	49 89       	ldd	r20, Y+17	; 0x11
     29e:	4b 8b       	std	Y+19, r20	; 0x13
     2a0:	8a 4a       	sbci	r24, 0xAA	; 170
     2a2:	4e 8e       	std	Y+30, r4	; 0x1e
     2a4:	8f 4f       	sbci	r24, 0xFF	; 255
     2a6:	8d 4d       	sbci	r24, 0xDD	; 221
     2a8:	4c 8c       	ldd	r4, Y+28	; 0x1c
     2aa:	44 84       	ldd	r4, Z+12	; 0x0c
     2ac:	85 45       	sbci	r24, 0x55	; 85
     2ae:	87 47       	sbci	r24, 0x77	; 119
     2b0:	46 86       	std	Z+14, r4	; 0x0e
     2b2:	82 42       	sbci	r24, 0x22	; 34
     2b4:	43 83       	std	Z+3, r20	; 0x03
     2b6:	41 81       	ldd	r20, Z+1	; 0x01
     2b8:	80 40       	sbci	r24, 0x00	; 0

000002ba <aCRCHi.2497>:
     2ba:	00 c1 81 40 01 c0 80 41 01 c0 80 41 00 c1 81 40     ...@...A...A...@
     2ca:	01 c0 80 41 00 c1 81 40 00 c1 81 40 01 c0 80 41     ...A...@...@...A
     2da:	01 c0 80 41 00 c1 81 40 00 c1 81 40 01 c0 80 41     ...A...@...@...A
     2ea:	00 c1 81 40 01 c0 80 41 01 c0 80 41 00 c1 81 40     ...@...A...A...@
     2fa:	01 c0 80 41 00 c1 81 40 00 c1 81 40 01 c0 80 41     ...A...@...@...A
     30a:	00 c1 81 40 01 c0 80 41 01 c0 80 41 00 c1 81 40     ...@...A...A...@
     31a:	00 c1 81 40 01 c0 80 41 01 c0 80 41 00 c1 81 40     ...@...A...A...@
     32a:	01 c0 80 41 00 c1 81 40 00 c1 81 40 01 c0 80 41     ...A...@...@...A
     33a:	01 c0 80 41 00 c1 81 40 00 c1 81 40 01 c0 80 41     ...A...@...@...A
     34a:	00 c1 81 40 01 c0 80 41 01 c0 80 41 00 c1 81 40     ...@...A...A...@
     35a:	00 c1 81 40 01 c0 80 41 01 c0 80 41 00 c1 81 40     ...@...A...A...@
     36a:	01 c0 80 41 00 c1 81 40 00 c1 81 40 01 c0 80 41     ...A...@...@...A
     37a:	00 c1 81 40 01 c0 80 41 01 c0 80 41 00 c1 81 40     ...@...A...A...@
     38a:	01 c0 80 41 00 c1 81 40 00 c1 81 40 01 c0 80 41     ...A...@...@...A
     39a:	01 c0 80 41 00 c1 81 40 00 c1 81 40 01 c0 80 41     ...A...@...@...A
     3aa:	00 c1 81 40 01 c0 80 41 01 c0 80 41 00 c1 81 40     ...@...A...A...@

000003ba <Tcond>:
     3ba:	31 2e 33 2e 36 2e 31 2e 34 2e 31 2e 32 30 31 37     1.3.6.1.4.1.2017
     3ca:	2e 31 31 2e 35 2e 30 00                             .11.5.0.

000003d2 <Troom>:
     3d2:	31 2e 33 2e 36 2e 31 2e 34 2e 31 2e 32 30 31 37     1.3.6.1.4.1.2017
     3e2:	2e 31 31 2e 34 2e 30 00                             .11.4.0.

000003ea <Tair>:
     3ea:	31 2e 33 2e 36 2e 31 2e 34 2e 31 2e 32 30 31 37     1.3.6.1.4.1.2017
     3fa:	2e 31 31 2e 33 2e 30 00                             .11.3.0.

00000402 <Tfree2cond>:
     402:	31 2e 33 2e 36 2e 31 2e 34 2e 31 2e 32 30 31 37     1.3.6.1.4.1.2017
     412:	2e 31 31 2e 32 2e 30 00                             .11.2.0.

0000041a <ledState>:
     41a:	31 2e 33 2e 36 2e 31 2e 34 2e 31 2e 32 30 31 37     1.3.6.1.4.1.2017
     42a:	2e 31 31 2e 31 2e 30 00                             .11.1.0.

00000432 <AnalogPin0>:
     432:	31 2e 33 2e 36 2e 31 2e 33 2e 32 30 31 37 2e 30     1.3.6.1.3.2017.0
     442:	2e 33 2e 30 00                                      .3.0.

00000447 <sysServices>:
     447:	31 2e 33 2e 36 2e 31 2e 32 2e 31 2e 31 2e 37 2e     1.3.6.1.2.1.1.7.
     457:	30 00                                               0.

00000459 <sysLocation>:
     459:	31 2e 33 2e 36 2e 31 2e 32 2e 31 2e 31 2e 36 2e     1.3.6.1.2.1.1.6.
     469:	30 00                                               0.

0000046b <sysName>:
     46b:	31 2e 33 2e 36 2e 31 2e 32 2e 31 2e 31 2e 35 2e     1.3.6.1.2.1.1.5.
     47b:	30 00                                               0.

0000047d <sysContact>:
     47d:	31 2e 33 2e 36 2e 31 2e 32 2e 31 2e 31 2e 34 2e     1.3.6.1.2.1.1.4.
     48d:	30 00                                               0.

0000048f <sysUpTime>:
     48f:	31 2e 33 2e 36 2e 31 2e 32 2e 31 2e 31 2e 33 2e     1.3.6.1.2.1.1.3.
     49f:	30 00                                               0.

000004a1 <sysObjectID>:
     4a1:	31 2e 33 2e 36 2e 31 2e 32 2e 31 2e 31 2e 32 2e     1.3.6.1.2.1.1.2.
     4b1:	30 00                                               0.

000004b3 <sysDescr>:
     4b3:	31 2e 33 2e 36 2e 31 2e 32 2e 31 2e 31 2e 31 2e     1.3.6.1.2.1.1.1.
     4c3:	30 00                                               0.

000004c5 <MB_Master_List>:
     4c5:	c8 04 01                                            ...

000004c8 <MB_Slave_List>:
     4c8:	01 cc 04 02                                         ....

000004cc <MYQUERRY>:
     4cc:	04 00 00 19 00 00 00 10 01 00 04 00 00 00           ..............

000004da <MB_Timer>:
     4da:	46 00 47 00 c3 02 b2 00 b3 00 cd 02 a4 00 a8 00     F.G.............
     4ea:	d9 02                                               ..

000004ec <MB_Port>:
     4ec:	c6 00 c0 00 c1 00 c2 00 c5 00 c4 00 bb 02 c0 02     ................
     4fc:	c1 02 c2 02                                         ....

00000500 <BR_Tbl>:
     500:	42 03 ff a0 01 fb cf 00 7d 67 00 3f 44 00 2a 33     B.......}g.?D.*3
     510:	00 1f 22 00 1b 19 00 1b 10 00 1b                    .."........

0000051b <Modbus_Map>:
     51b:	f0 09 20 00 05 11 20 00 19 11 3a 00 31 0b 50 00     .. ... ...:.1.P.

0000052b <MB_Role>:
     52b:	01                                                  .

0000052c <__ctors_end>:
     52c:	11 24       	eor	r1, r1
     52e:	1f be       	out	0x3f, r1	; 63
     530:	cf ef       	ldi	r28, 0xFF	; 255
     532:	d1 e2       	ldi	r29, 0x21	; 33
     534:	de bf       	out	0x3e, r29	; 62
     536:	cd bf       	out	0x3d, r28	; 61
     538:	00 e0       	ldi	r16, 0x00	; 0
     53a:	0c bf       	out	0x3c, r16	; 60

0000053c <__do_copy_data>:
     53c:	15 e0       	ldi	r17, 0x05	; 5
     53e:	a0 e0       	ldi	r26, 0x00	; 0
     540:	b2 e0       	ldi	r27, 0x02	; 2
     542:	ea e7       	ldi	r30, 0x7A	; 122
     544:	f2 e7       	ldi	r31, 0x72	; 114
     546:	00 e0       	ldi	r16, 0x00	; 0
     548:	0b bf       	out	0x3b, r16	; 59
     54a:	02 c0       	rjmp	.+4      	; 0x550 <__do_copy_data+0x14>
     54c:	07 90       	elpm	r0, Z+
     54e:	0d 92       	st	X+, r0
     550:	a2 36       	cpi	r26, 0x62	; 98
     552:	b1 07       	cpc	r27, r17
     554:	d9 f7       	brne	.-10     	; 0x54c <__do_copy_data+0x10>

00000556 <__do_clear_bss>:
     556:	23 e1       	ldi	r18, 0x13	; 19
     558:	a2 e6       	ldi	r26, 0x62	; 98
     55a:	b5 e0       	ldi	r27, 0x05	; 5
     55c:	01 c0       	rjmp	.+2      	; 0x560 <.do_clear_bss_start>

0000055e <.do_clear_bss_loop>:
     55e:	1d 92       	st	X+, r1

00000560 <.do_clear_bss_start>:
     560:	ad 38       	cpi	r26, 0x8D	; 141
     562:	b2 07       	cpc	r27, r18
     564:	e1 f7       	brne	.-8      	; 0x55e <.do_clear_bss_loop>
     566:	0e 94 29 35 	call	0x6a52	; 0x6a52 <main>
     56a:	0c 94 3b 39 	jmp	0x7276	; 0x7276 <_exit>

0000056e <__bad_interrupt>:
     56e:	48 cd       	rjmp	.-1392   	; 0x0 <__vectors>

00000570 <rrb>:
}
void LED_On(){
PORTG|=1<<PG3;
}
void LED_Off(){
	PORTG&=~(1<<PG3);
     570:	fc 01       	movw	r30, r24
     572:	80 81       	ld	r24, Z
     574:	08 95       	ret

00000576 <RS485_0>:
     576:	92 b1       	in	r25, 0x02	; 2
     578:	84 e0       	ldi	r24, 0x04	; 4
     57a:	89 27       	eor	r24, r25
     57c:	82 b9       	out	0x02, r24	; 2
     57e:	08 95       	ret

00000580 <MB_LED0>:
     580:	08 95       	ret

00000582 <MB_LED_Err_On_0>:
     582:	08 95       	ret

00000584 <MB_LED_Err_Off_0>:
     584:	08 95       	ret

00000586 <StartTimer0>:
     586:	82 e0       	ldi	r24, 0x02	; 2
     588:	84 bd       	out	0x24, r24	; 36
     58a:	85 ef       	ldi	r24, 0xF5	; 245
     58c:	85 bd       	out	0x25, r24	; 37
     58e:	ee e6       	ldi	r30, 0x6E	; 110
     590:	f0 e0       	ldi	r31, 0x00	; 0
     592:	80 81       	ld	r24, Z
     594:	82 60       	ori	r24, 0x02	; 2
     596:	80 83       	st	Z, r24
     598:	08 95       	ret

0000059a <StartTimer2>:
     59a:	82 e0       	ldi	r24, 0x02	; 2
     59c:	80 93 b0 00 	sts	0x00B0, r24
     5a0:	87 ef       	ldi	r24, 0xF7	; 247
     5a2:	80 93 b1 00 	sts	0x00B1, r24
     5a6:	e0 e7       	ldi	r30, 0x70	; 112
     5a8:	f0 e0       	ldi	r31, 0x00	; 0
     5aa:	80 81       	ld	r24, Z
     5ac:	82 60       	ori	r24, 0x02	; 2
     5ae:	80 83       	st	Z, r24
     5b0:	08 95       	ret

000005b2 <StartTimer4>:
     5b2:	10 92 a0 00 	sts	0x00A0, r1
     5b6:	8d e0       	ldi	r24, 0x0D	; 13
     5b8:	80 93 a1 00 	sts	0x00A1, r24
     5bc:	e2 e7       	ldi	r30, 0x72	; 114
     5be:	f0 e0       	ldi	r31, 0x00	; 0
     5c0:	80 81       	ld	r24, Z
     5c2:	82 60       	ori	r24, 0x02	; 2
     5c4:	80 83       	st	Z, r24
     5c6:	08 95       	ret

000005c8 <erb>:
     5c8:	0c 94 48 38 	jmp	0x7090	; 0x7090 <__eerd_byte_m2561>
     5cc:	08 95       	ret

000005ce <GetSlave>:
     5ce:	28 2f       	mov	r18, r24
     5d0:	30 e0       	ldi	r19, 0x00	; 0
     5d2:	f9 01       	movw	r30, r18
     5d4:	ee 0f       	add	r30, r30
     5d6:	ff 1f       	adc	r31, r31
     5d8:	e2 0f       	add	r30, r18
     5da:	f3 1f       	adc	r31, r19
     5dc:	eb 53       	subi	r30, 0x3B	; 59
     5de:	fb 4f       	sbci	r31, 0xFB	; 251
     5e0:	25 91       	lpm	r18, Z+
     5e2:	34 91       	lpm	r19, Z
     5e4:	e8 2f       	mov	r30, r24
     5e6:	f0 e0       	ldi	r31, 0x00	; 0
     5e8:	eb 57       	subi	r30, 0x7B	; 123
     5ea:	f7 4f       	sbci	r31, 0xF7	; 247
     5ec:	80 81       	ld	r24, Z
     5ee:	a9 01       	movw	r20, r18
     5f0:	64 e0       	ldi	r22, 0x04	; 4
     5f2:	86 9f       	mul	r24, r22
     5f4:	40 0d       	add	r20, r0
     5f6:	51 1d       	adc	r21, r1
     5f8:	11 24       	eor	r1, r1
     5fa:	ca 01       	movw	r24, r20
     5fc:	08 95       	ret

000005fe <MBRecept>:
     5fe:	28 2f       	mov	r18, r24
     600:	30 e0       	ldi	r19, 0x00	; 0
     602:	44 e1       	ldi	r20, 0x14	; 20
     604:	84 9f       	mul	r24, r20
     606:	f0 01       	movw	r30, r0
     608:	11 24       	eor	r1, r1
     60a:	e2 51       	subi	r30, 0x12	; 18
     60c:	fb 4f       	sbci	r31, 0xFB	; 251
     60e:	a5 91       	lpm	r26, Z+
     610:	b4 91       	lpm	r27, Z
     612:	9c 91       	ld	r25, X
     614:	f9 01       	movw	r30, r18
     616:	e2 54       	subi	r30, 0x42	; 66
     618:	f7 4f       	sbci	r31, 0xF7	; 247
     61a:	40 81       	ld	r20, Z
     61c:	51 e0       	ldi	r21, 0x01	; 1
     61e:	54 0f       	add	r21, r20
     620:	50 83       	st	Z, r21
     622:	54 e1       	ldi	r21, 0x14	; 20
     624:	52 9f       	mul	r21, r18
     626:	f0 01       	movw	r30, r0
     628:	53 9f       	mul	r21, r19
     62a:	f0 0d       	add	r31, r0
     62c:	11 24       	eor	r1, r1
     62e:	e4 51       	subi	r30, 0x14	; 20
     630:	fb 4f       	sbci	r31, 0xFB	; 251
     632:	a5 91       	lpm	r26, Z+
     634:	b4 91       	lpm	r27, Z
     636:	5c 91       	ld	r21, X
     638:	f2 2f       	mov	r31, r18
     63a:	ee 27       	eor	r30, r30
     63c:	e4 0f       	add	r30, r20
     63e:	f1 1d       	adc	r31, r1
     640:	e0 57       	subi	r30, 0x70	; 112
     642:	fe 4e       	sbci	r31, 0xEE	; 238
     644:	50 83       	st	Z, r21
     646:	93 ff       	sbrs	r25, 3
     648:	0f c0       	rjmp	.+30     	; 0x668 <MBRecept+0x6a>
     64a:	f9 01       	movw	r30, r18
     64c:	e2 95       	swap	r30
     64e:	f2 95       	swap	r31
     650:	f0 7f       	andi	r31, 0xF0	; 240
     652:	fe 27       	eor	r31, r30
     654:	e0 7f       	andi	r30, 0xF0	; 240
     656:	fe 27       	eor	r31, r30
     658:	ef 50       	subi	r30, 0x0F	; 15
     65a:	ff 4e       	sbci	r31, 0xEF	; 239
     65c:	26 85       	ldd	r18, Z+14	; 0x0e
     65e:	37 85       	ldd	r19, Z+15	; 0x0f
     660:	2f 5f       	subi	r18, 0xFF	; 255
     662:	3f 4f       	sbci	r19, 0xFF	; 255
     664:	37 87       	std	Z+15, r19	; 0x0f
     666:	26 87       	std	Z+14, r18	; 0x0e
     668:	9c 71       	andi	r25, 0x1C	; 28
     66a:	71 f0       	breq	.+28     	; 0x688 <MBRecept+0x8a>
     66c:	21 e0       	ldi	r18, 0x01	; 1
     66e:	30 e0       	ldi	r19, 0x00	; 0
     670:	a9 01       	movw	r20, r18
     672:	02 c0       	rjmp	.+4      	; 0x678 <MBRecept+0x7a>
     674:	44 0f       	add	r20, r20
     676:	55 1f       	adc	r21, r21
     678:	8a 95       	dec	r24
     67a:	e2 f7       	brpl	.-8      	; 0x674 <MBRecept+0x76>
     67c:	ca 01       	movw	r24, r20
     67e:	90 91 9a 05 	lds	r25, 0x059A
     682:	89 2b       	or	r24, r25
     684:	80 93 9a 05 	sts	0x059A, r24
     688:	08 95       	ret

0000068a <GetReg>:
     68a:	0f 93       	push	r16
     68c:	1f 93       	push	r17
     68e:	cf 93       	push	r28
     690:	df 93       	push	r29
     692:	c8 2f       	mov	r28, r24
     694:	d0 e0       	ldi	r29, 0x00	; 0
     696:	fe 01       	movw	r30, r28
     698:	e9 56       	subi	r30, 0x69	; 105
     69a:	f7 4f       	sbci	r31, 0xF7	; 247
     69c:	90 81       	ld	r25, Z
     69e:	92 30       	cpi	r25, 0x02	; 2
     6a0:	09 f1       	breq	.+66     	; 0x6e4 <GetReg+0x5a>
     6a2:	fe 01       	movw	r30, r28
     6a4:	e2 95       	swap	r30
     6a6:	f2 95       	swap	r31
     6a8:	f0 7f       	andi	r31, 0xF0	; 240
     6aa:	fe 27       	eor	r31, r30
     6ac:	e0 7f       	andi	r30, 0xF0	; 240
     6ae:	fe 27       	eor	r31, r30
     6b0:	ed 5d       	subi	r30, 0xDD	; 221
     6b2:	fa 4f       	sbci	r31, 0xFA	; 250
     6b4:	05 91       	lpm	r16, Z+
     6b6:	14 91       	lpm	r17, Z
     6b8:	8a df       	rcall	.-236    	; 0x5ce <GetSlave>
     6ba:	01 96       	adiw	r24, 0x01	; 1
     6bc:	fc 01       	movw	r30, r24
     6be:	85 91       	lpm	r24, Z+
     6c0:	94 91       	lpm	r25, Z
     6c2:	c6 57       	subi	r28, 0x76	; 118
     6c4:	d7 4f       	sbci	r29, 0xF7	; 247
     6c6:	28 81       	ld	r18, Y
     6c8:	fc 01       	movw	r30, r24
     6ca:	37 e0       	ldi	r19, 0x07	; 7
     6cc:	23 9f       	mul	r18, r19
     6ce:	e0 0d       	add	r30, r0
     6d0:	f1 1d       	adc	r31, r1
     6d2:	11 24       	eor	r1, r1
     6d4:	35 96       	adiw	r30, 0x05	; 5
     6d6:	85 91       	lpm	r24, Z+
     6d8:	94 91       	lpm	r25, Z
     6da:	88 0f       	add	r24, r24
     6dc:	99 1f       	adc	r25, r25
     6de:	80 0f       	add	r24, r16
     6e0:	91 1f       	adc	r25, r17
     6e2:	0a c0       	rjmp	.+20     	; 0x6f8 <GetReg+0x6e>
     6e4:	cc 0f       	add	r28, r28
     6e6:	dd 1f       	adc	r29, r29
     6e8:	cc 0f       	add	r28, r28
     6ea:	dd 1f       	adc	r29, r29
     6ec:	cc 0f       	add	r28, r28
     6ee:	dd 1f       	adc	r29, r29
     6f0:	ce 56       	subi	r28, 0x6E	; 110
     6f2:	da 4f       	sbci	r29, 0xFA	; 250
     6f4:	8e 81       	ldd	r24, Y+6	; 0x06
     6f6:	9f 81       	ldd	r25, Y+7	; 0x07
     6f8:	df 91       	pop	r29
     6fa:	cf 91       	pop	r28
     6fc:	1f 91       	pop	r17
     6fe:	0f 91       	pop	r16
     700:	08 95       	ret

00000702 <MB_Timer_ISR>:
     702:	ea ed       	ldi	r30, 0xDA	; 218
     704:	f4 e0       	ldi	r31, 0x04	; 4
     706:	25 91       	lpm	r18, Z+
     708:	34 91       	lpm	r19, Z
     70a:	82 17       	cp	r24, r18
     70c:	93 07       	cpc	r25, r19
     70e:	99 f0       	breq	.+38     	; 0x736 <MB_Timer_ISR+0x34>
     710:	60 e0       	ldi	r22, 0x00	; 0
     712:	6f 5f       	subi	r22, 0xFF	; 255
     714:	26 2f       	mov	r18, r22
     716:	30 e0       	ldi	r19, 0x00	; 0
     718:	f9 01       	movw	r30, r18
     71a:	ee 0f       	add	r30, r30
     71c:	ff 1f       	adc	r31, r31
     71e:	e2 0f       	add	r30, r18
     720:	f3 1f       	adc	r31, r19
     722:	ee 0f       	add	r30, r30
     724:	ff 1f       	adc	r31, r31
     726:	e6 52       	subi	r30, 0x26	; 38
     728:	fb 4f       	sbci	r31, 0xFB	; 251
     72a:	45 91       	lpm	r20, Z+
     72c:	54 91       	lpm	r21, Z
     72e:	84 17       	cp	r24, r20
     730:	95 07       	cpc	r25, r21
     732:	79 f7       	brne	.-34     	; 0x712 <MB_Timer_ISR+0x10>
     734:	03 c0       	rjmp	.+6      	; 0x73c <MB_Timer_ISR+0x3a>
     736:	20 e0       	ldi	r18, 0x00	; 0
     738:	30 e0       	ldi	r19, 0x00	; 0
     73a:	60 e0       	ldi	r22, 0x00	; 0
     73c:	e6 2f       	mov	r30, r22
     73e:	f0 e0       	ldi	r31, 0x00	; 0
     740:	e5 5d       	subi	r30, 0xD5	; 213
     742:	fa 4f       	sbci	r31, 0xFA	; 250
     744:	e4 91       	lpm	r30, Z
     746:	ee 23       	and	r30, r30
     748:	19 f0       	breq	.+6      	; 0x750 <MB_Timer_ISR+0x4e>
     74a:	e1 30       	cpi	r30, 0x01	; 1
     74c:	79 f1       	breq	.+94     	; 0x7ac <MB_Timer_ISR+0xaa>
     74e:	08 95       	ret
     750:	f2 2f       	mov	r31, r18
     752:	ee 27       	eor	r30, r30
     754:	e0 57       	subi	r30, 0x70	; 112
     756:	fe 4e       	sbci	r31, 0xEE	; 238
     758:	90 81       	ld	r25, Z
     75a:	f9 01       	movw	r30, r18
     75c:	ee 58       	subi	r30, 0x8E	; 142
     75e:	f7 4f       	sbci	r31, 0xF7	; 247
     760:	80 81       	ld	r24, Z
     762:	98 13       	cpse	r25, r24
     764:	0f c0       	rjmp	.+30     	; 0x784 <MB_Timer_ISR+0x82>
     766:	40 91 e0 10 	lds	r20, 0x10E0
     76a:	81 e0       	ldi	r24, 0x01	; 1
     76c:	90 e0       	ldi	r25, 0x00	; 0
     76e:	bc 01       	movw	r22, r24
     770:	02 c0       	rjmp	.+4      	; 0x776 <MB_Timer_ISR+0x74>
     772:	66 0f       	add	r22, r22
     774:	77 1f       	adc	r23, r23
     776:	2a 95       	dec	r18
     778:	e2 f7       	brpl	.-8      	; 0x772 <MB_Timer_ISR+0x70>
     77a:	9b 01       	movw	r18, r22
     77c:	24 2b       	or	r18, r20
     77e:	20 93 e0 10 	sts	0x10E0, r18
     782:	08 95       	ret
     784:	f9 01       	movw	r30, r18
     786:	ef 57       	subi	r30, 0x7F	; 127
     788:	f8 4f       	sbci	r31, 0xF8	; 248
     78a:	81 e0       	ldi	r24, 0x01	; 1
     78c:	80 83       	st	Z, r24
     78e:	f9 01       	movw	r30, r18
     790:	e2 95       	swap	r30
     792:	f2 95       	swap	r31
     794:	f0 7f       	andi	r31, 0xF0	; 240
     796:	fe 27       	eor	r31, r30
     798:	e0 7f       	andi	r30, 0xF0	; 240
     79a:	fe 27       	eor	r31, r30
     79c:	ef 50       	subi	r30, 0x0F	; 15
     79e:	ff 4e       	sbci	r31, 0xEF	; 239
     7a0:	80 81       	ld	r24, Z
     7a2:	91 81       	ldd	r25, Z+1	; 0x01
     7a4:	01 96       	adiw	r24, 0x01	; 1
     7a6:	91 83       	std	Z+1, r25	; 0x01
     7a8:	80 83       	st	Z, r24
     7aa:	08 95       	ret
     7ac:	40 91 e0 10 	lds	r20, 0x10E0
     7b0:	81 e0       	ldi	r24, 0x01	; 1
     7b2:	90 e0       	ldi	r25, 0x00	; 0
     7b4:	bc 01       	movw	r22, r24
     7b6:	02 c0       	rjmp	.+4      	; 0x7bc <MB_Timer_ISR+0xba>
     7b8:	66 0f       	add	r22, r22
     7ba:	77 1f       	adc	r23, r23
     7bc:	2a 95       	dec	r18
     7be:	e2 f7       	brpl	.-8      	; 0x7b8 <MB_Timer_ISR+0xb6>
     7c0:	9b 01       	movw	r18, r22
     7c2:	24 2b       	or	r18, r20
     7c4:	20 93 e0 10 	sts	0x10E0, r18
     7c8:	08 95       	ret

000007ca <SPItransfer>:
     7ca:	8e bd       	out	0x2e, r24	; 46
     7cc:	00 00       	nop
     7ce:	0d b4       	in	r0, 0x2d	; 45
     7d0:	07 fe       	sbrs	r0, 7
     7d2:	fd cf       	rjmp	.-6      	; 0x7ce <SPItransfer+0x4>
     7d4:	8e b5       	in	r24, 0x2e	; 46
     7d6:	08 95       	ret

000007d8 <W5100read>:
     7d8:	cf 93       	push	r28
     7da:	df 93       	push	r29
     7dc:	c8 2f       	mov	r28, r24
     7de:	d9 2f       	mov	r29, r25
     7e0:	28 98       	cbi	0x05, 0	; 5
     7e2:	8f e0       	ldi	r24, 0x0F	; 15
     7e4:	f2 df       	rcall	.-28     	; 0x7ca <SPItransfer>
     7e6:	8d 2f       	mov	r24, r29
     7e8:	f0 df       	rcall	.-32     	; 0x7ca <SPItransfer>
     7ea:	8c 2f       	mov	r24, r28
     7ec:	ee df       	rcall	.-36     	; 0x7ca <SPItransfer>
     7ee:	80 e0       	ldi	r24, 0x00	; 0
     7f0:	ec df       	rcall	.-40     	; 0x7ca <SPItransfer>
     7f2:	28 9a       	sbi	0x05, 0	; 5
     7f4:	df 91       	pop	r29
     7f6:	cf 91       	pop	r28
     7f8:	08 95       	ret

000007fa <W5100readBlock>:
     7fa:	cf 92       	push	r12
     7fc:	df 92       	push	r13
     7fe:	ef 92       	push	r14
     800:	ff 92       	push	r15
     802:	0f 93       	push	r16
     804:	1f 93       	push	r17
     806:	cf 93       	push	r28
     808:	df 93       	push	r29
     80a:	ec 01       	movw	r28, r24
     80c:	6a 01       	movw	r12, r20
     80e:	41 15       	cp	r20, r1
     810:	51 05       	cpc	r21, r1
     812:	b1 f0       	breq	.+44     	; 0x840 <W5100readBlock+0x46>
     814:	06 2f       	mov	r16, r22
     816:	17 2f       	mov	r17, r23
     818:	7c 01       	movw	r14, r24
     81a:	e4 0e       	add	r14, r20
     81c:	f5 1e       	adc	r15, r21
     81e:	28 98       	cbi	0x05, 0	; 5
     820:	8f e0       	ldi	r24, 0x0F	; 15
     822:	d3 df       	rcall	.-90     	; 0x7ca <SPItransfer>
     824:	8d 2f       	mov	r24, r29
     826:	d1 df       	rcall	.-94     	; 0x7ca <SPItransfer>
     828:	8c 2f       	mov	r24, r28
     82a:	cf df       	rcall	.-98     	; 0x7ca <SPItransfer>
     82c:	21 96       	adiw	r28, 0x01	; 1
     82e:	80 e0       	ldi	r24, 0x00	; 0
     830:	cc df       	rcall	.-104    	; 0x7ca <SPItransfer>
     832:	f8 01       	movw	r30, r16
     834:	81 93       	st	Z+, r24
     836:	8f 01       	movw	r16, r30
     838:	28 9a       	sbi	0x05, 0	; 5
     83a:	ce 15       	cp	r28, r14
     83c:	df 05       	cpc	r29, r15
     83e:	79 f7       	brne	.-34     	; 0x81e <W5100readBlock+0x24>
     840:	c6 01       	movw	r24, r12
     842:	df 91       	pop	r29
     844:	cf 91       	pop	r28
     846:	1f 91       	pop	r17
     848:	0f 91       	pop	r16
     84a:	ff 90       	pop	r15
     84c:	ef 90       	pop	r14
     84e:	df 90       	pop	r13
     850:	cf 90       	pop	r12
     852:	08 95       	ret

00000854 <W5100writeBlock>:
     854:	cf 92       	push	r12
     856:	df 92       	push	r13
     858:	ef 92       	push	r14
     85a:	ff 92       	push	r15
     85c:	0f 93       	push	r16
     85e:	1f 93       	push	r17
     860:	cf 93       	push	r28
     862:	df 93       	push	r29
     864:	ec 01       	movw	r28, r24
     866:	6a 01       	movw	r12, r20
     868:	41 15       	cp	r20, r1
     86a:	51 05       	cpc	r21, r1
     86c:	a9 f0       	breq	.+42     	; 0x898 <W5100writeBlock+0x44>
     86e:	06 2f       	mov	r16, r22
     870:	17 2f       	mov	r17, r23
     872:	7c 01       	movw	r14, r24
     874:	e4 0e       	add	r14, r20
     876:	f5 1e       	adc	r15, r21
     878:	28 98       	cbi	0x05, 0	; 5
     87a:	80 ef       	ldi	r24, 0xF0	; 240
     87c:	a6 df       	rcall	.-180    	; 0x7ca <SPItransfer>
     87e:	8d 2f       	mov	r24, r29
     880:	a4 df       	rcall	.-184    	; 0x7ca <SPItransfer>
     882:	8c 2f       	mov	r24, r28
     884:	a2 df       	rcall	.-188    	; 0x7ca <SPItransfer>
     886:	21 96       	adiw	r28, 0x01	; 1
     888:	f8 01       	movw	r30, r16
     88a:	81 91       	ld	r24, Z+
     88c:	8f 01       	movw	r16, r30
     88e:	9d df       	rcall	.-198    	; 0x7ca <SPItransfer>
     890:	28 9a       	sbi	0x05, 0	; 5
     892:	ce 15       	cp	r28, r14
     894:	df 05       	cpc	r29, r15
     896:	81 f7       	brne	.-32     	; 0x878 <W5100writeBlock+0x24>
     898:	c6 01       	movw	r24, r12
     89a:	df 91       	pop	r29
     89c:	cf 91       	pop	r28
     89e:	1f 91       	pop	r17
     8a0:	0f 91       	pop	r16
     8a2:	ff 90       	pop	r15
     8a4:	ef 90       	pop	r14
     8a6:	df 90       	pop	r13
     8a8:	cf 90       	pop	r12
     8aa:	08 95       	ret

000008ac <W5100_init>:
     8ac:	ef 92       	push	r14
     8ae:	ff 92       	push	r15
     8b0:	0f 93       	push	r16
     8b2:	1f 93       	push	r17
     8b4:	25 9a       	sbi	0x04, 5	; 4
     8b6:	2d 9a       	sbi	0x05, 5	; 5
     8b8:	2d 98       	cbi	0x05, 5	; 5
     8ba:	2f ef       	ldi	r18, 0xFF	; 255
     8bc:	83 ec       	ldi	r24, 0xC3	; 195
     8be:	99 e0       	ldi	r25, 0x09	; 9
     8c0:	21 50       	subi	r18, 0x01	; 1
     8c2:	80 40       	sbci	r24, 0x00	; 0
     8c4:	90 40       	sbci	r25, 0x00	; 0
     8c6:	e1 f7       	brne	.-8      	; 0x8c0 <W5100_init+0x14>
     8c8:	00 c0       	rjmp	.+0      	; 0x8ca <W5100_init+0x1e>
     8ca:	00 00       	nop
     8cc:	6c 9a       	sbi	0x0d, 4	; 13
     8ce:	74 98       	cbi	0x0e, 4	; 14
     8d0:	2f ef       	ldi	r18, 0xFF	; 255
     8d2:	83 ec       	ldi	r24, 0xC3	; 195
     8d4:	99 e0       	ldi	r25, 0x09	; 9
     8d6:	21 50       	subi	r18, 0x01	; 1
     8d8:	80 40       	sbci	r24, 0x00	; 0
     8da:	90 40       	sbci	r25, 0x00	; 0
     8dc:	e1 f7       	brne	.-8      	; 0x8d6 <W5100_init+0x2a>
     8de:	00 c0       	rjmp	.+0      	; 0x8e0 <W5100_init+0x34>
     8e0:	00 00       	nop
     8e2:	6c 98       	cbi	0x0d, 4	; 13
     8e4:	2f ef       	ldi	r18, 0xFF	; 255
     8e6:	83 ec       	ldi	r24, 0xC3	; 195
     8e8:	99 e0       	ldi	r25, 0x09	; 9
     8ea:	21 50       	subi	r18, 0x01	; 1
     8ec:	80 40       	sbci	r24, 0x00	; 0
     8ee:	90 40       	sbci	r25, 0x00	; 0
     8f0:	e1 f7       	brne	.-8      	; 0x8ea <W5100_init+0x3e>
     8f2:	00 c0       	rjmp	.+0      	; 0x8f4 <W5100_init+0x48>
     8f4:	00 00       	nop
     8f6:	80 e0       	ldi	r24, 0x00	; 0
     8f8:	90 e4       	ldi	r25, 0x40	; 64
     8fa:	90 93 d3 0c 	sts	0x0CD3, r25
     8fe:	80 93 d2 0c 	sts	0x0CD2, r24
     902:	80 e0       	ldi	r24, 0x00	; 0
     904:	90 e6       	ldi	r25, 0x60	; 96
     906:	90 93 65 08 	sts	0x0865, r25
     90a:	80 93 64 08 	sts	0x0864, r24
     90e:	80 e0       	ldi	r24, 0x00	; 0
     910:	98 e4       	ldi	r25, 0x48	; 72
     912:	90 93 d5 0c 	sts	0x0CD5, r25
     916:	80 93 d4 0c 	sts	0x0CD4, r24
     91a:	80 e0       	ldi	r24, 0x00	; 0
     91c:	98 e6       	ldi	r25, 0x68	; 104
     91e:	90 93 67 08 	sts	0x0867, r25
     922:	80 93 66 08 	sts	0x0866, r24
     926:	80 e0       	ldi	r24, 0x00	; 0
     928:	90 e5       	ldi	r25, 0x50	; 80
     92a:	90 93 d7 0c 	sts	0x0CD7, r25
     92e:	80 93 d6 0c 	sts	0x0CD6, r24
     932:	80 e0       	ldi	r24, 0x00	; 0
     934:	90 e7       	ldi	r25, 0x70	; 112
     936:	90 93 69 08 	sts	0x0869, r25
     93a:	80 93 68 08 	sts	0x0868, r24
     93e:	80 e0       	ldi	r24, 0x00	; 0
     940:	98 e5       	ldi	r25, 0x58	; 88
     942:	90 93 d9 0c 	sts	0x0CD9, r25
     946:	80 93 d8 0c 	sts	0x0CD8, r24
     94a:	80 e0       	ldi	r24, 0x00	; 0
     94c:	98 e7       	ldi	r25, 0x78	; 120
     94e:	90 93 6b 08 	sts	0x086B, r25
     952:	80 93 6a 08 	sts	0x086A, r24
     956:	60 e8       	ldi	r22, 0x80	; 128
     958:	80 e0       	ldi	r24, 0x00	; 0
     95a:	90 e0       	ldi	r25, 0x00	; 0
     95c:	37 d0       	rcall	.+110    	; 0x9cc <W5100write>
     95e:	65 e5       	ldi	r22, 0x55	; 85
     960:	8b e1       	ldi	r24, 0x1B	; 27
     962:	90 e0       	ldi	r25, 0x00	; 0
     964:	33 d0       	rcall	.+102    	; 0x9cc <W5100write>
     966:	65 e5       	ldi	r22, 0x55	; 85
     968:	8a e1       	ldi	r24, 0x1A	; 26
     96a:	90 e0       	ldi	r25, 0x00	; 0
     96c:	2f d0       	rcall	.+94     	; 0x9cc <W5100write>
     96e:	68 94       	set
     970:	ee 24       	eor	r14, r14
     972:	e1 f8       	bld	r14, 1
     974:	f1 2c       	mov	r15, r1
     976:	0e ed       	ldi	r16, 0xDE	; 222
     978:	10 e0       	ldi	r17, 0x00	; 0
     97a:	2c ec       	ldi	r18, 0xCC	; 204
     97c:	30 e0       	ldi	r19, 0x00	; 0
     97e:	4b eb       	ldi	r20, 0xBB	; 187
     980:	50 e0       	ldi	r21, 0x00	; 0
     982:	6a ea       	ldi	r22, 0xAA	; 170
     984:	70 e0       	ldi	r23, 0x00	; 0
     986:	80 e0       	ldi	r24, 0x00	; 0
     988:	90 e0       	ldi	r25, 0x00	; 0
     98a:	51 d0       	rcall	.+162    	; 0xa2e <W5100_SetMac>
     98c:	2c e4       	ldi	r18, 0x4C	; 76
     98e:	30 e0       	ldi	r19, 0x00	; 0
     990:	40 e0       	ldi	r20, 0x00	; 0
     992:	50 e0       	ldi	r21, 0x00	; 0
     994:	60 e0       	ldi	r22, 0x00	; 0
     996:	70 e0       	ldi	r23, 0x00	; 0
     998:	8a e0       	ldi	r24, 0x0A	; 10
     99a:	90 e0       	ldi	r25, 0x00	; 0
     99c:	6f d0       	rcall	.+222    	; 0xa7c <W5100_SetIP>
     99e:	2e ef       	ldi	r18, 0xFE	; 254
     9a0:	30 e0       	ldi	r19, 0x00	; 0
     9a2:	40 e0       	ldi	r20, 0x00	; 0
     9a4:	50 e0       	ldi	r21, 0x00	; 0
     9a6:	60 e0       	ldi	r22, 0x00	; 0
     9a8:	70 e0       	ldi	r23, 0x00	; 0
     9aa:	8a e0       	ldi	r24, 0x0A	; 10
     9ac:	90 e0       	ldi	r25, 0x00	; 0
     9ae:	81 d0       	rcall	.+258    	; 0xab2 <W5100_SetGateway>
     9b0:	20 e0       	ldi	r18, 0x00	; 0
     9b2:	30 e0       	ldi	r19, 0x00	; 0
     9b4:	4f ef       	ldi	r20, 0xFF	; 255
     9b6:	50 e0       	ldi	r21, 0x00	; 0
     9b8:	6f ef       	ldi	r22, 0xFF	; 255
     9ba:	70 e0       	ldi	r23, 0x00	; 0
     9bc:	8f ef       	ldi	r24, 0xFF	; 255
     9be:	90 e0       	ldi	r25, 0x00	; 0
     9c0:	93 d0       	rcall	.+294    	; 0xae8 <W5100_SetMask>
     9c2:	1f 91       	pop	r17
     9c4:	0f 91       	pop	r16
     9c6:	ff 90       	pop	r15
     9c8:	ef 90       	pop	r14
     9ca:	08 95       	ret

000009cc <W5100write>:
     9cc:	1f 93       	push	r17
     9ce:	cf 93       	push	r28
     9d0:	df 93       	push	r29
     9d2:	d8 2f       	mov	r29, r24
     9d4:	19 2f       	mov	r17, r25
     9d6:	c6 2f       	mov	r28, r22
     9d8:	28 98       	cbi	0x05, 0	; 5
     9da:	80 ef       	ldi	r24, 0xF0	; 240
     9dc:	f6 de       	rcall	.-532    	; 0x7ca <SPItransfer>
     9de:	81 2f       	mov	r24, r17
     9e0:	f4 de       	rcall	.-536    	; 0x7ca <SPItransfer>
     9e2:	8d 2f       	mov	r24, r29
     9e4:	f2 de       	rcall	.-540    	; 0x7ca <SPItransfer>
     9e6:	8c 2f       	mov	r24, r28
     9e8:	f0 de       	rcall	.-544    	; 0x7ca <SPItransfer>
     9ea:	83 30       	cpi	r24, 0x03	; 3
     9ec:	11 f0       	breq	.+4      	; 0x9f2 <W5100write+0x26>
     9ee:	28 9a       	sbi	0x05, 0	; 5
     9f0:	5d df       	rcall	.-326    	; 0x8ac <W5100_init>
     9f2:	28 9a       	sbi	0x05, 0	; 5
     9f4:	81 e0       	ldi	r24, 0x01	; 1
     9f6:	df 91       	pop	r29
     9f8:	cf 91       	pop	r28
     9fa:	1f 91       	pop	r17
     9fc:	08 95       	ret

000009fe <execCmdSn>:
     9fe:	1f 93       	push	r17
     a00:	cf 93       	push	r28
     a02:	df 93       	push	r29
     a04:	c8 2f       	mov	r28, r24
     a06:	d0 e0       	ldi	r29, 0x00	; 0
     a08:	dc 2f       	mov	r29, r28
     a0a:	cc 27       	eor	r28, r28
     a0c:	cf 5f       	subi	r28, 0xFF	; 255
     a0e:	db 4f       	sbci	r29, 0xFB	; 251
     a10:	ce 01       	movw	r24, r28
     a12:	dc df       	rcall	.-72     	; 0x9cc <W5100write>
     a14:	10 e0       	ldi	r17, 0x00	; 0
     a16:	01 c0       	rjmp	.+2      	; 0xa1a <execCmdSn+0x1c>
     a18:	1f 5f       	subi	r17, 0xFF	; 255
     a1a:	ce 01       	movw	r24, r28
     a1c:	dd de       	rcall	.-582    	; 0x7d8 <W5100read>
     a1e:	88 23       	and	r24, r24
     a20:	11 f0       	breq	.+4      	; 0xa26 <execCmdSn+0x28>
     a22:	1f 3f       	cpi	r17, 0xFF	; 255
     a24:	c9 f7       	brne	.-14     	; 0xa18 <execCmdSn+0x1a>
     a26:	df 91       	pop	r29
     a28:	cf 91       	pop	r28
     a2a:	1f 91       	pop	r17
     a2c:	08 95       	ret

00000a2e <W5100_SetMac>:
     a2e:	ef 92       	push	r14
     a30:	0f 93       	push	r16
     a32:	1f 93       	push	r17
     a34:	cf 93       	push	r28
     a36:	df 93       	push	r29
     a38:	16 2f       	mov	r17, r22
     a3a:	d4 2f       	mov	r29, r20
     a3c:	c2 2f       	mov	r28, r18
     a3e:	68 2f       	mov	r22, r24
     a40:	89 e0       	ldi	r24, 0x09	; 9
     a42:	90 e0       	ldi	r25, 0x00	; 0
     a44:	c3 df       	rcall	.-122    	; 0x9cc <W5100write>
     a46:	61 2f       	mov	r22, r17
     a48:	8a e0       	ldi	r24, 0x0A	; 10
     a4a:	90 e0       	ldi	r25, 0x00	; 0
     a4c:	bf df       	rcall	.-130    	; 0x9cc <W5100write>
     a4e:	6d 2f       	mov	r22, r29
     a50:	8b e0       	ldi	r24, 0x0B	; 11
     a52:	90 e0       	ldi	r25, 0x00	; 0
     a54:	bb df       	rcall	.-138    	; 0x9cc <W5100write>
     a56:	6c 2f       	mov	r22, r28
     a58:	8c e0       	ldi	r24, 0x0C	; 12
     a5a:	90 e0       	ldi	r25, 0x00	; 0
     a5c:	b7 df       	rcall	.-146    	; 0x9cc <W5100write>
     a5e:	60 2f       	mov	r22, r16
     a60:	8d e0       	ldi	r24, 0x0D	; 13
     a62:	90 e0       	ldi	r25, 0x00	; 0
     a64:	b3 df       	rcall	.-154    	; 0x9cc <W5100write>
     a66:	6e 2d       	mov	r22, r14
     a68:	8e e0       	ldi	r24, 0x0E	; 14
     a6a:	90 e0       	ldi	r25, 0x00	; 0
     a6c:	af df       	rcall	.-162    	; 0x9cc <W5100write>
     a6e:	81 e0       	ldi	r24, 0x01	; 1
     a70:	df 91       	pop	r29
     a72:	cf 91       	pop	r28
     a74:	1f 91       	pop	r17
     a76:	0f 91       	pop	r16
     a78:	ef 90       	pop	r14
     a7a:	08 95       	ret

00000a7c <W5100_SetIP>:
     a7c:	1f 93       	push	r17
     a7e:	cf 93       	push	r28
     a80:	df 93       	push	r29
     a82:	16 2f       	mov	r17, r22
     a84:	d4 2f       	mov	r29, r20
     a86:	c2 2f       	mov	r28, r18
     a88:	68 2f       	mov	r22, r24
     a8a:	8f e0       	ldi	r24, 0x0F	; 15
     a8c:	90 e0       	ldi	r25, 0x00	; 0
     a8e:	9e df       	rcall	.-196    	; 0x9cc <W5100write>
     a90:	61 2f       	mov	r22, r17
     a92:	80 e1       	ldi	r24, 0x10	; 16
     a94:	90 e0       	ldi	r25, 0x00	; 0
     a96:	9a df       	rcall	.-204    	; 0x9cc <W5100write>
     a98:	6d 2f       	mov	r22, r29
     a9a:	81 e1       	ldi	r24, 0x11	; 17
     a9c:	90 e0       	ldi	r25, 0x00	; 0
     a9e:	96 df       	rcall	.-212    	; 0x9cc <W5100write>
     aa0:	6c 2f       	mov	r22, r28
     aa2:	82 e1       	ldi	r24, 0x12	; 18
     aa4:	90 e0       	ldi	r25, 0x00	; 0
     aa6:	92 df       	rcall	.-220    	; 0x9cc <W5100write>
     aa8:	81 e0       	ldi	r24, 0x01	; 1
     aaa:	df 91       	pop	r29
     aac:	cf 91       	pop	r28
     aae:	1f 91       	pop	r17
     ab0:	08 95       	ret

00000ab2 <W5100_SetGateway>:
     ab2:	1f 93       	push	r17
     ab4:	cf 93       	push	r28
     ab6:	df 93       	push	r29
     ab8:	16 2f       	mov	r17, r22
     aba:	d4 2f       	mov	r29, r20
     abc:	c2 2f       	mov	r28, r18
     abe:	68 2f       	mov	r22, r24
     ac0:	81 e0       	ldi	r24, 0x01	; 1
     ac2:	90 e0       	ldi	r25, 0x00	; 0
     ac4:	83 df       	rcall	.-250    	; 0x9cc <W5100write>
     ac6:	61 2f       	mov	r22, r17
     ac8:	82 e0       	ldi	r24, 0x02	; 2
     aca:	90 e0       	ldi	r25, 0x00	; 0
     acc:	7f df       	rcall	.-258    	; 0x9cc <W5100write>
     ace:	6d 2f       	mov	r22, r29
     ad0:	83 e0       	ldi	r24, 0x03	; 3
     ad2:	90 e0       	ldi	r25, 0x00	; 0
     ad4:	7b df       	rcall	.-266    	; 0x9cc <W5100write>
     ad6:	6c 2f       	mov	r22, r28
     ad8:	84 e0       	ldi	r24, 0x04	; 4
     ada:	90 e0       	ldi	r25, 0x00	; 0
     adc:	77 df       	rcall	.-274    	; 0x9cc <W5100write>
     ade:	81 e0       	ldi	r24, 0x01	; 1
     ae0:	df 91       	pop	r29
     ae2:	cf 91       	pop	r28
     ae4:	1f 91       	pop	r17
     ae6:	08 95       	ret

00000ae8 <W5100_SetMask>:
     ae8:	1f 93       	push	r17
     aea:	cf 93       	push	r28
     aec:	df 93       	push	r29
     aee:	16 2f       	mov	r17, r22
     af0:	d4 2f       	mov	r29, r20
     af2:	c2 2f       	mov	r28, r18
     af4:	68 2f       	mov	r22, r24
     af6:	85 e0       	ldi	r24, 0x05	; 5
     af8:	90 e0       	ldi	r25, 0x00	; 0
     afa:	68 df       	rcall	.-304    	; 0x9cc <W5100write>
     afc:	61 2f       	mov	r22, r17
     afe:	86 e0       	ldi	r24, 0x06	; 6
     b00:	90 e0       	ldi	r25, 0x00	; 0
     b02:	64 df       	rcall	.-312    	; 0x9cc <W5100write>
     b04:	6d 2f       	mov	r22, r29
     b06:	87 e0       	ldi	r24, 0x07	; 7
     b08:	90 e0       	ldi	r25, 0x00	; 0
     b0a:	60 df       	rcall	.-320    	; 0x9cc <W5100write>
     b0c:	6c 2f       	mov	r22, r28
     b0e:	88 e0       	ldi	r24, 0x08	; 8
     b10:	90 e0       	ldi	r25, 0x00	; 0
     b12:	5c df       	rcall	.-328    	; 0x9cc <W5100write>
     b14:	81 e0       	ldi	r24, 0x01	; 1
     b16:	df 91       	pop	r29
     b18:	cf 91       	pop	r28
     b1a:	1f 91       	pop	r17
     b1c:	08 95       	ret

00000b1e <readSn>:
     b1e:	90 e0       	ldi	r25, 0x00	; 0
     b20:	04 96       	adiw	r24, 0x04	; 4
     b22:	98 2f       	mov	r25, r24
     b24:	88 27       	eor	r24, r24
     b26:	86 0f       	add	r24, r22
     b28:	97 1f       	adc	r25, r23
     b2a:	56 ce       	rjmp	.-852    	; 0x7d8 <W5100read>
     b2c:	08 95       	ret

00000b2e <readSnTX_FSR>:
     b2e:	1f 93       	push	r17
     b30:	cf 93       	push	r28
     b32:	df 93       	push	r29
     b34:	18 2f       	mov	r17, r24
     b36:	60 e2       	ldi	r22, 0x20	; 32
     b38:	70 e0       	ldi	r23, 0x00	; 0
     b3a:	f1 df       	rcall	.-30     	; 0xb1e <readSn>
     b3c:	c8 2f       	mov	r28, r24
     b3e:	d0 e0       	ldi	r29, 0x00	; 0
     b40:	61 e2       	ldi	r22, 0x21	; 33
     b42:	70 e0       	ldi	r23, 0x00	; 0
     b44:	81 2f       	mov	r24, r17
     b46:	eb df       	rcall	.-42     	; 0xb1e <readSn>
     b48:	dc 2f       	mov	r29, r28
     b4a:	cc 27       	eor	r28, r28
     b4c:	9e 01       	movw	r18, r28
     b4e:	28 2b       	or	r18, r24
     b50:	c9 01       	movw	r24, r18
     b52:	df 91       	pop	r29
     b54:	cf 91       	pop	r28
     b56:	1f 91       	pop	r17
     b58:	08 95       	ret

00000b5a <readSnRX_RSR>:
     b5a:	1f 93       	push	r17
     b5c:	cf 93       	push	r28
     b5e:	df 93       	push	r29
     b60:	18 2f       	mov	r17, r24
     b62:	66 e2       	ldi	r22, 0x26	; 38
     b64:	70 e0       	ldi	r23, 0x00	; 0
     b66:	db df       	rcall	.-74     	; 0xb1e <readSn>
     b68:	c8 2f       	mov	r28, r24
     b6a:	d0 e0       	ldi	r29, 0x00	; 0
     b6c:	67 e2       	ldi	r22, 0x27	; 39
     b6e:	70 e0       	ldi	r23, 0x00	; 0
     b70:	81 2f       	mov	r24, r17
     b72:	d5 df       	rcall	.-86     	; 0xb1e <readSn>
     b74:	dc 2f       	mov	r29, r28
     b76:	cc 27       	eor	r28, r28
     b78:	9e 01       	movw	r18, r28
     b7a:	28 2b       	or	r18, r24
     b7c:	c9 01       	movw	r24, r18
     b7e:	df 91       	pop	r29
     b80:	cf 91       	pop	r28
     b82:	1f 91       	pop	r17
     b84:	08 95       	ret

00000b86 <writeSn>:
     b86:	9b 01       	movw	r18, r22
     b88:	90 e0       	ldi	r25, 0x00	; 0
     b8a:	04 96       	adiw	r24, 0x04	; 4
     b8c:	98 2f       	mov	r25, r24
     b8e:	88 27       	eor	r24, r24
     b90:	64 2f       	mov	r22, r20
     b92:	82 0f       	add	r24, r18
     b94:	93 1f       	adc	r25, r19
     b96:	1a cf       	rjmp	.-460    	; 0x9cc <W5100write>
     b98:	08 95       	ret

00000b9a <execCmdS0_Automat>:
     b9a:	88 23       	and	r24, r24
     b9c:	41 f0       	breq	.+16     	; 0xbae <execCmdS0_Automat+0x14>
     b9e:	80 91 7b 05 	lds	r24, 0x057B
     ba2:	81 30       	cpi	r24, 0x01	; 1
     ba4:	41 f0       	breq	.+16     	; 0xbb6 <execCmdS0_Automat+0x1c>
     ba6:	18 f0       	brcs	.+6      	; 0xbae <execCmdS0_Automat+0x14>
     ba8:	82 30       	cpi	r24, 0x02	; 2
     baa:	c1 f0       	breq	.+48     	; 0xbdc <execCmdS0_Automat+0x42>
     bac:	24 c0       	rjmp	.+72     	; 0xbf6 <execCmdS0_Automat+0x5c>
     bae:	81 e0       	ldi	r24, 0x01	; 1
     bb0:	80 93 7b 05 	sts	0x057B, r24
     bb4:	20 c0       	rjmp	.+64     	; 0xbf6 <execCmdS0_Automat+0x5c>
     bb6:	46 2f       	mov	r20, r22
     bb8:	61 e0       	ldi	r22, 0x01	; 1
     bba:	70 e0       	ldi	r23, 0x00	; 0
     bbc:	80 e0       	ldi	r24, 0x00	; 0
     bbe:	e3 df       	rcall	.-58     	; 0xb86 <writeSn>
     bc0:	61 e0       	ldi	r22, 0x01	; 1
     bc2:	70 e0       	ldi	r23, 0x00	; 0
     bc4:	80 e0       	ldi	r24, 0x00	; 0
     bc6:	ab df       	rcall	.-170    	; 0xb1e <readSn>
     bc8:	88 23       	and	r24, r24
     bca:	21 f0       	breq	.+8      	; 0xbd4 <execCmdS0_Automat+0x3a>
     bcc:	82 e0       	ldi	r24, 0x02	; 2
     bce:	80 93 7b 05 	sts	0x057B, r24
     bd2:	11 c0       	rjmp	.+34     	; 0xbf6 <execCmdS0_Automat+0x5c>
     bd4:	8f ef       	ldi	r24, 0xFF	; 255
     bd6:	80 93 7b 05 	sts	0x057B, r24
     bda:	0d c0       	rjmp	.+26     	; 0xbf6 <execCmdS0_Automat+0x5c>
     bdc:	61 e0       	ldi	r22, 0x01	; 1
     bde:	70 e0       	ldi	r23, 0x00	; 0
     be0:	80 e0       	ldi	r24, 0x00	; 0
     be2:	9d df       	rcall	.-198    	; 0xb1e <readSn>
     be4:	88 23       	and	r24, r24
     be6:	21 f0       	breq	.+8      	; 0xbf0 <execCmdS0_Automat+0x56>
     be8:	82 e0       	ldi	r24, 0x02	; 2
     bea:	80 93 7b 05 	sts	0x057B, r24
     bee:	03 c0       	rjmp	.+6      	; 0xbf6 <execCmdS0_Automat+0x5c>
     bf0:	8f ef       	ldi	r24, 0xFF	; 255
     bf2:	80 93 7b 05 	sts	0x057B, r24
     bf6:	80 91 7b 05 	lds	r24, 0x057B
     bfa:	08 95       	ret

00000bfc <execCmdS1_Automat>:
     bfc:	88 23       	and	r24, r24
     bfe:	41 f0       	breq	.+16     	; 0xc10 <execCmdS1_Automat+0x14>
     c00:	80 91 7a 05 	lds	r24, 0x057A
     c04:	81 30       	cpi	r24, 0x01	; 1
     c06:	41 f0       	breq	.+16     	; 0xc18 <execCmdS1_Automat+0x1c>
     c08:	18 f0       	brcs	.+6      	; 0xc10 <execCmdS1_Automat+0x14>
     c0a:	82 30       	cpi	r24, 0x02	; 2
     c0c:	c1 f0       	breq	.+48     	; 0xc3e <execCmdS1_Automat+0x42>
     c0e:	24 c0       	rjmp	.+72     	; 0xc58 <execCmdS1_Automat+0x5c>
     c10:	81 e0       	ldi	r24, 0x01	; 1
     c12:	80 93 7a 05 	sts	0x057A, r24
     c16:	20 c0       	rjmp	.+64     	; 0xc58 <execCmdS1_Automat+0x5c>
     c18:	46 2f       	mov	r20, r22
     c1a:	61 e0       	ldi	r22, 0x01	; 1
     c1c:	70 e0       	ldi	r23, 0x00	; 0
     c1e:	81 e0       	ldi	r24, 0x01	; 1
     c20:	b2 df       	rcall	.-156    	; 0xb86 <writeSn>
     c22:	61 e0       	ldi	r22, 0x01	; 1
     c24:	70 e0       	ldi	r23, 0x00	; 0
     c26:	81 e0       	ldi	r24, 0x01	; 1
     c28:	7a df       	rcall	.-268    	; 0xb1e <readSn>
     c2a:	88 23       	and	r24, r24
     c2c:	21 f0       	breq	.+8      	; 0xc36 <execCmdS1_Automat+0x3a>
     c2e:	82 e0       	ldi	r24, 0x02	; 2
     c30:	80 93 7a 05 	sts	0x057A, r24
     c34:	11 c0       	rjmp	.+34     	; 0xc58 <execCmdS1_Automat+0x5c>
     c36:	8f ef       	ldi	r24, 0xFF	; 255
     c38:	80 93 7a 05 	sts	0x057A, r24
     c3c:	0d c0       	rjmp	.+26     	; 0xc58 <execCmdS1_Automat+0x5c>
     c3e:	61 e0       	ldi	r22, 0x01	; 1
     c40:	70 e0       	ldi	r23, 0x00	; 0
     c42:	81 e0       	ldi	r24, 0x01	; 1
     c44:	6c df       	rcall	.-296    	; 0xb1e <readSn>
     c46:	88 23       	and	r24, r24
     c48:	21 f0       	breq	.+8      	; 0xc52 <execCmdS1_Automat+0x56>
     c4a:	82 e0       	ldi	r24, 0x02	; 2
     c4c:	80 93 7a 05 	sts	0x057A, r24
     c50:	03 c0       	rjmp	.+6      	; 0xc58 <execCmdS1_Automat+0x5c>
     c52:	8f ef       	ldi	r24, 0xFF	; 255
     c54:	80 93 7a 05 	sts	0x057A, r24
     c58:	80 91 7a 05 	lds	r24, 0x057A
     c5c:	08 95       	ret

00000c5e <execCmdS2_Automat>:
     c5e:	88 23       	and	r24, r24
     c60:	41 f0       	breq	.+16     	; 0xc72 <execCmdS2_Automat+0x14>
     c62:	80 91 79 05 	lds	r24, 0x0579
     c66:	81 30       	cpi	r24, 0x01	; 1
     c68:	41 f0       	breq	.+16     	; 0xc7a <execCmdS2_Automat+0x1c>
     c6a:	18 f0       	brcs	.+6      	; 0xc72 <execCmdS2_Automat+0x14>
     c6c:	82 30       	cpi	r24, 0x02	; 2
     c6e:	c1 f0       	breq	.+48     	; 0xca0 <execCmdS2_Automat+0x42>
     c70:	24 c0       	rjmp	.+72     	; 0xcba <execCmdS2_Automat+0x5c>
     c72:	81 e0       	ldi	r24, 0x01	; 1
     c74:	80 93 79 05 	sts	0x0579, r24
     c78:	20 c0       	rjmp	.+64     	; 0xcba <execCmdS2_Automat+0x5c>
     c7a:	46 2f       	mov	r20, r22
     c7c:	61 e0       	ldi	r22, 0x01	; 1
     c7e:	70 e0       	ldi	r23, 0x00	; 0
     c80:	82 e0       	ldi	r24, 0x02	; 2
     c82:	81 df       	rcall	.-254    	; 0xb86 <writeSn>
     c84:	61 e0       	ldi	r22, 0x01	; 1
     c86:	70 e0       	ldi	r23, 0x00	; 0
     c88:	82 e0       	ldi	r24, 0x02	; 2
     c8a:	49 df       	rcall	.-366    	; 0xb1e <readSn>
     c8c:	88 23       	and	r24, r24
     c8e:	21 f0       	breq	.+8      	; 0xc98 <execCmdS2_Automat+0x3a>
     c90:	82 e0       	ldi	r24, 0x02	; 2
     c92:	80 93 79 05 	sts	0x0579, r24
     c96:	11 c0       	rjmp	.+34     	; 0xcba <execCmdS2_Automat+0x5c>
     c98:	8f ef       	ldi	r24, 0xFF	; 255
     c9a:	80 93 79 05 	sts	0x0579, r24
     c9e:	0d c0       	rjmp	.+26     	; 0xcba <execCmdS2_Automat+0x5c>
     ca0:	61 e0       	ldi	r22, 0x01	; 1
     ca2:	70 e0       	ldi	r23, 0x00	; 0
     ca4:	82 e0       	ldi	r24, 0x02	; 2
     ca6:	3b df       	rcall	.-394    	; 0xb1e <readSn>
     ca8:	88 23       	and	r24, r24
     caa:	21 f0       	breq	.+8      	; 0xcb4 <execCmdS2_Automat+0x56>
     cac:	82 e0       	ldi	r24, 0x02	; 2
     cae:	80 93 79 05 	sts	0x0579, r24
     cb2:	03 c0       	rjmp	.+6      	; 0xcba <execCmdS2_Automat+0x5c>
     cb4:	8f ef       	ldi	r24, 0xFF	; 255
     cb6:	80 93 79 05 	sts	0x0579, r24
     cba:	80 91 79 05 	lds	r24, 0x0579
     cbe:	08 95       	ret

00000cc0 <W5100_writeS0DPORT>:
     cc0:	cf 93       	push	r28
     cc2:	c8 2f       	mov	r28, r24
     cc4:	69 2f       	mov	r22, r25
     cc6:	80 e1       	ldi	r24, 0x10	; 16
     cc8:	94 e0       	ldi	r25, 0x04	; 4
     cca:	80 de       	rcall	.-768    	; 0x9cc <W5100write>
     ccc:	6c 2f       	mov	r22, r28
     cce:	81 e1       	ldi	r24, 0x11	; 17
     cd0:	94 e0       	ldi	r25, 0x04	; 4
     cd2:	7c de       	rcall	.-776    	; 0x9cc <W5100write>
     cd4:	cf 91       	pop	r28
     cd6:	08 95       	ret

00000cd8 <W5100_writeS0DIPR>:
     cd8:	cf 93       	push	r28
     cda:	df 93       	push	r29
     cdc:	ec 01       	movw	r28, r24
     cde:	68 81       	ld	r22, Y
     ce0:	8c e0       	ldi	r24, 0x0C	; 12
     ce2:	94 e0       	ldi	r25, 0x04	; 4
     ce4:	73 de       	rcall	.-794    	; 0x9cc <W5100write>
     ce6:	69 81       	ldd	r22, Y+1	; 0x01
     ce8:	8d e0       	ldi	r24, 0x0D	; 13
     cea:	94 e0       	ldi	r25, 0x04	; 4
     cec:	6f de       	rcall	.-802    	; 0x9cc <W5100write>
     cee:	6a 81       	ldd	r22, Y+2	; 0x02
     cf0:	8e e0       	ldi	r24, 0x0E	; 14
     cf2:	94 e0       	ldi	r25, 0x04	; 4
     cf4:	6b de       	rcall	.-810    	; 0x9cc <W5100write>
     cf6:	6b 81       	ldd	r22, Y+3	; 0x03
     cf8:	8f e0       	ldi	r24, 0x0F	; 15
     cfa:	94 e0       	ldi	r25, 0x04	; 4
     cfc:	67 de       	rcall	.-818    	; 0x9cc <W5100write>
     cfe:	df 91       	pop	r29
     d00:	cf 91       	pop	r28
     d02:	08 95       	ret

00000d04 <W5100_writeS1DPORT>:
     d04:	cf 93       	push	r28
     d06:	c8 2f       	mov	r28, r24
     d08:	69 2f       	mov	r22, r25
     d0a:	80 e1       	ldi	r24, 0x10	; 16
     d0c:	95 e0       	ldi	r25, 0x05	; 5
     d0e:	5e de       	rcall	.-836    	; 0x9cc <W5100write>
     d10:	6c 2f       	mov	r22, r28
     d12:	81 e1       	ldi	r24, 0x11	; 17
     d14:	95 e0       	ldi	r25, 0x05	; 5
     d16:	5a de       	rcall	.-844    	; 0x9cc <W5100write>
     d18:	cf 91       	pop	r28
     d1a:	08 95       	ret

00000d1c <W5100_writeS1DIPR>:
     d1c:	cf 93       	push	r28
     d1e:	df 93       	push	r29
     d20:	ec 01       	movw	r28, r24
     d22:	68 81       	ld	r22, Y
     d24:	8c e0       	ldi	r24, 0x0C	; 12
     d26:	95 e0       	ldi	r25, 0x05	; 5
     d28:	51 de       	rcall	.-862    	; 0x9cc <W5100write>
     d2a:	69 81       	ldd	r22, Y+1	; 0x01
     d2c:	8d e0       	ldi	r24, 0x0D	; 13
     d2e:	95 e0       	ldi	r25, 0x05	; 5
     d30:	4d de       	rcall	.-870    	; 0x9cc <W5100write>
     d32:	6a 81       	ldd	r22, Y+2	; 0x02
     d34:	8e e0       	ldi	r24, 0x0E	; 14
     d36:	95 e0       	ldi	r25, 0x05	; 5
     d38:	49 de       	rcall	.-878    	; 0x9cc <W5100write>
     d3a:	6b 81       	ldd	r22, Y+3	; 0x03
     d3c:	8f e0       	ldi	r24, 0x0F	; 15
     d3e:	95 e0       	ldi	r25, 0x05	; 5
     d40:	45 de       	rcall	.-886    	; 0x9cc <W5100write>
     d42:	df 91       	pop	r29
     d44:	cf 91       	pop	r28
     d46:	08 95       	ret

00000d48 <W5100_writeS2DPORT>:
     d48:	cf 93       	push	r28
     d4a:	c8 2f       	mov	r28, r24
     d4c:	69 2f       	mov	r22, r25
     d4e:	80 e1       	ldi	r24, 0x10	; 16
     d50:	96 e0       	ldi	r25, 0x06	; 6
     d52:	3c de       	rcall	.-904    	; 0x9cc <W5100write>
     d54:	6c 2f       	mov	r22, r28
     d56:	81 e1       	ldi	r24, 0x11	; 17
     d58:	96 e0       	ldi	r25, 0x06	; 6
     d5a:	38 de       	rcall	.-912    	; 0x9cc <W5100write>
     d5c:	cf 91       	pop	r28
     d5e:	08 95       	ret

00000d60 <W5100_writeS2DIPR>:
     d60:	cf 93       	push	r28
     d62:	df 93       	push	r29
     d64:	ec 01       	movw	r28, r24
     d66:	68 81       	ld	r22, Y
     d68:	8c e0       	ldi	r24, 0x0C	; 12
     d6a:	96 e0       	ldi	r25, 0x06	; 6
     d6c:	2f de       	rcall	.-930    	; 0x9cc <W5100write>
     d6e:	69 81       	ldd	r22, Y+1	; 0x01
     d70:	8d e0       	ldi	r24, 0x0D	; 13
     d72:	96 e0       	ldi	r25, 0x06	; 6
     d74:	2b de       	rcall	.-938    	; 0x9cc <W5100write>
     d76:	6a 81       	ldd	r22, Y+2	; 0x02
     d78:	8e e0       	ldi	r24, 0x0E	; 14
     d7a:	96 e0       	ldi	r25, 0x06	; 6
     d7c:	27 de       	rcall	.-946    	; 0x9cc <W5100write>
     d7e:	6b 81       	ldd	r22, Y+3	; 0x03
     d80:	8f e0       	ldi	r24, 0x0F	; 15
     d82:	96 e0       	ldi	r25, 0x06	; 6
     d84:	23 de       	rcall	.-954    	; 0x9cc <W5100write>
     d86:	df 91       	pop	r29
     d88:	cf 91       	pop	r28
     d8a:	08 95       	ret

00000d8c <W5100_send_data_processing_offset>:
     d8c:	9f 92       	push	r9
     d8e:	af 92       	push	r10
     d90:	bf 92       	push	r11
     d92:	cf 92       	push	r12
     d94:	df 92       	push	r13
     d96:	ef 92       	push	r14
     d98:	ff 92       	push	r15
     d9a:	0f 93       	push	r16
     d9c:	1f 93       	push	r17
     d9e:	cf 93       	push	r28
     da0:	df 93       	push	r29
     da2:	98 2e       	mov	r9, r24
     da4:	5b 01       	movw	r10, r22
     da6:	7a 01       	movw	r14, r20
     da8:	e9 01       	movw	r28, r18
     daa:	64 e2       	ldi	r22, 0x24	; 36
     dac:	70 e0       	ldi	r23, 0x00	; 0
     dae:	b7 de       	rcall	.-658    	; 0xb1e <readSn>
     db0:	c8 2e       	mov	r12, r24
     db2:	d1 2c       	mov	r13, r1
     db4:	65 e2       	ldi	r22, 0x25	; 37
     db6:	70 e0       	ldi	r23, 0x00	; 0
     db8:	89 2d       	mov	r24, r9
     dba:	b1 de       	rcall	.-670    	; 0xb1e <readSn>
     dbc:	1c 2d       	mov	r17, r12
     dbe:	00 27       	eor	r16, r16
     dc0:	08 2b       	or	r16, r24
     dc2:	0a 0d       	add	r16, r10
     dc4:	1b 1d       	adc	r17, r11
     dc6:	98 01       	movw	r18, r16
     dc8:	37 70       	andi	r19, 0x07	; 7
     dca:	c9 2c       	mov	r12, r9
     dcc:	d1 2c       	mov	r13, r1
     dce:	f6 01       	movw	r30, r12
     dd0:	ee 0f       	add	r30, r30
     dd2:	ff 1f       	adc	r31, r31
     dd4:	ee 52       	subi	r30, 0x2E	; 46
     dd6:	f3 4f       	sbci	r31, 0xF3	; 243
     dd8:	80 81       	ld	r24, Z
     dda:	91 81       	ldd	r25, Z+1	; 0x01
     ddc:	82 0f       	add	r24, r18
     dde:	93 1f       	adc	r25, r19
     de0:	a9 01       	movw	r20, r18
     de2:	4c 0f       	add	r20, r28
     de4:	5d 1f       	adc	r21, r29
     de6:	41 30       	cpi	r20, 0x01	; 1
     de8:	58 40       	sbci	r21, 0x08	; 8
     dea:	b8 f0       	brcs	.+46     	; 0xe1a <W5100_send_data_processing_offset+0x8e>
     dec:	40 e0       	ldi	r20, 0x00	; 0
     dee:	58 e0       	ldi	r21, 0x08	; 8
     df0:	5a 01       	movw	r10, r20
     df2:	a2 1a       	sub	r10, r18
     df4:	b3 0a       	sbc	r11, r19
     df6:	a5 01       	movw	r20, r10
     df8:	b7 01       	movw	r22, r14
     dfa:	2c dd       	rcall	.-1448   	; 0x854 <W5100writeBlock>
     dfc:	ae 01       	movw	r20, r28
     dfe:	4a 19       	sub	r20, r10
     e00:	5b 09       	sbc	r21, r11
     e02:	b7 01       	movw	r22, r14
     e04:	6a 0d       	add	r22, r10
     e06:	7b 1d       	adc	r23, r11
     e08:	f6 01       	movw	r30, r12
     e0a:	ee 0f       	add	r30, r30
     e0c:	ff 1f       	adc	r31, r31
     e0e:	ee 52       	subi	r30, 0x2E	; 46
     e10:	f3 4f       	sbci	r31, 0xF3	; 243
     e12:	80 81       	ld	r24, Z
     e14:	91 81       	ldd	r25, Z+1	; 0x01
     e16:	1e dd       	rcall	.-1476   	; 0x854 <W5100writeBlock>
     e18:	03 c0       	rjmp	.+6      	; 0xe20 <W5100_send_data_processing_offset+0x94>
     e1a:	ae 01       	movw	r20, r28
     e1c:	b7 01       	movw	r22, r14
     e1e:	1a dd       	rcall	.-1484   	; 0x854 <W5100writeBlock>
     e20:	c0 0f       	add	r28, r16
     e22:	d1 1f       	adc	r29, r17
     e24:	4d 2f       	mov	r20, r29
     e26:	64 e2       	ldi	r22, 0x24	; 36
     e28:	70 e0       	ldi	r23, 0x00	; 0
     e2a:	89 2d       	mov	r24, r9
     e2c:	ac de       	rcall	.-680    	; 0xb86 <writeSn>
     e2e:	4c 2f       	mov	r20, r28
     e30:	65 e2       	ldi	r22, 0x25	; 37
     e32:	70 e0       	ldi	r23, 0x00	; 0
     e34:	89 2d       	mov	r24, r9
     e36:	a7 de       	rcall	.-690    	; 0xb86 <writeSn>
     e38:	df 91       	pop	r29
     e3a:	cf 91       	pop	r28
     e3c:	1f 91       	pop	r17
     e3e:	0f 91       	pop	r16
     e40:	ff 90       	pop	r15
     e42:	ef 90       	pop	r14
     e44:	df 90       	pop	r13
     e46:	cf 90       	pop	r12
     e48:	bf 90       	pop	r11
     e4a:	af 90       	pop	r10
     e4c:	9f 90       	pop	r9
     e4e:	08 95       	ret

00000e50 <W5100_getTXFreeSize>:
     e50:	df 92       	push	r13
     e52:	ef 92       	push	r14
     e54:	ff 92       	push	r15
     e56:	0f 93       	push	r16
     e58:	1f 93       	push	r17
     e5a:	cf 93       	push	r28
     e5c:	df 93       	push	r29
     e5e:	d8 2e       	mov	r13, r24
     e60:	0f ef       	ldi	r16, 0xFF	; 255
     e62:	1f ef       	ldi	r17, 0xFF	; 255
     e64:	e1 2c       	mov	r14, r1
     e66:	f1 2c       	mov	r15, r1
     e68:	8d 2d       	mov	r24, r13
     e6a:	61 de       	rcall	.-830    	; 0xb2e <readSnTX_FSR>
     e6c:	ec 01       	movw	r28, r24
     e6e:	00 97       	sbiw	r24, 0x00	; 0
     e70:	19 f0       	breq	.+6      	; 0xe78 <W5100_getTXFreeSize+0x28>
     e72:	8d 2d       	mov	r24, r13
     e74:	5c de       	rcall	.-840    	; 0xb2e <readSnTX_FSR>
     e76:	7c 01       	movw	r14, r24
     e78:	ec 16       	cp	r14, r28
     e7a:	fd 06       	cpc	r15, r29
     e7c:	29 f0       	breq	.+10     	; 0xe88 <W5100_getTXFreeSize+0x38>
     e7e:	01 50       	subi	r16, 0x01	; 1
     e80:	11 09       	sbc	r17, r1
     e82:	01 15       	cp	r16, r1
     e84:	11 05       	cpc	r17, r1
     e86:	81 f7       	brne	.-32     	; 0xe68 <W5100_getTXFreeSize+0x18>
     e88:	c7 01       	movw	r24, r14
     e8a:	df 91       	pop	r29
     e8c:	cf 91       	pop	r28
     e8e:	1f 91       	pop	r17
     e90:	0f 91       	pop	r16
     e92:	ff 90       	pop	r15
     e94:	ef 90       	pop	r14
     e96:	df 90       	pop	r13
     e98:	08 95       	ret

00000e9a <bufferData>:
     e9a:	df 92       	push	r13
     e9c:	ef 92       	push	r14
     e9e:	ff 92       	push	r15
     ea0:	0f 93       	push	r16
     ea2:	1f 93       	push	r17
     ea4:	cf 93       	push	r28
     ea6:	df 93       	push	r29
     ea8:	d8 2e       	mov	r13, r24
     eaa:	8b 01       	movw	r16, r22
     eac:	7a 01       	movw	r14, r20
     eae:	e9 01       	movw	r28, r18
     eb0:	cf df       	rcall	.-98     	; 0xe50 <W5100_getTXFreeSize>
     eb2:	8c 17       	cp	r24, r28
     eb4:	9d 07       	cpc	r25, r29
     eb6:	18 f4       	brcc	.+6      	; 0xebe <bufferData+0x24>
     eb8:	8d 2d       	mov	r24, r13
     eba:	ca df       	rcall	.-108    	; 0xe50 <W5100_getTXFreeSize>
     ebc:	ec 01       	movw	r28, r24
     ebe:	9e 01       	movw	r18, r28
     ec0:	a7 01       	movw	r20, r14
     ec2:	b8 01       	movw	r22, r16
     ec4:	8d 2d       	mov	r24, r13
     ec6:	62 df       	rcall	.-316    	; 0xd8c <W5100_send_data_processing_offset>
     ec8:	ce 01       	movw	r24, r28
     eca:	df 91       	pop	r29
     ecc:	cf 91       	pop	r28
     ece:	1f 91       	pop	r17
     ed0:	0f 91       	pop	r16
     ed2:	ff 90       	pop	r15
     ed4:	ef 90       	pop	r14
     ed6:	df 90       	pop	r13
     ed8:	08 95       	ret

00000eda <printByte>:
     eda:	20 e3       	ldi	r18, 0x30	; 48
     edc:	fc 01       	movw	r30, r24
     ede:	20 83       	st	Z, r18
     ee0:	32 96       	adiw	r30, 0x02	; 2
     ee2:	86 2f       	mov	r24, r22
     ee4:	82 95       	swap	r24
     ee6:	8f 70       	andi	r24, 0x0F	; 15
     ee8:	90 e1       	ldi	r25, 0x10	; 16
     eea:	89 9f       	mul	r24, r25
     eec:	60 19       	sub	r22, r0
     eee:	11 24       	eor	r1, r1
     ef0:	6a 30       	cpi	r22, 0x0A	; 10
     ef2:	10 f4       	brcc	.+4      	; 0xef8 <printByte+0x1e>
     ef4:	60 5d       	subi	r22, 0xD0	; 208
     ef6:	01 c0       	rjmp	.+2      	; 0xefa <printByte+0x20>
     ef8:	69 5c       	subi	r22, 0xC9	; 201
     efa:	62 93       	st	-Z, r22
     efc:	88 23       	and	r24, r24
     efe:	11 f0       	breq	.+4      	; 0xf04 <printByte+0x2a>
     f00:	68 2f       	mov	r22, r24
     f02:	ef cf       	rjmp	.-34     	; 0xee2 <printByte+0x8>
     f04:	08 95       	ret

00000f06 <IntOff>:
     f06:	8f b7       	in	r24, 0x3f	; 63
     f08:	80 78       	andi	r24, 0x80	; 128
     f0a:	80 93 7e 07 	sts	0x077E, r24
     f0e:	f8 94       	cli
     f10:	80 91 7e 07 	lds	r24, 0x077E
     f14:	08 95       	ret

00000f16 <IntOn>:
     f16:	80 91 7e 07 	lds	r24, 0x077E
     f1a:	88 23       	and	r24, r24
     f1c:	09 f0       	breq	.+2      	; 0xf20 <IntOn+0xa>
     f1e:	78 94       	sei
     f20:	80 91 7e 07 	lds	r24, 0x077E
     f24:	08 95       	ret

00000f26 <WdtOn>:
     f26:	a8 95       	wdr
     f28:	2f e0       	ldi	r18, 0x0F	; 15
     f2a:	88 e1       	ldi	r24, 0x18	; 24
     f2c:	90 e0       	ldi	r25, 0x00	; 0
     f2e:	0f b6       	in	r0, 0x3f	; 63
     f30:	f8 94       	cli
     f32:	a8 95       	wdr
     f34:	80 93 60 00 	sts	0x0060, r24
     f38:	0f be       	out	0x3f, r0	; 63
     f3a:	20 93 60 00 	sts	0x0060, r18
     f3e:	08 95       	ret

00000f40 <Timer16Alloc>:
     f40:	80 91 ca 02 	lds	r24, 0x02CA
     f44:	91 e0       	ldi	r25, 0x01	; 1
     f46:	98 0f       	add	r25, r24
     f48:	90 93 ca 02 	sts	0x02CA, r25
     f4c:	08 95       	ret

00000f4e <Timer32Alloc>:
     f4e:	80 91 c9 02 	lds	r24, 0x02C9
     f52:	91 e0       	ldi	r25, 0x01	; 1
     f54:	98 0f       	add	r25, r24
     f56:	90 93 c9 02 	sts	0x02C9, r25
     f5a:	08 95       	ret

00000f5c <StartTimer8>:
     f5c:	cf 93       	push	r28
     f5e:	df 93       	push	r29
     f60:	c8 2f       	mov	r28, r24
     f62:	d6 2f       	mov	r29, r22
     f64:	d0 df       	rcall	.-96     	; 0xf06 <IntOff>
     f66:	ec 2f       	mov	r30, r28
     f68:	f0 e0       	ldi	r31, 0x00	; 0
     f6a:	e2 5e       	subi	r30, 0xE2	; 226
     f6c:	f8 4f       	sbci	r31, 0xF8	; 248
     f6e:	d0 83       	st	Z, r29
     f70:	dd 23       	and	r29, r29
     f72:	a9 f0       	breq	.+42     	; 0xf9e <StartTimer8+0x42>
     f74:	ec 2f       	mov	r30, r28
     f76:	e6 95       	lsr	r30
     f78:	e6 95       	lsr	r30
     f7a:	e6 95       	lsr	r30
     f7c:	f0 e0       	ldi	r31, 0x00	; 0
     f7e:	e0 55       	subi	r30, 0x50	; 80
     f80:	fa 4f       	sbci	r31, 0xFA	; 250
     f82:	40 81       	ld	r20, Z
     f84:	c7 70       	andi	r28, 0x07	; 7
     f86:	21 e0       	ldi	r18, 0x01	; 1
     f88:	30 e0       	ldi	r19, 0x00	; 0
     f8a:	c9 01       	movw	r24, r18
     f8c:	02 c0       	rjmp	.+4      	; 0xf92 <StartTimer8+0x36>
     f8e:	88 0f       	add	r24, r24
     f90:	99 1f       	adc	r25, r25
     f92:	ca 95       	dec	r28
     f94:	e2 f7       	brpl	.-8      	; 0xf8e <StartTimer8+0x32>
     f96:	80 95       	com	r24
     f98:	84 23       	and	r24, r20
     f9a:	80 83       	st	Z, r24
     f9c:	13 c0       	rjmp	.+38     	; 0xfc4 <StartTimer8+0x68>
     f9e:	ec 2f       	mov	r30, r28
     fa0:	e6 95       	lsr	r30
     fa2:	e6 95       	lsr	r30
     fa4:	e6 95       	lsr	r30
     fa6:	f0 e0       	ldi	r31, 0x00	; 0
     fa8:	e0 55       	subi	r30, 0x50	; 80
     faa:	fa 4f       	sbci	r31, 0xFA	; 250
     fac:	40 81       	ld	r20, Z
     fae:	c7 70       	andi	r28, 0x07	; 7
     fb0:	21 e0       	ldi	r18, 0x01	; 1
     fb2:	30 e0       	ldi	r19, 0x00	; 0
     fb4:	c9 01       	movw	r24, r18
     fb6:	02 c0       	rjmp	.+4      	; 0xfbc <StartTimer8+0x60>
     fb8:	88 0f       	add	r24, r24
     fba:	99 1f       	adc	r25, r25
     fbc:	ca 95       	dec	r28
     fbe:	e2 f7       	brpl	.-8      	; 0xfb8 <StartTimer8+0x5c>
     fc0:	84 2b       	or	r24, r20
     fc2:	80 83       	st	Z, r24
     fc4:	a8 df       	rcall	.-176    	; 0xf16 <IntOn>
     fc6:	df 91       	pop	r29
     fc8:	cf 91       	pop	r28
     fca:	08 95       	ret

00000fcc <StartTimer16>:
     fcc:	1f 93       	push	r17
     fce:	cf 93       	push	r28
     fd0:	df 93       	push	r29
     fd2:	18 2f       	mov	r17, r24
     fd4:	eb 01       	movw	r28, r22
     fd6:	97 df       	rcall	.-210    	; 0xf06 <IntOff>
     fd8:	e1 2f       	mov	r30, r17
     fda:	f0 e0       	ldi	r31, 0x00	; 0
     fdc:	ee 0f       	add	r30, r30
     fde:	ff 1f       	adc	r31, r31
     fe0:	e2 5a       	subi	r30, 0xA2	; 162
     fe2:	f9 4f       	sbci	r31, 0xF9	; 249
     fe4:	d1 83       	std	Z+1, r29	; 0x01
     fe6:	c0 83       	st	Z, r28
     fe8:	cd 2b       	or	r28, r29
     fea:	a9 f0       	breq	.+42     	; 0x1016 <StartTimer16+0x4a>
     fec:	e1 2f       	mov	r30, r17
     fee:	e6 95       	lsr	r30
     ff0:	e6 95       	lsr	r30
     ff2:	e6 95       	lsr	r30
     ff4:	f0 e0       	ldi	r31, 0x00	; 0
     ff6:	ed 55       	subi	r30, 0x5D	; 93
     ff8:	fa 4f       	sbci	r31, 0xFA	; 250
     ffa:	40 81       	ld	r20, Z
     ffc:	17 70       	andi	r17, 0x07	; 7
     ffe:	21 e0       	ldi	r18, 0x01	; 1
    1000:	30 e0       	ldi	r19, 0x00	; 0
    1002:	c9 01       	movw	r24, r18
    1004:	02 c0       	rjmp	.+4      	; 0x100a <StartTimer16+0x3e>
    1006:	88 0f       	add	r24, r24
    1008:	99 1f       	adc	r25, r25
    100a:	1a 95       	dec	r17
    100c:	e2 f7       	brpl	.-8      	; 0x1006 <StartTimer16+0x3a>
    100e:	80 95       	com	r24
    1010:	84 23       	and	r24, r20
    1012:	80 83       	st	Z, r24
    1014:	13 c0       	rjmp	.+38     	; 0x103c <StartTimer16+0x70>
    1016:	e1 2f       	mov	r30, r17
    1018:	e6 95       	lsr	r30
    101a:	e6 95       	lsr	r30
    101c:	e6 95       	lsr	r30
    101e:	f0 e0       	ldi	r31, 0x00	; 0
    1020:	ed 55       	subi	r30, 0x5D	; 93
    1022:	fa 4f       	sbci	r31, 0xFA	; 250
    1024:	40 81       	ld	r20, Z
    1026:	17 70       	andi	r17, 0x07	; 7
    1028:	21 e0       	ldi	r18, 0x01	; 1
    102a:	30 e0       	ldi	r19, 0x00	; 0
    102c:	c9 01       	movw	r24, r18
    102e:	02 c0       	rjmp	.+4      	; 0x1034 <StartTimer16+0x68>
    1030:	88 0f       	add	r24, r24
    1032:	99 1f       	adc	r25, r25
    1034:	1a 95       	dec	r17
    1036:	e2 f7       	brpl	.-8      	; 0x1030 <StartTimer16+0x64>
    1038:	84 2b       	or	r24, r20
    103a:	80 83       	st	Z, r24
    103c:	6c df       	rcall	.-296    	; 0xf16 <IntOn>
    103e:	df 91       	pop	r29
    1040:	cf 91       	pop	r28
    1042:	1f 91       	pop	r17
    1044:	08 95       	ret

00001046 <SlavesOn>:
    1046:	28 2f       	mov	r18, r24
    1048:	30 e0       	ldi	r19, 0x00	; 0
    104a:	f9 01       	movw	r30, r18
    104c:	ee 0f       	add	r30, r30
    104e:	ff 1f       	adc	r31, r31
    1050:	ee 0f       	add	r30, r30
    1052:	ff 1f       	adc	r31, r31
    1054:	e4 57       	subi	r30, 0x74	; 116
    1056:	fa 4f       	sbci	r31, 0xFA	; 250
    1058:	10 82       	st	Z, r1
    105a:	11 82       	std	Z+1, r1	; 0x01
    105c:	12 82       	std	Z+2, r1	; 0x02
    105e:	13 82       	std	Z+3, r1	; 0x03
    1060:	f9 01       	movw	r30, r18
    1062:	ed 59       	subi	r30, 0x9D	; 157
    1064:	f7 4f       	sbci	r31, 0xF7	; 247
    1066:	60 81       	ld	r22, Z
    1068:	94 e6       	ldi	r25, 0x64	; 100
    106a:	69 9f       	mul	r22, r25
    106c:	b0 01       	movw	r22, r0
    106e:	11 24       	eor	r1, r1
    1070:	90 91 8b 05 	lds	r25, 0x058B
    1074:	9f 5f       	subi	r25, 0xFF	; 255
    1076:	89 0f       	add	r24, r25
    1078:	a9 cf       	rjmp	.-174    	; 0xfcc <StartTimer16>
    107a:	08 95       	ret

0000107c <NextSlave>:
    107c:	2f 92       	push	r2
    107e:	3f 92       	push	r3
    1080:	4f 92       	push	r4
    1082:	5f 92       	push	r5
    1084:	6f 92       	push	r6
    1086:	7f 92       	push	r7
    1088:	8f 92       	push	r8
    108a:	9f 92       	push	r9
    108c:	af 92       	push	r10
    108e:	bf 92       	push	r11
    1090:	cf 92       	push	r12
    1092:	df 92       	push	r13
    1094:	ef 92       	push	r14
    1096:	ff 92       	push	r15
    1098:	0f 93       	push	r16
    109a:	1f 93       	push	r17
    109c:	cf 93       	push	r28
    109e:	df 93       	push	r29
    10a0:	38 2e       	mov	r3, r24
    10a2:	90 e0       	ldi	r25, 0x00	; 0
    10a4:	fc 01       	movw	r30, r24
    10a6:	ee 0f       	add	r30, r30
    10a8:	ff 1f       	adc	r31, r31
    10aa:	8e 0f       	add	r24, r30
    10ac:	9f 1f       	adc	r25, r31
    10ae:	fc 01       	movw	r30, r24
    10b0:	e9 53       	subi	r30, 0x39	; 57
    10b2:	fb 4f       	sbci	r31, 0xFB	; 251
    10b4:	44 90       	lpm	r4, Z
    10b6:	51 2c       	mov	r5, r1
    10b8:	b1 2c       	mov	r11, r1
    10ba:	03 2d       	mov	r16, r3
    10bc:	10 e0       	ldi	r17, 0x00	; 0
    10be:	e8 01       	movw	r28, r16
    10c0:	cb 57       	subi	r28, 0x7B	; 123
    10c2:	d7 4f       	sbci	r29, 0xF7	; 247
    10c4:	c8 01       	movw	r24, r16
    10c6:	88 0f       	add	r24, r24
    10c8:	99 1f       	adc	r25, r25
    10ca:	9c 01       	movw	r18, r24
    10cc:	23 51       	subi	r18, 0x13	; 19
    10ce:	36 4f       	sbci	r19, 0xF6	; 246
    10d0:	39 01       	movw	r6, r18
    10d2:	fc 01       	movw	r30, r24
    10d4:	e6 55       	subi	r30, 0x56	; 86
    10d6:	f7 4f       	sbci	r31, 0xF7	; 247
    10d8:	6f 01       	movw	r12, r30
    10da:	c8 01       	movw	r24, r16
    10dc:	88 0f       	add	r24, r24
    10de:	99 1f       	adc	r25, r25
    10e0:	88 0f       	add	r24, r24
    10e2:	99 1f       	adc	r25, r25
    10e4:	9c 01       	movw	r18, r24
    10e6:	24 57       	subi	r18, 0x74	; 116
    10e8:	3a 4f       	sbci	r19, 0xFA	; 250
    10ea:	49 01       	movw	r8, r18
    10ec:	78 01       	movw	r14, r16
    10ee:	88 81       	ld	r24, Y
    10f0:	8f 5f       	subi	r24, 0xFF	; 255
    10f2:	88 83       	st	Y, r24
    10f4:	84 11       	cpse	r24, r4
    10f6:	23 c0       	rjmp	.+70     	; 0x113e <NextSlave+0xc2>
    10f8:	18 82       	st	Y, r1
    10fa:	20 90 8b 05 	lds	r2, 0x058B
    10fe:	23 94       	inc	r2
    1100:	23 94       	inc	r2
    1102:	23 0c       	add	r2, r3
    1104:	00 df       	rcall	.-512    	; 0xf06 <IntOff>
    1106:	e2 2d       	mov	r30, r2
    1108:	f0 e0       	ldi	r31, 0x00	; 0
    110a:	ee 0f       	add	r30, r30
    110c:	ff 1f       	adc	r31, r31
    110e:	e2 5a       	subi	r30, 0xA2	; 162
    1110:	f9 4f       	sbci	r31, 0xF9	; 249
    1112:	a0 80       	ld	r10, Z
    1114:	b1 80       	ldd	r11, Z+1	; 0x01
    1116:	ff de       	rcall	.-514    	; 0xf16 <IntOn>
    1118:	a0 94       	com	r10
    111a:	b0 94       	com	r11
    111c:	f3 01       	movw	r30, r6
    111e:	b1 82       	std	Z+1, r11	; 0x01
    1120:	a0 82       	st	Z, r10
    1122:	f6 01       	movw	r30, r12
    1124:	80 81       	ld	r24, Z
    1126:	91 81       	ldd	r25, Z+1	; 0x01
    1128:	8a 15       	cp	r24, r10
    112a:	9b 05       	cpc	r25, r11
    112c:	10 f4       	brcc	.+4      	; 0x1132 <NextSlave+0xb6>
    112e:	b1 82       	std	Z+1, r11	; 0x01
    1130:	a0 82       	st	Z, r10
    1132:	6f ef       	ldi	r22, 0xFF	; 255
    1134:	7f ef       	ldi	r23, 0xFF	; 255
    1136:	82 2d       	mov	r24, r2
    1138:	49 df       	rcall	.-366    	; 0xfcc <StartTimer16>
    113a:	bb 24       	eor	r11, r11
    113c:	b3 94       	inc	r11
    113e:	f4 01       	movw	r30, r8
    1140:	80 81       	ld	r24, Z
    1142:	91 81       	ldd	r25, Z+1	; 0x01
    1144:	a2 81       	ldd	r26, Z+2	; 0x02
    1146:	b3 81       	ldd	r27, Z+3	; 0x03
    1148:	08 80       	ld	r0, Y
    114a:	04 c0       	rjmp	.+8      	; 0x1154 <NextSlave+0xd8>
    114c:	b6 95       	lsr	r27
    114e:	a7 95       	ror	r26
    1150:	97 95       	ror	r25
    1152:	87 95       	ror	r24
    1154:	0a 94       	dec	r0
    1156:	d2 f7       	brpl	.-12     	; 0x114c <NextSlave+0xd0>
    1158:	80 ff       	sbrs	r24, 0
    115a:	03 c0       	rjmp	.+6      	; 0x1162 <NextSlave+0xe6>
    115c:	53 94       	inc	r5
    115e:	54 14       	cp	r5, r4
    1160:	28 f2       	brcs	.-118    	; 0x10ec <NextSlave+0x70>
    1162:	54 10       	cpse	r5, r4
    1164:	12 c0       	rjmp	.+36     	; 0x118a <NextSlave+0x10e>
    1166:	83 2d       	mov	r24, r3
    1168:	6e df       	rcall	.-292    	; 0x1046 <SlavesOn>
    116a:	f7 01       	movw	r30, r14
    116c:	eb 57       	subi	r30, 0x7B	; 123
    116e:	f7 4f       	sbci	r31, 0xF7	; 247
    1170:	80 81       	ld	r24, Z
    1172:	8f 5f       	subi	r24, 0xFF	; 255
    1174:	58 16       	cp	r5, r24
    1176:	29 f0       	breq	.+10     	; 0x1182 <NextSlave+0x106>
    1178:	f7 01       	movw	r30, r14
    117a:	eb 57       	subi	r30, 0x7B	; 123
    117c:	f7 4f       	sbci	r31, 0xF7	; 247
    117e:	80 83       	st	Z, r24
    1180:	04 c0       	rjmp	.+8      	; 0x118a <NextSlave+0x10e>
    1182:	f7 01       	movw	r30, r14
    1184:	eb 57       	subi	r30, 0x7B	; 123
    1186:	f7 4f       	sbci	r31, 0xF7	; 247
    1188:	10 82       	st	Z, r1
    118a:	f7 01       	movw	r30, r14
    118c:	e6 57       	subi	r30, 0x76	; 118
    118e:	f7 4f       	sbci	r31, 0xF7	; 247
    1190:	10 82       	st	Z, r1
    1192:	8b 2d       	mov	r24, r11
    1194:	df 91       	pop	r29
    1196:	cf 91       	pop	r28
    1198:	1f 91       	pop	r17
    119a:	0f 91       	pop	r16
    119c:	ff 90       	pop	r15
    119e:	ef 90       	pop	r14
    11a0:	df 90       	pop	r13
    11a2:	cf 90       	pop	r12
    11a4:	bf 90       	pop	r11
    11a6:	af 90       	pop	r10
    11a8:	9f 90       	pop	r9
    11aa:	8f 90       	pop	r8
    11ac:	7f 90       	pop	r7
    11ae:	6f 90       	pop	r6
    11b0:	5f 90       	pop	r5
    11b2:	4f 90       	pop	r4
    11b4:	3f 90       	pop	r3
    11b6:	2f 90       	pop	r2
    11b8:	08 95       	ret

000011ba <FailSlave>:
    11ba:	0f 93       	push	r16
    11bc:	1f 93       	push	r17
    11be:	cf 93       	push	r28
    11c0:	df 93       	push	r29
    11c2:	e8 2f       	mov	r30, r24
    11c4:	f0 e0       	ldi	r31, 0x00	; 0
    11c6:	df 01       	movw	r26, r30
    11c8:	a9 56       	subi	r26, 0x69	; 105
    11ca:	b7 4f       	sbci	r27, 0xF7	; 247
    11cc:	9c 91       	ld	r25, X
    11ce:	92 30       	cpi	r25, 0x02	; 2
    11d0:	21 f4       	brne	.+8      	; 0x11da <FailSlave+0x20>
    11d2:	fd 01       	movw	r30, r26
    11d4:	10 82       	st	Z, r1
    11d6:	80 e0       	ldi	r24, 0x00	; 0
    11d8:	58 c0       	rjmp	.+176    	; 0x128a <FailSlave+0xd0>
    11da:	df 01       	movw	r26, r30
    11dc:	a2 95       	swap	r26
    11de:	b2 95       	swap	r27
    11e0:	b0 7f       	andi	r27, 0xF0	; 240
    11e2:	ba 27       	eor	r27, r26
    11e4:	a0 7f       	andi	r26, 0xF0	; 240
    11e6:	ba 27       	eor	r27, r26
    11e8:	af 50       	subi	r26, 0x0F	; 15
    11ea:	bf 4e       	sbci	r27, 0xEF	; 239
    11ec:	18 96       	adiw	r26, 0x08	; 8
    11ee:	2d 91       	ld	r18, X+
    11f0:	3c 91       	ld	r19, X
    11f2:	19 97       	sbiw	r26, 0x09	; 9
    11f4:	2f 5f       	subi	r18, 0xFF	; 255
    11f6:	3f 4f       	sbci	r19, 0xFF	; 255
    11f8:	19 96       	adiw	r26, 0x09	; 9
    11fa:	3c 93       	st	X, r19
    11fc:	2e 93       	st	-X, r18
    11fe:	18 97       	sbiw	r26, 0x08	; 8
    1200:	df 01       	movw	r26, r30
    1202:	a0 57       	subi	r26, 0x70	; 112
    1204:	ba 4f       	sbci	r27, 0xFA	; 250
    1206:	9c 91       	ld	r25, X
    1208:	9f 5f       	subi	r25, 0xFF	; 255
    120a:	9c 93       	st	X, r25
    120c:	df 01       	movw	r26, r30
    120e:	a7 54       	subi	r26, 0x47	; 71
    1210:	b7 4f       	sbci	r27, 0xF7	; 247
    1212:	2c 91       	ld	r18, X
    1214:	92 13       	cpse	r25, r18
    1216:	38 c0       	rjmp	.+112    	; 0x1288 <FailSlave+0xce>
    1218:	df 01       	movw	r26, r30
    121a:	ab 57       	subi	r26, 0x7B	; 123
    121c:	b7 4f       	sbci	r27, 0xF7	; 247
    121e:	41 e0       	ldi	r20, 0x01	; 1
    1220:	50 e0       	ldi	r21, 0x00	; 0
    1222:	60 e0       	ldi	r22, 0x00	; 0
    1224:	70 e0       	ldi	r23, 0x00	; 0
    1226:	0c 90       	ld	r0, X
    1228:	04 c0       	rjmp	.+8      	; 0x1232 <FailSlave+0x78>
    122a:	44 0f       	add	r20, r20
    122c:	55 1f       	adc	r21, r21
    122e:	66 1f       	adc	r22, r22
    1230:	77 1f       	adc	r23, r23
    1232:	0a 94       	dec	r0
    1234:	d2 f7       	brpl	.-12     	; 0x122a <FailSlave+0x70>
    1236:	df 01       	movw	r26, r30
    1238:	aa 0f       	add	r26, r26
    123a:	bb 1f       	adc	r27, r27
    123c:	aa 0f       	add	r26, r26
    123e:	bb 1f       	adc	r27, r27
    1240:	ed 01       	movw	r28, r26
    1242:	cf 51       	subi	r28, 0x1F	; 31
    1244:	df 4e       	sbci	r29, 0xEF	; 239
    1246:	08 81       	ld	r16, Y
    1248:	19 81       	ldd	r17, Y+1	; 0x01
    124a:	2a 81       	ldd	r18, Y+2	; 0x02
    124c:	3b 81       	ldd	r19, Y+3	; 0x03
    124e:	04 2b       	or	r16, r20
    1250:	15 2b       	or	r17, r21
    1252:	26 2b       	or	r18, r22
    1254:	37 2b       	or	r19, r23
    1256:	08 83       	st	Y, r16
    1258:	19 83       	std	Y+1, r17	; 0x01
    125a:	2a 83       	std	Y+2, r18	; 0x02
    125c:	3b 83       	std	Y+3, r19	; 0x03
    125e:	a4 57       	subi	r26, 0x74	; 116
    1260:	ba 4f       	sbci	r27, 0xFA	; 250
    1262:	0d 91       	ld	r16, X+
    1264:	1d 91       	ld	r17, X+
    1266:	2d 91       	ld	r18, X+
    1268:	3c 91       	ld	r19, X
    126a:	13 97       	sbiw	r26, 0x03	; 3
    126c:	40 2b       	or	r20, r16
    126e:	51 2b       	or	r21, r17
    1270:	62 2b       	or	r22, r18
    1272:	73 2b       	or	r23, r19
    1274:	4d 93       	st	X+, r20
    1276:	5d 93       	st	X+, r21
    1278:	6d 93       	st	X+, r22
    127a:	7c 93       	st	X, r23
    127c:	13 97       	sbiw	r26, 0x03	; 3
    127e:	e0 57       	subi	r30, 0x70	; 112
    1280:	fa 4f       	sbci	r31, 0xFA	; 250
    1282:	10 82       	st	Z, r1
    1284:	fb de       	rcall	.-522    	; 0x107c <NextSlave>
    1286:	01 c0       	rjmp	.+2      	; 0x128a <FailSlave+0xd0>
    1288:	80 e0       	ldi	r24, 0x00	; 0
    128a:	df 91       	pop	r29
    128c:	cf 91       	pop	r28
    128e:	1f 91       	pop	r17
    1290:	0f 91       	pop	r16
    1292:	08 95       	ret

00001294 <StartTimer32>:
    1294:	cf 92       	push	r12
    1296:	df 92       	push	r13
    1298:	ef 92       	push	r14
    129a:	ff 92       	push	r15
    129c:	cf 93       	push	r28
    129e:	c8 2f       	mov	r28, r24
    12a0:	6a 01       	movw	r12, r20
    12a2:	7b 01       	movw	r14, r22
    12a4:	30 de       	rcall	.-928    	; 0xf06 <IntOff>
    12a6:	ec 2f       	mov	r30, r28
    12a8:	f0 e0       	ldi	r31, 0x00	; 0
    12aa:	ee 0f       	add	r30, r30
    12ac:	ff 1f       	adc	r31, r31
    12ae:	ee 0f       	add	r30, r30
    12b0:	ff 1f       	adc	r31, r31
    12b2:	e2 54       	subi	r30, 0x42	; 66
    12b4:	fa 4f       	sbci	r31, 0xFA	; 250
    12b6:	c0 82       	st	Z, r12
    12b8:	d1 82       	std	Z+1, r13	; 0x01
    12ba:	e2 82       	std	Z+2, r14	; 0x02
    12bc:	f3 82       	std	Z+3, r15	; 0x03
    12be:	cd 28       	or	r12, r13
    12c0:	ce 28       	or	r12, r14
    12c2:	cf 28       	or	r12, r15
    12c4:	a9 f0       	breq	.+42     	; 0x12f0 <StartTimer32+0x5c>
    12c6:	ec 2f       	mov	r30, r28
    12c8:	e6 95       	lsr	r30
    12ca:	e6 95       	lsr	r30
    12cc:	e6 95       	lsr	r30
    12ce:	f0 e0       	ldi	r31, 0x00	; 0
    12d0:	e3 56       	subi	r30, 0x63	; 99
    12d2:	fa 4f       	sbci	r31, 0xFA	; 250
    12d4:	40 81       	ld	r20, Z
    12d6:	c7 70       	andi	r28, 0x07	; 7
    12d8:	21 e0       	ldi	r18, 0x01	; 1
    12da:	30 e0       	ldi	r19, 0x00	; 0
    12dc:	c9 01       	movw	r24, r18
    12de:	02 c0       	rjmp	.+4      	; 0x12e4 <StartTimer32+0x50>
    12e0:	88 0f       	add	r24, r24
    12e2:	99 1f       	adc	r25, r25
    12e4:	ca 95       	dec	r28
    12e6:	e2 f7       	brpl	.-8      	; 0x12e0 <StartTimer32+0x4c>
    12e8:	80 95       	com	r24
    12ea:	84 23       	and	r24, r20
    12ec:	80 83       	st	Z, r24
    12ee:	13 c0       	rjmp	.+38     	; 0x1316 <StartTimer32+0x82>
    12f0:	ec 2f       	mov	r30, r28
    12f2:	e6 95       	lsr	r30
    12f4:	e6 95       	lsr	r30
    12f6:	e6 95       	lsr	r30
    12f8:	f0 e0       	ldi	r31, 0x00	; 0
    12fa:	e3 56       	subi	r30, 0x63	; 99
    12fc:	fa 4f       	sbci	r31, 0xFA	; 250
    12fe:	40 81       	ld	r20, Z
    1300:	c7 70       	andi	r28, 0x07	; 7
    1302:	21 e0       	ldi	r18, 0x01	; 1
    1304:	30 e0       	ldi	r19, 0x00	; 0
    1306:	c9 01       	movw	r24, r18
    1308:	02 c0       	rjmp	.+4      	; 0x130e <StartTimer32+0x7a>
    130a:	88 0f       	add	r24, r24
    130c:	99 1f       	adc	r25, r25
    130e:	ca 95       	dec	r28
    1310:	e2 f7       	brpl	.-8      	; 0x130a <StartTimer32+0x76>
    1312:	84 2b       	or	r24, r20
    1314:	80 83       	st	Z, r24
    1316:	ff dd       	rcall	.-1026   	; 0xf16 <IntOn>
    1318:	cf 91       	pop	r28
    131a:	ff 90       	pop	r15
    131c:	ef 90       	pop	r14
    131e:	df 90       	pop	r13
    1320:	cf 90       	pop	r12
    1322:	08 95       	ret

00001324 <Timer16Stopp>:
    1324:	cf 93       	push	r28
    1326:	c8 2f       	mov	r28, r24
    1328:	ee dd       	rcall	.-1060   	; 0xf06 <IntOff>
    132a:	ec 2f       	mov	r30, r28
    132c:	e6 95       	lsr	r30
    132e:	e6 95       	lsr	r30
    1330:	e6 95       	lsr	r30
    1332:	f0 e0       	ldi	r31, 0x00	; 0
    1334:	ed 55       	subi	r30, 0x5D	; 93
    1336:	fa 4f       	sbci	r31, 0xFA	; 250
    1338:	20 81       	ld	r18, Z
    133a:	30 e0       	ldi	r19, 0x00	; 0
    133c:	8c 2f       	mov	r24, r28
    133e:	87 70       	andi	r24, 0x07	; 7
    1340:	02 c0       	rjmp	.+4      	; 0x1346 <Timer16Stopp+0x22>
    1342:	35 95       	asr	r19
    1344:	27 95       	ror	r18
    1346:	8a 95       	dec	r24
    1348:	e2 f7       	brpl	.-8      	; 0x1342 <Timer16Stopp+0x1e>
    134a:	20 ff       	sbrs	r18, 0
    134c:	0d c0       	rjmp	.+26     	; 0x1368 <Timer16Stopp+0x44>
    134e:	ec 2f       	mov	r30, r28
    1350:	f0 e0       	ldi	r31, 0x00	; 0
    1352:	ee 0f       	add	r30, r30
    1354:	ff 1f       	adc	r31, r31
    1356:	e2 5a       	subi	r30, 0xA2	; 162
    1358:	f9 4f       	sbci	r31, 0xF9	; 249
    135a:	20 81       	ld	r18, Z
    135c:	31 81       	ldd	r19, Z+1	; 0x01
    135e:	c1 e0       	ldi	r28, 0x01	; 1
    1360:	23 2b       	or	r18, r19
    1362:	19 f0       	breq	.+6      	; 0x136a <Timer16Stopp+0x46>
    1364:	c0 e0       	ldi	r28, 0x00	; 0
    1366:	01 c0       	rjmp	.+2      	; 0x136a <Timer16Stopp+0x46>
    1368:	c0 e0       	ldi	r28, 0x00	; 0
    136a:	d5 dd       	rcall	.-1110   	; 0xf16 <IntOn>
    136c:	8c 2f       	mov	r24, r28
    136e:	cf 91       	pop	r28
    1370:	08 95       	ret

00001372 <Timer32Stopp>:
    1372:	cf 93       	push	r28
    1374:	c8 2f       	mov	r28, r24
    1376:	c7 dd       	rcall	.-1138   	; 0xf06 <IntOff>
    1378:	ec 2f       	mov	r30, r28
    137a:	e6 95       	lsr	r30
    137c:	e6 95       	lsr	r30
    137e:	e6 95       	lsr	r30
    1380:	f0 e0       	ldi	r31, 0x00	; 0
    1382:	e3 56       	subi	r30, 0x63	; 99
    1384:	fa 4f       	sbci	r31, 0xFA	; 250
    1386:	20 81       	ld	r18, Z
    1388:	30 e0       	ldi	r19, 0x00	; 0
    138a:	8c 2f       	mov	r24, r28
    138c:	87 70       	andi	r24, 0x07	; 7
    138e:	02 c0       	rjmp	.+4      	; 0x1394 <Timer32Stopp+0x22>
    1390:	35 95       	asr	r19
    1392:	27 95       	ror	r18
    1394:	8a 95       	dec	r24
    1396:	e2 f7       	brpl	.-8      	; 0x1390 <Timer32Stopp+0x1e>
    1398:	20 ff       	sbrs	r18, 0
    139a:	13 c0       	rjmp	.+38     	; 0x13c2 <Timer32Stopp+0x50>
    139c:	ec 2f       	mov	r30, r28
    139e:	f0 e0       	ldi	r31, 0x00	; 0
    13a0:	ee 0f       	add	r30, r30
    13a2:	ff 1f       	adc	r31, r31
    13a4:	ee 0f       	add	r30, r30
    13a6:	ff 1f       	adc	r31, r31
    13a8:	e2 54       	subi	r30, 0x42	; 66
    13aa:	fa 4f       	sbci	r31, 0xFA	; 250
    13ac:	40 81       	ld	r20, Z
    13ae:	51 81       	ldd	r21, Z+1	; 0x01
    13b0:	62 81       	ldd	r22, Z+2	; 0x02
    13b2:	73 81       	ldd	r23, Z+3	; 0x03
    13b4:	c1 e0       	ldi	r28, 0x01	; 1
    13b6:	45 2b       	or	r20, r21
    13b8:	46 2b       	or	r20, r22
    13ba:	47 2b       	or	r20, r23
    13bc:	19 f0       	breq	.+6      	; 0x13c4 <Timer32Stopp+0x52>
    13be:	c0 e0       	ldi	r28, 0x00	; 0
    13c0:	01 c0       	rjmp	.+2      	; 0x13c4 <Timer32Stopp+0x52>
    13c2:	c0 e0       	ldi	r28, 0x00	; 0
    13c4:	a8 dd       	rcall	.-1200   	; 0xf16 <IntOn>
    13c6:	8c 2f       	mov	r24, r28
    13c8:	cf 91       	pop	r28
    13ca:	08 95       	ret

000013cc <TimeInit>:
    13cc:	ac dd       	rcall	.-1192   	; 0xf26 <WdtOn>
    13ce:	10 92 80 00 	sts	0x0080, r1
    13d2:	8a ee       	ldi	r24, 0xEA	; 234
    13d4:	80 93 81 00 	sts	0x0081, r24
    13d8:	80 e2       	ldi	r24, 0x20	; 32
    13da:	9e e4       	ldi	r25, 0x4E	; 78
    13dc:	90 93 89 00 	sts	0x0089, r25
    13e0:	80 93 88 00 	sts	0x0088, r24
    13e4:	ef e6       	ldi	r30, 0x6F	; 111
    13e6:	f0 e0       	ldi	r31, 0x00	; 0
    13e8:	80 81       	ld	r24, Z
    13ea:	82 60       	ori	r24, 0x02	; 2
    13ec:	80 83       	st	Z, r24
    13ee:	80 e0       	ldi	r24, 0x00	; 0
    13f0:	90 e0       	ldi	r25, 0x00	; 0
    13f2:	2f ef       	ldi	r18, 0xFF	; 255
    13f4:	fc 01       	movw	r30, r24
    13f6:	e0 55       	subi	r30, 0x50	; 80
    13f8:	fa 4f       	sbci	r31, 0xFA	; 250
    13fa:	20 83       	st	Z, r18
    13fc:	01 96       	adiw	r24, 0x01	; 1
    13fe:	8c 30       	cpi	r24, 0x0C	; 12
    1400:	91 05       	cpc	r25, r1
    1402:	c1 f7       	brne	.-16     	; 0x13f4 <TimeInit+0x28>
    1404:	80 e0       	ldi	r24, 0x00	; 0
    1406:	90 e0       	ldi	r25, 0x00	; 0
    1408:	2f ef       	ldi	r18, 0xFF	; 255
    140a:	fc 01       	movw	r30, r24
    140c:	ed 55       	subi	r30, 0x5D	; 93
    140e:	fa 4f       	sbci	r31, 0xFA	; 250
    1410:	20 83       	st	Z, r18
    1412:	01 96       	adiw	r24, 0x01	; 1
    1414:	8d 30       	cpi	r24, 0x0D	; 13
    1416:	91 05       	cpc	r25, r1
    1418:	c1 f7       	brne	.-16     	; 0x140a <TimeInit+0x3e>
    141a:	8f ef       	ldi	r24, 0xFF	; 255
    141c:	80 93 9d 05 	sts	0x059D, r24
    1420:	80 93 9e 05 	sts	0x059E, r24
    1424:	80 93 9f 05 	sts	0x059F, r24
    1428:	80 93 a0 05 	sts	0x05A0, r24
    142c:	80 93 a1 05 	sts	0x05A1, r24
    1430:	80 93 a2 05 	sts	0x05A2, r24
    1434:	08 95       	ret

00001436 <__vector_17>:
    1436:	1f 92       	push	r1
    1438:	0f 92       	push	r0
    143a:	0f b6       	in	r0, 0x3f	; 63
    143c:	0f 92       	push	r0
    143e:	11 24       	eor	r1, r1
    1440:	0b b6       	in	r0, 0x3b	; 59
    1442:	0f 92       	push	r0
    1444:	2f 93       	push	r18
    1446:	3f 93       	push	r19
    1448:	4f 93       	push	r20
    144a:	5f 93       	push	r21
    144c:	6f 93       	push	r22
    144e:	7f 93       	push	r23
    1450:	8f 93       	push	r24
    1452:	9f 93       	push	r25
    1454:	af 93       	push	r26
    1456:	bf 93       	push	r27
    1458:	ef 93       	push	r30
    145a:	ff 93       	push	r31
    145c:	80 91 9b 05 	lds	r24, 0x059B
    1460:	8f 5f       	subi	r24, 0xFF	; 255
    1462:	80 93 9b 05 	sts	0x059B, r24
    1466:	80 e0       	ldi	r24, 0x00	; 0
    1468:	90 e0       	ldi	r25, 0x00	; 0
    146a:	61 e0       	ldi	r22, 0x01	; 1
    146c:	70 e0       	ldi	r23, 0x00	; 0
    146e:	28 2f       	mov	r18, r24
    1470:	26 95       	lsr	r18
    1472:	26 95       	lsr	r18
    1474:	26 95       	lsr	r18
    1476:	30 e0       	ldi	r19, 0x00	; 0
    1478:	f9 01       	movw	r30, r18
    147a:	e4 54       	subi	r30, 0x44	; 68
    147c:	fa 4f       	sbci	r31, 0xFA	; 250
    147e:	40 81       	ld	r20, Z
    1480:	a8 2f       	mov	r26, r24
    1482:	a7 70       	andi	r26, 0x07	; 7
    1484:	50 e0       	ldi	r21, 0x00	; 0
    1486:	0a 2e       	mov	r0, r26
    1488:	02 c0       	rjmp	.+4      	; 0x148e <__vector_17+0x58>
    148a:	55 95       	asr	r21
    148c:	47 95       	ror	r20
    148e:	0a 94       	dec	r0
    1490:	e2 f7       	brpl	.-8      	; 0x148a <__vector_17+0x54>
    1492:	40 fd       	sbrc	r20, 0
    1494:	14 c0       	rjmp	.+40     	; 0x14be <__vector_17+0x88>
    1496:	fc 01       	movw	r30, r24
    1498:	ea 58       	subi	r30, 0x8A	; 138
    149a:	f8 4f       	sbci	r31, 0xF8	; 248
    149c:	40 81       	ld	r20, Z
    149e:	41 50       	subi	r20, 0x01	; 1
    14a0:	40 83       	st	Z, r20
    14a2:	41 11       	cpse	r20, r1
    14a4:	0c c0       	rjmp	.+24     	; 0x14be <__vector_17+0x88>
    14a6:	f9 01       	movw	r30, r18
    14a8:	e4 54       	subi	r30, 0x44	; 68
    14aa:	fa 4f       	sbci	r31, 0xFA	; 250
    14ac:	40 81       	ld	r20, Z
    14ae:	9b 01       	movw	r18, r22
    14b0:	02 c0       	rjmp	.+4      	; 0x14b6 <__vector_17+0x80>
    14b2:	22 0f       	add	r18, r18
    14b4:	33 1f       	adc	r19, r19
    14b6:	aa 95       	dec	r26
    14b8:	e2 f7       	brpl	.-8      	; 0x14b2 <__vector_17+0x7c>
    14ba:	24 2b       	or	r18, r20
    14bc:	20 83       	st	Z, r18
    14be:	01 96       	adiw	r24, 0x01	; 1
    14c0:	88 30       	cpi	r24, 0x08	; 8
    14c2:	91 05       	cpc	r25, r1
    14c4:	a1 f6       	brne	.-88     	; 0x146e <__vector_17+0x38>
    14c6:	80 91 7c 05 	lds	r24, 0x057C
    14ca:	90 91 7d 05 	lds	r25, 0x057D
    14ce:	a0 91 7e 05 	lds	r26, 0x057E
    14d2:	b0 91 7f 05 	lds	r27, 0x057F
    14d6:	01 96       	adiw	r24, 0x01	; 1
    14d8:	a1 1d       	adc	r26, r1
    14da:	b1 1d       	adc	r27, r1
    14dc:	80 93 7c 05 	sts	0x057C, r24
    14e0:	90 93 7d 05 	sts	0x057D, r25
    14e4:	a0 93 7e 05 	sts	0x057E, r26
    14e8:	b0 93 7f 05 	sts	0x057F, r27
    14ec:	ff 91       	pop	r31
    14ee:	ef 91       	pop	r30
    14f0:	bf 91       	pop	r27
    14f2:	af 91       	pop	r26
    14f4:	9f 91       	pop	r25
    14f6:	8f 91       	pop	r24
    14f8:	7f 91       	pop	r23
    14fa:	6f 91       	pop	r22
    14fc:	5f 91       	pop	r21
    14fe:	4f 91       	pop	r20
    1500:	3f 91       	pop	r19
    1502:	2f 91       	pop	r18
    1504:	0f 90       	pop	r0
    1506:	0b be       	out	0x3b, r0	; 59
    1508:	0f 90       	pop	r0
    150a:	0f be       	out	0x3f, r0	; 63
    150c:	0f 90       	pop	r0
    150e:	1f 90       	pop	r1
    1510:	18 95       	reti

00001512 <TimersInc>:
    1512:	ff 92       	push	r15
    1514:	0f 93       	push	r16
    1516:	1f 93       	push	r17
    1518:	cf 93       	push	r28
    151a:	df 93       	push	r29
    151c:	f8 94       	cli
    151e:	f0 90 9b 05 	lds	r15, 0x059B
    1522:	10 92 9b 05 	sts	0x059B, r1
    1526:	78 94       	sei
    1528:	ff 20       	and	r15, r15
    152a:	09 f4       	brne	.+2      	; 0x152e <TimersInc+0x1c>
    152c:	d2 c0       	rjmp	.+420    	; 0x16d2 <TimersInc+0x1c0>
    152e:	10 e0       	ldi	r17, 0x00	; 0
    1530:	40 e0       	ldi	r20, 0x00	; 0
    1532:	50 e0       	ldi	r21, 0x00	; 0
    1534:	21 e0       	ldi	r18, 0x01	; 1
    1536:	30 e0       	ldi	r19, 0x00	; 0
    1538:	80 91 f6 09 	lds	r24, 0x09F6
    153c:	90 91 f7 09 	lds	r25, 0x09F7
    1540:	a0 91 f8 09 	lds	r26, 0x09F8
    1544:	b0 91 f9 09 	lds	r27, 0x09F9
    1548:	01 96       	adiw	r24, 0x01	; 1
    154a:	a1 1d       	adc	r26, r1
    154c:	b1 1d       	adc	r27, r1
    154e:	80 93 f6 09 	sts	0x09F6, r24
    1552:	90 93 f7 09 	sts	0x09F7, r25
    1556:	a0 93 f8 09 	sts	0x09F8, r26
    155a:	b0 93 f9 09 	sts	0x09F9, r27
    155e:	ca 01       	movw	r24, r20
    1560:	f8 94       	cli
    1562:	68 2f       	mov	r22, r24
    1564:	66 95       	lsr	r22
    1566:	66 95       	lsr	r22
    1568:	66 95       	lsr	r22
    156a:	70 e0       	ldi	r23, 0x00	; 0
    156c:	fb 01       	movw	r30, r22
    156e:	e0 55       	subi	r30, 0x50	; 80
    1570:	fa 4f       	sbci	r31, 0xFA	; 250
    1572:	e0 81       	ld	r30, Z
    1574:	a8 2f       	mov	r26, r24
    1576:	a7 70       	andi	r26, 0x07	; 7
    1578:	f0 e0       	ldi	r31, 0x00	; 0
    157a:	0a 2e       	mov	r0, r26
    157c:	02 c0       	rjmp	.+4      	; 0x1582 <TimersInc+0x70>
    157e:	f5 95       	asr	r31
    1580:	e7 95       	ror	r30
    1582:	0a 94       	dec	r0
    1584:	e2 f7       	brpl	.-8      	; 0x157e <TimersInc+0x6c>
    1586:	e0 fd       	sbrc	r30, 0
    1588:	14 c0       	rjmp	.+40     	; 0x15b2 <TimersInc+0xa0>
    158a:	fc 01       	movw	r30, r24
    158c:	e2 5e       	subi	r30, 0xE2	; 226
    158e:	f8 4f       	sbci	r31, 0xF8	; 248
    1590:	b0 81       	ld	r27, Z
    1592:	b1 50       	subi	r27, 0x01	; 1
    1594:	b0 83       	st	Z, r27
    1596:	b1 11       	cpse	r27, r1
    1598:	0c c0       	rjmp	.+24     	; 0x15b2 <TimersInc+0xa0>
    159a:	fb 01       	movw	r30, r22
    159c:	e0 55       	subi	r30, 0x50	; 80
    159e:	fa 4f       	sbci	r31, 0xFA	; 250
    15a0:	b0 81       	ld	r27, Z
    15a2:	b9 01       	movw	r22, r18
    15a4:	02 c0       	rjmp	.+4      	; 0x15aa <TimersInc+0x98>
    15a6:	66 0f       	add	r22, r22
    15a8:	77 1f       	adc	r23, r23
    15aa:	aa 95       	dec	r26
    15ac:	e2 f7       	brpl	.-8      	; 0x15a6 <TimersInc+0x94>
    15ae:	6b 2b       	or	r22, r27
    15b0:	60 83       	st	Z, r22
    15b2:	78 94       	sei
    15b4:	01 96       	adiw	r24, 0x01	; 1
    15b6:	88 35       	cpi	r24, 0x58	; 88
    15b8:	91 05       	cpc	r25, r1
    15ba:	91 f6       	brne	.-92     	; 0x1560 <TimersInc+0x4e>
    15bc:	ca 01       	movw	r24, r20
    15be:	f8 94       	cli
    15c0:	68 2f       	mov	r22, r24
    15c2:	66 95       	lsr	r22
    15c4:	66 95       	lsr	r22
    15c6:	66 95       	lsr	r22
    15c8:	70 e0       	ldi	r23, 0x00	; 0
    15ca:	fb 01       	movw	r30, r22
    15cc:	ed 55       	subi	r30, 0x5D	; 93
    15ce:	fa 4f       	sbci	r31, 0xFA	; 250
    15d0:	e0 81       	ld	r30, Z
    15d2:	c8 2f       	mov	r28, r24
    15d4:	c7 70       	andi	r28, 0x07	; 7
    15d6:	f0 e0       	ldi	r31, 0x00	; 0
    15d8:	0c 2e       	mov	r0, r28
    15da:	02 c0       	rjmp	.+4      	; 0x15e0 <TimersInc+0xce>
    15dc:	f5 95       	asr	r31
    15de:	e7 95       	ror	r30
    15e0:	0a 94       	dec	r0
    15e2:	e2 f7       	brpl	.-8      	; 0x15dc <TimersInc+0xca>
    15e4:	e0 fd       	sbrc	r30, 0
    15e6:	1a c0       	rjmp	.+52     	; 0x161c <TimersInc+0x10a>
    15e8:	dc 01       	movw	r26, r24
    15ea:	aa 0f       	add	r26, r26
    15ec:	bb 1f       	adc	r27, r27
    15ee:	a2 5a       	subi	r26, 0xA2	; 162
    15f0:	b9 4f       	sbci	r27, 0xF9	; 249
    15f2:	ed 91       	ld	r30, X+
    15f4:	fc 91       	ld	r31, X
    15f6:	11 97       	sbiw	r26, 0x01	; 1
    15f8:	31 97       	sbiw	r30, 0x01	; 1
    15fa:	11 96       	adiw	r26, 0x01	; 1
    15fc:	fc 93       	st	X, r31
    15fe:	ee 93       	st	-X, r30
    1600:	ef 2b       	or	r30, r31
    1602:	61 f4       	brne	.+24     	; 0x161c <TimersInc+0x10a>
    1604:	fb 01       	movw	r30, r22
    1606:	ed 55       	subi	r30, 0x5D	; 93
    1608:	fa 4f       	sbci	r31, 0xFA	; 250
    160a:	a0 81       	ld	r26, Z
    160c:	b9 01       	movw	r22, r18
    160e:	02 c0       	rjmp	.+4      	; 0x1614 <TimersInc+0x102>
    1610:	66 0f       	add	r22, r22
    1612:	77 1f       	adc	r23, r23
    1614:	ca 95       	dec	r28
    1616:	e2 f7       	brpl	.-8      	; 0x1610 <TimersInc+0xfe>
    1618:	6a 2b       	or	r22, r26
    161a:	60 83       	st	Z, r22
    161c:	78 94       	sei
    161e:	01 96       	adiw	r24, 0x01	; 1
    1620:	80 36       	cpi	r24, 0x60	; 96
    1622:	91 05       	cpc	r25, r1
    1624:	61 f6       	brne	.-104    	; 0x15be <TimersInc+0xac>
    1626:	ba 01       	movw	r22, r20
    1628:	f8 94       	cli
    162a:	e6 2f       	mov	r30, r22
    162c:	e6 95       	lsr	r30
    162e:	e6 95       	lsr	r30
    1630:	e6 95       	lsr	r30
    1632:	f0 e0       	ldi	r31, 0x00	; 0
    1634:	df 01       	movw	r26, r30
    1636:	a3 56       	subi	r26, 0x63	; 99
    1638:	ba 4f       	sbci	r27, 0xFA	; 250
    163a:	8c 91       	ld	r24, X
    163c:	06 2f       	mov	r16, r22
    163e:	07 70       	andi	r16, 0x07	; 7
    1640:	90 e0       	ldi	r25, 0x00	; 0
    1642:	00 2e       	mov	r0, r16
    1644:	02 c0       	rjmp	.+4      	; 0x164a <TimersInc+0x138>
    1646:	95 95       	asr	r25
    1648:	87 95       	ror	r24
    164a:	0a 94       	dec	r0
    164c:	e2 f7       	brpl	.-8      	; 0x1646 <TimersInc+0x134>
    164e:	80 fd       	sbrc	r24, 0
    1650:	21 c0       	rjmp	.+66     	; 0x1694 <TimersInc+0x182>
    1652:	eb 01       	movw	r28, r22
    1654:	cc 0f       	add	r28, r28
    1656:	dd 1f       	adc	r29, r29
    1658:	cc 0f       	add	r28, r28
    165a:	dd 1f       	adc	r29, r29
    165c:	c2 54       	subi	r28, 0x42	; 66
    165e:	da 4f       	sbci	r29, 0xFA	; 250
    1660:	88 81       	ld	r24, Y
    1662:	99 81       	ldd	r25, Y+1	; 0x01
    1664:	aa 81       	ldd	r26, Y+2	; 0x02
    1666:	bb 81       	ldd	r27, Y+3	; 0x03
    1668:	01 97       	sbiw	r24, 0x01	; 1
    166a:	a1 09       	sbc	r26, r1
    166c:	b1 09       	sbc	r27, r1
    166e:	88 83       	st	Y, r24
    1670:	99 83       	std	Y+1, r25	; 0x01
    1672:	aa 83       	std	Y+2, r26	; 0x02
    1674:	bb 83       	std	Y+3, r27	; 0x03
    1676:	89 2b       	or	r24, r25
    1678:	8a 2b       	or	r24, r26
    167a:	8b 2b       	or	r24, r27
    167c:	59 f4       	brne	.+22     	; 0x1694 <TimersInc+0x182>
    167e:	e3 56       	subi	r30, 0x63	; 99
    1680:	fa 4f       	sbci	r31, 0xFA	; 250
    1682:	a0 81       	ld	r26, Z
    1684:	c9 01       	movw	r24, r18
    1686:	02 c0       	rjmp	.+4      	; 0x168c <TimersInc+0x17a>
    1688:	88 0f       	add	r24, r24
    168a:	99 1f       	adc	r25, r25
    168c:	0a 95       	dec	r16
    168e:	e2 f7       	brpl	.-8      	; 0x1688 <TimersInc+0x176>
    1690:	8a 2b       	or	r24, r26
    1692:	80 83       	st	Z, r24
    1694:	78 94       	sei
    1696:	6f 5f       	subi	r22, 0xFF	; 255
    1698:	7f 4f       	sbci	r23, 0xFF	; 255
    169a:	68 32       	cpi	r22, 0x28	; 40
    169c:	71 05       	cpc	r23, r1
    169e:	21 f6       	brne	.-120    	; 0x1628 <TimersInc+0x116>
    16a0:	80 91 78 05 	lds	r24, 0x0578
    16a4:	8f 5f       	subi	r24, 0xFF	; 255
    16a6:	84 36       	cpi	r24, 0x64	; 100
    16a8:	19 f0       	breq	.+6      	; 0x16b0 <TimersInc+0x19e>
    16aa:	80 93 78 05 	sts	0x0578, r24
    16ae:	0e c0       	rjmp	.+28     	; 0x16cc <TimersInc+0x1ba>
    16b0:	10 92 78 05 	sts	0x0578, r1
    16b4:	80 91 e9 09 	lds	r24, 0x09E9
    16b8:	90 91 ea 09 	lds	r25, 0x09EA
    16bc:	90 93 fc 09 	sts	0x09FC, r25
    16c0:	80 93 fb 09 	sts	0x09FB, r24
    16c4:	50 93 ea 09 	sts	0x09EA, r21
    16c8:	40 93 e9 09 	sts	0x09E9, r20
    16cc:	1f 5f       	subi	r17, 0xFF	; 255
    16ce:	1f 11       	cpse	r17, r15
    16d0:	33 cf       	rjmp	.-410    	; 0x1538 <TimersInc+0x26>
    16d2:	df 91       	pop	r29
    16d4:	cf 91       	pop	r28
    16d6:	1f 91       	pop	r17
    16d8:	0f 91       	pop	r16
    16da:	ff 90       	pop	r15
    16dc:	08 95       	ret

000016de <TimeCycle>:
    16de:	a8 95       	wdr
    16e0:	80 91 e9 09 	lds	r24, 0x09E9
    16e4:	90 91 ea 09 	lds	r25, 0x09EA
    16e8:	01 96       	adiw	r24, 0x01	; 1
    16ea:	90 93 ea 09 	sts	0x09EA, r25
    16ee:	80 93 e9 09 	sts	0x09E9, r24
    16f2:	80 91 9c 05 	lds	r24, 0x059C
    16f6:	e8 2f       	mov	r30, r24
    16f8:	f0 e0       	ldi	r31, 0x00	; 0
    16fa:	e2 5e       	subi	r30, 0xE2	; 226
    16fc:	f8 4f       	sbci	r31, 0xF8	; 248
    16fe:	90 81       	ld	r25, Z
    1700:	90 95       	com	r25
    1702:	90 93 bf 08 	sts	0x08BF, r25
    1706:	20 91 99 08 	lds	r18, 0x0899
    170a:	29 17       	cp	r18, r25
    170c:	10 f4       	brcc	.+4      	; 0x1712 <TimeCycle+0x34>
    170e:	90 93 99 08 	sts	0x0899, r25
    1712:	6f ef       	ldi	r22, 0xFF	; 255
    1714:	23 cc       	rjmp	.-1978   	; 0xf5c <StartTimer8>
    1716:	08 95       	ret

00001718 <CRC_Seed>:
    1718:	4f 92       	push	r4
    171a:	5f 92       	push	r5
    171c:	6f 92       	push	r6
    171e:	7f 92       	push	r7
    1720:	af 92       	push	r10
    1722:	bf 92       	push	r11
    1724:	cf 92       	push	r12
    1726:	df 92       	push	r13
    1728:	ef 92       	push	r14
    172a:	ff 92       	push	r15
    172c:	0f 93       	push	r16
    172e:	1f 93       	push	r17
    1730:	cf 93       	push	r28
    1732:	df 93       	push	r29
    1734:	ec 01       	movw	r28, r24
    1736:	5b 01       	movw	r10, r22
    1738:	29 01       	movw	r4, r18
    173a:	3a 01       	movw	r6, r20
    173c:	21 15       	cp	r18, r1
    173e:	31 05       	cpc	r19, r1
    1740:	41 05       	cpc	r20, r1
    1742:	51 05       	cpc	r21, r1
    1744:	f1 f0       	breq	.+60     	; 0x1782 <CRC_Seed+0x6a>
    1746:	c1 2c       	mov	r12, r1
    1748:	d1 2c       	mov	r13, r1
    174a:	76 01       	movw	r14, r12
    174c:	c5 01       	movw	r24, r10
    174e:	8c 0d       	add	r24, r12
    1750:	9d 1d       	adc	r25, r13
    1752:	fe 01       	movw	r30, r28
    1754:	19 95       	eicall
    1756:	80 27       	eor	r24, r16
    1758:	28 2f       	mov	r18, r24
    175a:	30 e0       	ldi	r19, 0x00	; 0
    175c:	f9 01       	movw	r30, r18
    175e:	e6 54       	subi	r30, 0x46	; 70
    1760:	fd 4f       	sbci	r31, 0xFD	; 253
    1762:	04 91       	lpm	r16, Z
    1764:	01 27       	eor	r16, r17
    1766:	f9 01       	movw	r30, r18
    1768:	e6 54       	subi	r30, 0x46	; 70
    176a:	fe 4f       	sbci	r31, 0xFE	; 254
    176c:	14 91       	lpm	r17, Z
    176e:	ff ef       	ldi	r31, 0xFF	; 255
    1770:	cf 1a       	sub	r12, r31
    1772:	df 0a       	sbc	r13, r31
    1774:	ef 0a       	sbc	r14, r31
    1776:	ff 0a       	sbc	r15, r31
    1778:	c4 14       	cp	r12, r4
    177a:	d5 04       	cpc	r13, r5
    177c:	e6 04       	cpc	r14, r6
    177e:	f7 04       	cpc	r15, r7
    1780:	29 f7       	brne	.-54     	; 0x174c <CRC_Seed+0x34>
    1782:	80 2f       	mov	r24, r16
    1784:	90 e0       	ldi	r25, 0x00	; 0
    1786:	91 2b       	or	r25, r17
    1788:	df 91       	pop	r29
    178a:	cf 91       	pop	r28
    178c:	1f 91       	pop	r17
    178e:	0f 91       	pop	r16
    1790:	ff 90       	pop	r15
    1792:	ef 90       	pop	r14
    1794:	df 90       	pop	r13
    1796:	cf 90       	pop	r12
    1798:	bf 90       	pop	r11
    179a:	af 90       	pop	r10
    179c:	7f 90       	pop	r7
    179e:	6f 90       	pop	r6
    17a0:	5f 90       	pop	r5
    17a2:	4f 90       	pop	r4
    17a4:	08 95       	ret

000017a6 <CRC>:
    17a6:	0f 93       	push	r16
    17a8:	1f 93       	push	r17
    17aa:	0f ef       	ldi	r16, 0xFF	; 255
    17ac:	1f ef       	ldi	r17, 0xFF	; 255
    17ae:	b4 df       	rcall	.-152    	; 0x1718 <CRC_Seed>
    17b0:	1f 91       	pop	r17
    17b2:	0f 91       	pop	r16
    17b4:	08 95       	ret

000017b6 <CRC_EEPROM_calc>:
    17b6:	0f 93       	push	r16
    17b8:	1f 93       	push	r17
    17ba:	2c e0       	ldi	r18, 0x0C	; 12
    17bc:	30 e0       	ldi	r19, 0x00	; 0
    17be:	40 e0       	ldi	r20, 0x00	; 0
    17c0:	50 e0       	ldi	r21, 0x00	; 0
    17c2:	60 e0       	ldi	r22, 0x00	; 0
    17c4:	70 e0       	ldi	r23, 0x00	; 0
    17c6:	84 ee       	ldi	r24, 0xE4	; 228
    17c8:	92 e0       	ldi	r25, 0x02	; 2
    17ca:	ed df       	rcall	.-38     	; 0x17a6 <CRC>
    17cc:	2b ef       	ldi	r18, 0xFB	; 251
    17ce:	3f e0       	ldi	r19, 0x0F	; 15
    17d0:	2c 50       	subi	r18, 0x0C	; 12
    17d2:	30 40       	sbci	r19, 0x00	; 0
    17d4:	40 e0       	ldi	r20, 0x00	; 0
    17d6:	50 e0       	ldi	r21, 0x00	; 0
    17d8:	8c 01       	movw	r16, r24
    17da:	61 e1       	ldi	r22, 0x11	; 17
    17dc:	70 e0       	ldi	r23, 0x00	; 0
    17de:	84 ee       	ldi	r24, 0xE4	; 228
    17e0:	92 e0       	ldi	r25, 0x02	; 2
    17e2:	9a df       	rcall	.-204    	; 0x1718 <CRC_Seed>
    17e4:	1f 91       	pop	r17
    17e6:	0f 91       	pop	r16
    17e8:	08 95       	ret

000017ea <CRC_EEPROM_upd>:
    17ea:	80 91 d1 0c 	lds	r24, 0x0CD1
    17ee:	81 fd       	sbrc	r24, 1
    17f0:	06 c0       	rjmp	.+12     	; 0x17fe <CRC_EEPROM_upd+0x14>
    17f2:	e1 df       	rcall	.-62     	; 0x17b6 <CRC_EEPROM_calc>
    17f4:	bc 01       	movw	r22, r24
    17f6:	8e e0       	ldi	r24, 0x0E	; 14
    17f8:	90 e0       	ldi	r25, 0x00	; 0
    17fa:	0c 94 63 38 	jmp	0x70c6	; 0x70c6 <__eewr_word_m2561>
    17fe:	08 95       	ret

00001800 <ewb>:
    1800:	0e 94 55 38 	call	0x70aa	; 0x70aa <__eewr_byte_m2561>
    1804:	f2 cf       	rjmp	.-28     	; 0x17ea <CRC_EEPROM_upd>
    1806:	08 95       	ret

00001808 <MB_PLC_Init>:
    1808:	0a 9a       	sbi	0x01, 2	; 1
    180a:	12 98       	cbi	0x02, 2	; 2
    180c:	08 95       	ret

0000180e <__vector_21>:
    180e:	1f 92       	push	r1
    1810:	0f 92       	push	r0
    1812:	0f b6       	in	r0, 0x3f	; 63
    1814:	0f 92       	push	r0
    1816:	11 24       	eor	r1, r1
    1818:	0b b6       	in	r0, 0x3b	; 59
    181a:	0f 92       	push	r0
    181c:	2f 93       	push	r18
    181e:	3f 93       	push	r19
    1820:	4f 93       	push	r20
    1822:	5f 93       	push	r21
    1824:	6f 93       	push	r22
    1826:	7f 93       	push	r23
    1828:	8f 93       	push	r24
    182a:	9f 93       	push	r25
    182c:	af 93       	push	r26
    182e:	bf 93       	push	r27
    1830:	ef 93       	push	r30
    1832:	ff 93       	push	r31
    1834:	85 b5       	in	r24, 0x25	; 37
    1836:	88 7f       	andi	r24, 0xF8	; 248
    1838:	85 bd       	out	0x25, r24	; 37
    183a:	ee e6       	ldi	r30, 0x6E	; 110
    183c:	f0 e0       	ldi	r31, 0x00	; 0
    183e:	80 81       	ld	r24, Z
    1840:	8d 7f       	andi	r24, 0xFD	; 253
    1842:	80 83       	st	Z, r24
    1844:	86 e4       	ldi	r24, 0x46	; 70
    1846:	90 e0       	ldi	r25, 0x00	; 0
    1848:	0e 94 81 03 	call	0x702	; 0x702 <MB_Timer_ISR>
    184c:	ff 91       	pop	r31
    184e:	ef 91       	pop	r30
    1850:	bf 91       	pop	r27
    1852:	af 91       	pop	r26
    1854:	9f 91       	pop	r25
    1856:	8f 91       	pop	r24
    1858:	7f 91       	pop	r23
    185a:	6f 91       	pop	r22
    185c:	5f 91       	pop	r21
    185e:	4f 91       	pop	r20
    1860:	3f 91       	pop	r19
    1862:	2f 91       	pop	r18
    1864:	0f 90       	pop	r0
    1866:	0b be       	out	0x3b, r0	; 59
    1868:	0f 90       	pop	r0
    186a:	0f be       	out	0x3f, r0	; 63
    186c:	0f 90       	pop	r0
    186e:	1f 90       	pop	r1
    1870:	18 95       	reti

00001872 <__vector_13>:
    1872:	1f 92       	push	r1
    1874:	0f 92       	push	r0
    1876:	0f b6       	in	r0, 0x3f	; 63
    1878:	0f 92       	push	r0
    187a:	11 24       	eor	r1, r1
    187c:	0b b6       	in	r0, 0x3b	; 59
    187e:	0f 92       	push	r0
    1880:	2f 93       	push	r18
    1882:	3f 93       	push	r19
    1884:	4f 93       	push	r20
    1886:	5f 93       	push	r21
    1888:	6f 93       	push	r22
    188a:	7f 93       	push	r23
    188c:	8f 93       	push	r24
    188e:	9f 93       	push	r25
    1890:	af 93       	push	r26
    1892:	bf 93       	push	r27
    1894:	ef 93       	push	r30
    1896:	ff 93       	push	r31
    1898:	e1 eb       	ldi	r30, 0xB1	; 177
    189a:	f0 e0       	ldi	r31, 0x00	; 0
    189c:	80 81       	ld	r24, Z
    189e:	88 7f       	andi	r24, 0xF8	; 248
    18a0:	80 83       	st	Z, r24
    18a2:	e0 e7       	ldi	r30, 0x70	; 112
    18a4:	f0 e0       	ldi	r31, 0x00	; 0
    18a6:	80 81       	ld	r24, Z
    18a8:	8d 7f       	andi	r24, 0xFD	; 253
    18aa:	80 83       	st	Z, r24
    18ac:	82 eb       	ldi	r24, 0xB2	; 178
    18ae:	90 e0       	ldi	r25, 0x00	; 0
    18b0:	0e 94 81 03 	call	0x702	; 0x702 <MB_Timer_ISR>
    18b4:	ff 91       	pop	r31
    18b6:	ef 91       	pop	r30
    18b8:	bf 91       	pop	r27
    18ba:	af 91       	pop	r26
    18bc:	9f 91       	pop	r25
    18be:	8f 91       	pop	r24
    18c0:	7f 91       	pop	r23
    18c2:	6f 91       	pop	r22
    18c4:	5f 91       	pop	r21
    18c6:	4f 91       	pop	r20
    18c8:	3f 91       	pop	r19
    18ca:	2f 91       	pop	r18
    18cc:	0f 90       	pop	r0
    18ce:	0b be       	out	0x3b, r0	; 59
    18d0:	0f 90       	pop	r0
    18d2:	0f be       	out	0x3f, r0	; 63
    18d4:	0f 90       	pop	r0
    18d6:	1f 90       	pop	r1
    18d8:	18 95       	reti

000018da <__vector_42>:
    18da:	1f 92       	push	r1
    18dc:	0f 92       	push	r0
    18de:	0f b6       	in	r0, 0x3f	; 63
    18e0:	0f 92       	push	r0
    18e2:	11 24       	eor	r1, r1
    18e4:	0b b6       	in	r0, 0x3b	; 59
    18e6:	0f 92       	push	r0
    18e8:	2f 93       	push	r18
    18ea:	3f 93       	push	r19
    18ec:	4f 93       	push	r20
    18ee:	5f 93       	push	r21
    18f0:	6f 93       	push	r22
    18f2:	7f 93       	push	r23
    18f4:	8f 93       	push	r24
    18f6:	9f 93       	push	r25
    18f8:	af 93       	push	r26
    18fa:	bf 93       	push	r27
    18fc:	ef 93       	push	r30
    18fe:	ff 93       	push	r31
    1900:	e1 ea       	ldi	r30, 0xA1	; 161
    1902:	f0 e0       	ldi	r31, 0x00	; 0
    1904:	80 81       	ld	r24, Z
    1906:	88 7f       	andi	r24, 0xF8	; 248
    1908:	80 83       	st	Z, r24
    190a:	e2 e7       	ldi	r30, 0x72	; 114
    190c:	f0 e0       	ldi	r31, 0x00	; 0
    190e:	80 81       	ld	r24, Z
    1910:	8d 7f       	andi	r24, 0xFD	; 253
    1912:	80 83       	st	Z, r24
    1914:	84 ea       	ldi	r24, 0xA4	; 164
    1916:	90 e0       	ldi	r25, 0x00	; 0
    1918:	0e 94 81 03 	call	0x702	; 0x702 <MB_Timer_ISR>
    191c:	ff 91       	pop	r31
    191e:	ef 91       	pop	r30
    1920:	bf 91       	pop	r27
    1922:	af 91       	pop	r26
    1924:	9f 91       	pop	r25
    1926:	8f 91       	pop	r24
    1928:	7f 91       	pop	r23
    192a:	6f 91       	pop	r22
    192c:	5f 91       	pop	r21
    192e:	4f 91       	pop	r20
    1930:	3f 91       	pop	r19
    1932:	2f 91       	pop	r18
    1934:	0f 90       	pop	r0
    1936:	0b be       	out	0x3b, r0	; 59
    1938:	0f 90       	pop	r0
    193a:	0f be       	out	0x3f, r0	; 63
    193c:	0f 90       	pop	r0
    193e:	1f 90       	pop	r1
    1940:	18 95       	reti

00001942 <SetParity>:
    1942:	ff 92       	push	r15
    1944:	0f 93       	push	r16
    1946:	1f 93       	push	r17
    1948:	cf 93       	push	r28
    194a:	df 93       	push	r29
    194c:	c8 2f       	mov	r28, r24
    194e:	d0 e0       	ldi	r29, 0x00	; 0
    1950:	8e 01       	movw	r16, r28
    1952:	00 0f       	add	r16, r16
    1954:	11 1f       	adc	r17, r17
    1956:	0c 0f       	add	r16, r28
    1958:	1d 1f       	adc	r17, r29
    195a:	c8 01       	movw	r24, r16
    195c:	8b 5f       	subi	r24, 0xFB	; 251
    195e:	9f 4f       	sbci	r25, 0xFF	; 255
    1960:	0e 94 48 38 	call	0x7090	; 0x7090 <__eerd_byte_m2561>
    1964:	f8 2e       	mov	r15, r24
    1966:	0a 5f       	subi	r16, 0xFA	; 250
    1968:	1f 4f       	sbci	r17, 0xFF	; 255
    196a:	c8 01       	movw	r24, r16
    196c:	0e 94 48 38 	call	0x7090	; 0x7090 <__eerd_byte_m2561>
    1970:	f1 10       	cpse	r15, r1
    1972:	04 c0       	rjmp	.+8      	; 0x197c <SetParity+0x3a>
    1974:	81 30       	cpi	r24, 0x01	; 1
    1976:	39 f0       	breq	.+14     	; 0x1986 <SetParity+0x44>
    1978:	9e e8       	ldi	r25, 0x8E	; 142
    197a:	08 c0       	rjmp	.+16     	; 0x198c <SetParity+0x4a>
    197c:	91 e0       	ldi	r25, 0x01	; 1
    197e:	f9 16       	cp	r15, r25
    1980:	21 f0       	breq	.+8      	; 0x198a <SetParity+0x48>
    1982:	96 eb       	ldi	r25, 0xB6	; 182
    1984:	03 c0       	rjmp	.+6      	; 0x198c <SetParity+0x4a>
    1986:	96 e8       	ldi	r25, 0x86	; 134
    1988:	01 c0       	rjmp	.+2      	; 0x198c <SetParity+0x4a>
    198a:	96 ea       	ldi	r25, 0xA6	; 166
    198c:	24 e1       	ldi	r18, 0x14	; 20
    198e:	2c 9f       	mul	r18, r28
    1990:	f0 01       	movw	r30, r0
    1992:	2d 9f       	mul	r18, r29
    1994:	f0 0d       	add	r31, r0
    1996:	11 24       	eor	r1, r1
    1998:	ee 50       	subi	r30, 0x0E	; 14
    199a:	fb 4f       	sbci	r31, 0xFB	; 251
    199c:	a5 91       	lpm	r26, Z+
    199e:	b4 91       	lpm	r27, Z
    19a0:	9f 77       	andi	r25, 0x7F	; 127
    19a2:	9c 93       	st	X, r25
    19a4:	ff 20       	and	r15, r15
    19a6:	29 f0       	breq	.+10     	; 0x19b2 <SetParity+0x70>
    19a8:	81 30       	cpi	r24, 0x01	; 1
    19aa:	19 f0       	breq	.+6      	; 0x19b2 <SetParity+0x70>
    19ac:	61 e0       	ldi	r22, 0x01	; 1
    19ae:	c8 01       	movw	r24, r16
    19b0:	27 df       	rcall	.-434    	; 0x1800 <ewb>
    19b2:	df 91       	pop	r29
    19b4:	cf 91       	pop	r28
    19b6:	1f 91       	pop	r17
    19b8:	0f 91       	pop	r16
    19ba:	ff 90       	pop	r15
    19bc:	08 95       	ret

000019be <SetBAUD>:
    19be:	cf 93       	push	r28
    19c0:	df 93       	push	r29
    19c2:	c8 2f       	mov	r28, r24
    19c4:	d0 e0       	ldi	r29, 0x00	; 0
    19c6:	ce 01       	movw	r24, r28
    19c8:	88 0f       	add	r24, r24
    19ca:	99 1f       	adc	r25, r25
    19cc:	8c 0f       	add	r24, r28
    19ce:	9d 1f       	adc	r25, r29
    19d0:	89 5f       	subi	r24, 0xF9	; 249
    19d2:	9f 4f       	sbci	r25, 0xFF	; 255
    19d4:	0e 94 48 38 	call	0x7090	; 0x7090 <__eerd_byte_m2561>
    19d8:	fe 01       	movw	r30, r28
    19da:	e6 50       	subi	r30, 0x06	; 6
    19dc:	f6 4f       	sbci	r31, 0xF6	; 246
    19de:	80 83       	st	Z, r24
    19e0:	90 e0       	ldi	r25, 0x00	; 0
    19e2:	9c 01       	movw	r18, r24
    19e4:	22 0f       	add	r18, r18
    19e6:	33 1f       	adc	r19, r19
    19e8:	82 0f       	add	r24, r18
    19ea:	93 1f       	adc	r25, r19
    19ec:	80 50       	subi	r24, 0x00	; 0
    19ee:	9b 4f       	sbci	r25, 0xFB	; 251
    19f0:	24 e1       	ldi	r18, 0x14	; 20
    19f2:	2c 9f       	mul	r18, r28
    19f4:	f0 01       	movw	r30, r0
    19f6:	2d 9f       	mul	r18, r29
    19f8:	f0 0d       	add	r31, r0
    19fa:	11 24       	eor	r1, r1
    19fc:	ea 50       	subi	r30, 0x0A	; 10
    19fe:	fb 4f       	sbci	r31, 0xFB	; 251
    1a00:	a5 91       	lpm	r26, Z+
    1a02:	b4 91       	lpm	r27, Z
    1a04:	fc 01       	movw	r30, r24
    1a06:	24 91       	lpm	r18, Z
    1a08:	2c 93       	st	X, r18
    1a0a:	24 e1       	ldi	r18, 0x14	; 20
    1a0c:	2c 9f       	mul	r18, r28
    1a0e:	f0 01       	movw	r30, r0
    1a10:	2d 9f       	mul	r18, r29
    1a12:	f0 0d       	add	r31, r0
    1a14:	11 24       	eor	r1, r1
    1a16:	ec 50       	subi	r30, 0x0C	; 12
    1a18:	fb 4f       	sbci	r31, 0xFB	; 251
    1a1a:	a5 91       	lpm	r26, Z+
    1a1c:	b4 91       	lpm	r27, Z
    1a1e:	fc 01       	movw	r30, r24
    1a20:	31 96       	adiw	r30, 0x01	; 1
    1a22:	e4 91       	lpm	r30, Z
    1a24:	ec 93       	st	X, r30
    1a26:	fe 01       	movw	r30, r28
    1a28:	ee 0f       	add	r30, r30
    1a2a:	ff 1f       	adc	r31, r31
    1a2c:	ce 0f       	add	r28, r30
    1a2e:	df 1f       	adc	r29, r31
    1a30:	fe 01       	movw	r30, r28
    1a32:	ee 0f       	add	r30, r30
    1a34:	ff 1f       	adc	r31, r31
    1a36:	e4 52       	subi	r30, 0x24	; 36
    1a38:	fb 4f       	sbci	r31, 0xFB	; 251
    1a3a:	a5 91       	lpm	r26, Z+
    1a3c:	b4 91       	lpm	r27, Z
    1a3e:	fc 01       	movw	r30, r24
    1a40:	32 96       	adiw	r30, 0x02	; 2
    1a42:	84 91       	lpm	r24, Z
    1a44:	8c 93       	st	X, r24
    1a46:	df 91       	pop	r29
    1a48:	cf 91       	pop	r28
    1a4a:	08 95       	ret

00001a4c <MB_Transm>:
    1a4c:	cf 93       	push	r28
    1a4e:	df 93       	push	r29
    1a50:	c8 2f       	mov	r28, r24
    1a52:	d0 e0       	ldi	r29, 0x00	; 0
    1a54:	fe 01       	movw	r30, r28
    1a56:	ef 57       	subi	r30, 0x7F	; 127
    1a58:	f8 4f       	sbci	r31, 0xF8	; 248
    1a5a:	83 e0       	ldi	r24, 0x03	; 3
    1a5c:	80 83       	st	Z, r24
    1a5e:	84 e1       	ldi	r24, 0x14	; 20
    1a60:	8c 9f       	mul	r24, r28
    1a62:	f0 01       	movw	r30, r0
    1a64:	8d 9f       	mul	r24, r29
    1a66:	f0 0d       	add	r31, r0
    1a68:	11 24       	eor	r1, r1
    1a6a:	e8 50       	subi	r30, 0x08	; 8
    1a6c:	fb 4f       	sbci	r31, 0xFB	; 251
    1a6e:	85 91       	lpm	r24, Z+
    1a70:	94 91       	lpm	r25, Z
    1a72:	fc 01       	movw	r30, r24
    1a74:	19 95       	eicall
    1a76:	84 e1       	ldi	r24, 0x14	; 20
    1a78:	8c 9f       	mul	r24, r28
    1a7a:	f0 01       	movw	r30, r0
    1a7c:	8d 9f       	mul	r24, r29
    1a7e:	f0 0d       	add	r31, r0
    1a80:	11 24       	eor	r1, r1
    1a82:	e4 51       	subi	r30, 0x14	; 20
    1a84:	fb 4f       	sbci	r31, 0xFB	; 251
    1a86:	a5 91       	lpm	r26, Z+
    1a88:	b4 91       	lpm	r27, Z
    1a8a:	fc 2f       	mov	r31, r28
    1a8c:	ee 27       	eor	r30, r30
    1a8e:	e0 57       	subi	r30, 0x70	; 112
    1a90:	fe 4e       	sbci	r31, 0xEE	; 238
    1a92:	80 81       	ld	r24, Z
    1a94:	8c 93       	st	X, r24
    1a96:	84 e1       	ldi	r24, 0x14	; 20
    1a98:	8c 9f       	mul	r24, r28
    1a9a:	f0 01       	movw	r30, r0
    1a9c:	8d 9f       	mul	r24, r29
    1a9e:	f0 0d       	add	r31, r0
    1aa0:	11 24       	eor	r1, r1
    1aa2:	e2 51       	subi	r30, 0x12	; 18
    1aa4:	fb 4f       	sbci	r31, 0xFB	; 251
    1aa6:	a5 91       	lpm	r26, Z+
    1aa8:	b4 91       	lpm	r27, Z
    1aaa:	8c 91       	ld	r24, X
    1aac:	80 64       	ori	r24, 0x40	; 64
    1aae:	8c 93       	st	X, r24
    1ab0:	84 e1       	ldi	r24, 0x14	; 20
    1ab2:	8c 9f       	mul	r24, r28
    1ab4:	f0 01       	movw	r30, r0
    1ab6:	8d 9f       	mul	r24, r29
    1ab8:	f0 0d       	add	r31, r0
    1aba:	11 24       	eor	r1, r1
    1abc:	e0 51       	subi	r30, 0x10	; 16
    1abe:	fb 4f       	sbci	r31, 0xFB	; 251
    1ac0:	a5 91       	lpm	r26, Z+
    1ac2:	b4 91       	lpm	r27, Z
    1ac4:	8c 91       	ld	r24, X
    1ac6:	80 62       	ori	r24, 0x20	; 32
    1ac8:	8c 93       	st	X, r24
    1aca:	df 91       	pop	r29
    1acc:	cf 91       	pop	r28
    1ace:	08 95       	ret

00001ad0 <Modbus_RX>:
    1ad0:	cf 93       	push	r28
    1ad2:	df 93       	push	r29
    1ad4:	ec ee       	ldi	r30, 0xEC	; 236
    1ad6:	f4 e0       	ldi	r31, 0x04	; 4
    1ad8:	25 91       	lpm	r18, Z+
    1ada:	34 91       	lpm	r19, Z
    1adc:	82 17       	cp	r24, r18
    1ade:	93 07       	cpc	r25, r19
    1ae0:	91 f0       	breq	.+36     	; 0x1b06 <Modbus_RX+0x36>
    1ae2:	40 e0       	ldi	r20, 0x00	; 0
    1ae4:	54 e1       	ldi	r21, 0x14	; 20
    1ae6:	4f 5f       	subi	r20, 0xFF	; 255
    1ae8:	c4 2f       	mov	r28, r20
    1aea:	d0 e0       	ldi	r29, 0x00	; 0
    1aec:	5c 9f       	mul	r21, r28
    1aee:	f0 01       	movw	r30, r0
    1af0:	5d 9f       	mul	r21, r29
    1af2:	f0 0d       	add	r31, r0
    1af4:	11 24       	eor	r1, r1
    1af6:	e4 51       	subi	r30, 0x14	; 20
    1af8:	fb 4f       	sbci	r31, 0xFB	; 251
    1afa:	25 91       	lpm	r18, Z+
    1afc:	34 91       	lpm	r19, Z
    1afe:	82 17       	cp	r24, r18
    1b00:	93 07       	cpc	r25, r19
    1b02:	89 f7       	brne	.-30     	; 0x1ae6 <Modbus_RX+0x16>
    1b04:	03 c0       	rjmp	.+6      	; 0x1b0c <Modbus_RX+0x3c>
    1b06:	c0 e0       	ldi	r28, 0x00	; 0
    1b08:	d0 e0       	ldi	r29, 0x00	; 0
    1b0a:	40 e0       	ldi	r20, 0x00	; 0
    1b0c:	fe 01       	movw	r30, r28
    1b0e:	ef 57       	subi	r30, 0x7F	; 127
    1b10:	f8 4f       	sbci	r31, 0xF8	; 248
    1b12:	20 81       	ld	r18, Z
    1b14:	22 30       	cpi	r18, 0x02	; 2
    1b16:	09 f4       	brne	.+2      	; 0x1b1a <Modbus_RX+0x4a>
    1b18:	49 c0       	rjmp	.+146    	; 0x1bac <Modbus_RX+0xdc>
    1b1a:	28 f4       	brcc	.+10     	; 0x1b26 <Modbus_RX+0x56>
    1b1c:	22 23       	and	r18, r18
    1b1e:	39 f0       	breq	.+14     	; 0x1b2e <Modbus_RX+0x5e>
    1b20:	21 30       	cpi	r18, 0x01	; 1
    1b22:	d1 f0       	breq	.+52     	; 0x1b58 <Modbus_RX+0x88>
    1b24:	56 c0       	rjmp	.+172    	; 0x1bd2 <Modbus_RX+0x102>
    1b26:	26 30       	cpi	r18, 0x06	; 6
    1b28:	08 f4       	brcc	.+2      	; 0x1b2c <Modbus_RX+0x5c>
    1b2a:	51 c0       	rjmp	.+162    	; 0x1bce <Modbus_RX+0xfe>
    1b2c:	52 c0       	rjmp	.+164    	; 0x1bd2 <Modbus_RX+0x102>
    1b2e:	fc 01       	movw	r30, r24
    1b30:	80 81       	ld	r24, Z
    1b32:	fc 2f       	mov	r31, r28
    1b34:	ee 27       	eor	r30, r30
    1b36:	e0 57       	subi	r30, 0x70	; 112
    1b38:	fe 4e       	sbci	r31, 0xEE	; 238
    1b3a:	80 83       	st	Z, r24
    1b3c:	fe 01       	movw	r30, r28
    1b3e:	ee 0f       	add	r30, r30
    1b40:	ff 1f       	adc	r31, r31
    1b42:	ce 0f       	add	r28, r30
    1b44:	df 1f       	adc	r29, r31
    1b46:	fe 01       	movw	r30, r28
    1b48:	ee 0f       	add	r30, r30
    1b4a:	ff 1f       	adc	r31, r31
    1b4c:	e6 52       	subi	r30, 0x26	; 38
    1b4e:	fb 4f       	sbci	r31, 0xFB	; 251
    1b50:	a5 91       	lpm	r26, Z+
    1b52:	b4 91       	lpm	r27, Z
    1b54:	1c 92       	st	X, r1
    1b56:	3d c0       	rjmp	.+122    	; 0x1bd2 <Modbus_RX+0x102>
    1b58:	fe 01       	movw	r30, r28
    1b5a:	ef 57       	subi	r30, 0x7F	; 127
    1b5c:	f8 4f       	sbci	r31, 0xF8	; 248
    1b5e:	82 e0       	ldi	r24, 0x02	; 2
    1b60:	80 83       	st	Z, r24
    1b62:	21 e0       	ldi	r18, 0x01	; 1
    1b64:	30 e0       	ldi	r19, 0x00	; 0
    1b66:	0c 2e       	mov	r0, r28
    1b68:	02 c0       	rjmp	.+4      	; 0x1b6e <Modbus_RX+0x9e>
    1b6a:	22 0f       	add	r18, r18
    1b6c:	33 1f       	adc	r19, r19
    1b6e:	0a 94       	dec	r0
    1b70:	e2 f7       	brpl	.-8      	; 0x1b6a <Modbus_RX+0x9a>
    1b72:	20 95       	com	r18
    1b74:	80 91 9a 05 	lds	r24, 0x059A
    1b78:	28 23       	and	r18, r24
    1b7a:	20 93 9a 05 	sts	0x059A, r18
    1b7e:	fe 01       	movw	r30, r28
    1b80:	e2 54       	subi	r30, 0x42	; 66
    1b82:	f7 4f       	sbci	r31, 0xF7	; 247
    1b84:	10 82       	st	Z, r1
    1b86:	84 2f       	mov	r24, r20
    1b88:	0e 94 ff 02 	call	0x5fe	; 0x5fe <MBRecept>
    1b8c:	ce 01       	movw	r24, r28
    1b8e:	88 0f       	add	r24, r24
    1b90:	99 1f       	adc	r25, r25
    1b92:	c8 0f       	add	r28, r24
    1b94:	d9 1f       	adc	r29, r25
    1b96:	ce 01       	movw	r24, r28
    1b98:	88 0f       	add	r24, r24
    1b9a:	99 1f       	adc	r25, r25
    1b9c:	82 52       	subi	r24, 0x22	; 34
    1b9e:	9b 4f       	sbci	r25, 0xFB	; 251
    1ba0:	fc 01       	movw	r30, r24
    1ba2:	25 91       	lpm	r18, Z+
    1ba4:	34 91       	lpm	r19, Z
    1ba6:	f9 01       	movw	r30, r18
    1ba8:	19 95       	eicall
    1baa:	13 c0       	rjmp	.+38     	; 0x1bd2 <Modbus_RX+0x102>
    1bac:	84 2f       	mov	r24, r20
    1bae:	0e 94 ff 02 	call	0x5fe	; 0x5fe <MBRecept>
    1bb2:	fe 01       	movw	r30, r28
    1bb4:	ee 0f       	add	r30, r30
    1bb6:	ff 1f       	adc	r31, r31
    1bb8:	ce 0f       	add	r28, r30
    1bba:	df 1f       	adc	r29, r31
    1bbc:	fe 01       	movw	r30, r28
    1bbe:	ee 0f       	add	r30, r30
    1bc0:	ff 1f       	adc	r31, r31
    1bc2:	e6 52       	subi	r30, 0x26	; 38
    1bc4:	fb 4f       	sbci	r31, 0xFB	; 251
    1bc6:	a5 91       	lpm	r26, Z+
    1bc8:	b4 91       	lpm	r27, Z
    1bca:	1c 92       	st	X, r1
    1bcc:	02 c0       	rjmp	.+4      	; 0x1bd2 <Modbus_RX+0x102>
    1bce:	fc 01       	movw	r30, r24
    1bd0:	80 81       	ld	r24, Z
    1bd2:	df 91       	pop	r29
    1bd4:	cf 91       	pop	r28
    1bd6:	08 95       	ret

00001bd8 <CommErr>:
    1bd8:	ef 92       	push	r14
    1bda:	ff 92       	push	r15
    1bdc:	1f 93       	push	r17
    1bde:	cf 93       	push	r28
    1be0:	df 93       	push	r29
    1be2:	c8 2f       	mov	r28, r24
    1be4:	d0 e0       	ldi	r29, 0x00	; 0
    1be6:	fe 01       	movw	r30, r28
    1be8:	e2 54       	subi	r30, 0x42	; 66
    1bea:	f7 4f       	sbci	r31, 0xF7	; 247
    1bec:	20 81       	ld	r18, Z
    1bee:	40 91 9a 05 	lds	r20, 0x059A
    1bf2:	50 e0       	ldi	r21, 0x00	; 0
    1bf4:	ba 01       	movw	r22, r20
    1bf6:	02 c0       	rjmp	.+4      	; 0x1bfc <CommErr+0x24>
    1bf8:	75 95       	asr	r23
    1bfa:	67 95       	ror	r22
    1bfc:	8a 95       	dec	r24
    1bfe:	e2 f7       	brpl	.-8      	; 0x1bf8 <CommErr+0x20>
    1c00:	60 fd       	sbrc	r22, 0
    1c02:	1a c0       	rjmp	.+52     	; 0x1c38 <CommErr+0x60>
    1c04:	23 30       	cpi	r18, 0x03	; 3
    1c06:	d0 f0       	brcs	.+52     	; 0x1c3c <CommErr+0x64>
    1c08:	22 50       	subi	r18, 0x02	; 2
    1c0a:	7c 2f       	mov	r23, r28
    1c0c:	66 27       	eor	r22, r22
    1c0e:	60 57       	subi	r22, 0x70	; 112
    1c10:	7e 4e       	sbci	r23, 0xEE	; 238
    1c12:	fb 01       	movw	r30, r22
    1c14:	e2 0f       	add	r30, r18
    1c16:	f1 1d       	adc	r31, r1
    1c18:	e0 80       	ld	r14, Z
    1c1a:	f1 80       	ldd	r15, Z+1	; 0x01
    1c1c:	30 e0       	ldi	r19, 0x00	; 0
    1c1e:	40 e0       	ldi	r20, 0x00	; 0
    1c20:	50 e0       	ldi	r21, 0x00	; 0
    1c22:	88 eb       	ldi	r24, 0xB8	; 184
    1c24:	92 e0       	ldi	r25, 0x02	; 2
    1c26:	bf dd       	rcall	.-1154   	; 0x17a6 <CRC>
    1c28:	11 e0       	ldi	r17, 0x01	; 1
    1c2a:	e8 16       	cp	r14, r24
    1c2c:	f9 06       	cpc	r15, r25
    1c2e:	09 f4       	brne	.+2      	; 0x1c32 <CommErr+0x5a>
    1c30:	10 e0       	ldi	r17, 0x00	; 0
    1c32:	11 23       	and	r17, r17
    1c34:	f9 f0       	breq	.+62     	; 0x1c74 <CommErr+0x9c>
    1c36:	03 c0       	rjmp	.+6      	; 0x1c3e <CommErr+0x66>
    1c38:	11 e0       	ldi	r17, 0x01	; 1
    1c3a:	01 c0       	rjmp	.+2      	; 0x1c3e <CommErr+0x66>
    1c3c:	11 e0       	ldi	r17, 0x01	; 1
    1c3e:	fe 01       	movw	r30, r28
    1c40:	e2 95       	swap	r30
    1c42:	f2 95       	swap	r31
    1c44:	f0 7f       	andi	r31, 0xF0	; 240
    1c46:	fe 27       	eor	r31, r30
    1c48:	e0 7f       	andi	r30, 0xF0	; 240
    1c4a:	fe 27       	eor	r31, r30
    1c4c:	ef 50       	subi	r30, 0x0F	; 15
    1c4e:	ff 4e       	sbci	r31, 0xEF	; 239
    1c50:	82 81       	ldd	r24, Z+2	; 0x02
    1c52:	93 81       	ldd	r25, Z+3	; 0x03
    1c54:	01 96       	adiw	r24, 0x01	; 1
    1c56:	93 83       	std	Z+3, r25	; 0x03
    1c58:	82 83       	std	Z+2, r24	; 0x02
    1c5a:	84 e1       	ldi	r24, 0x14	; 20
    1c5c:	8c 9f       	mul	r24, r28
    1c5e:	f0 01       	movw	r30, r0
    1c60:	8d 9f       	mul	r24, r29
    1c62:	f0 0d       	add	r31, r0
    1c64:	11 24       	eor	r1, r1
    1c66:	e4 50       	subi	r30, 0x04	; 4
    1c68:	fb 4f       	sbci	r31, 0xFB	; 251
    1c6a:	85 91       	lpm	r24, Z+
    1c6c:	94 91       	lpm	r25, Z
    1c6e:	fc 01       	movw	r30, r24
    1c70:	19 95       	eicall
    1c72:	1b c0       	rjmp	.+54     	; 0x1caa <CommErr+0xd2>
    1c74:	fe 01       	movw	r30, r28
    1c76:	e2 95       	swap	r30
    1c78:	f2 95       	swap	r31
    1c7a:	f0 7f       	andi	r31, 0xF0	; 240
    1c7c:	fe 27       	eor	r31, r30
    1c7e:	e0 7f       	andi	r30, 0xF0	; 240
    1c80:	fe 27       	eor	r31, r30
    1c82:	ef 50       	subi	r30, 0x0F	; 15
    1c84:	ff 4e       	sbci	r31, 0xEF	; 239
    1c86:	20 81       	ld	r18, Z
    1c88:	31 81       	ldd	r19, Z+1	; 0x01
    1c8a:	2f 5f       	subi	r18, 0xFF	; 255
    1c8c:	3f 4f       	sbci	r19, 0xFF	; 255
    1c8e:	31 83       	std	Z+1, r19	; 0x01
    1c90:	20 83       	st	Z, r18
    1c92:	84 e1       	ldi	r24, 0x14	; 20
    1c94:	8c 9f       	mul	r24, r28
    1c96:	f0 01       	movw	r30, r0
    1c98:	8d 9f       	mul	r24, r29
    1c9a:	f0 0d       	add	r31, r0
    1c9c:	11 24       	eor	r1, r1
    1c9e:	e2 50       	subi	r30, 0x02	; 2
    1ca0:	fb 4f       	sbci	r31, 0xFB	; 251
    1ca2:	25 91       	lpm	r18, Z+
    1ca4:	34 91       	lpm	r19, Z
    1ca6:	f9 01       	movw	r30, r18
    1ca8:	19 95       	eicall
    1caa:	81 2f       	mov	r24, r17
    1cac:	df 91       	pop	r29
    1cae:	cf 91       	pop	r28
    1cb0:	1f 91       	pop	r17
    1cb2:	ff 90       	pop	r15
    1cb4:	ef 90       	pop	r14
    1cb6:	08 95       	ret

00001cb8 <SetCRC_MB>:
    1cb8:	cf 93       	push	r28
    1cba:	df 93       	push	r29
    1cbc:	68 2f       	mov	r22, r24
    1cbe:	70 e0       	ldi	r23, 0x00	; 0
    1cc0:	fb 01       	movw	r30, r22
    1cc2:	e2 54       	subi	r30, 0x42	; 66
    1cc4:	f7 4f       	sbci	r31, 0xF7	; 247
    1cc6:	20 81       	ld	r18, Z
    1cc8:	22 50       	subi	r18, 0x02	; 2
    1cca:	76 2f       	mov	r23, r22
    1ccc:	66 27       	eor	r22, r22
    1cce:	60 57       	subi	r22, 0x70	; 112
    1cd0:	7e 4e       	sbci	r23, 0xEE	; 238
    1cd2:	eb 01       	movw	r28, r22
    1cd4:	c2 0f       	add	r28, r18
    1cd6:	d1 1d       	adc	r29, r1
    1cd8:	30 e0       	ldi	r19, 0x00	; 0
    1cda:	40 e0       	ldi	r20, 0x00	; 0
    1cdc:	50 e0       	ldi	r21, 0x00	; 0
    1cde:	88 eb       	ldi	r24, 0xB8	; 184
    1ce0:	92 e0       	ldi	r25, 0x02	; 2
    1ce2:	61 dd       	rcall	.-1342   	; 0x17a6 <CRC>
    1ce4:	99 83       	std	Y+1, r25	; 0x01
    1ce6:	88 83       	st	Y, r24
    1ce8:	df 91       	pop	r29
    1cea:	cf 91       	pop	r28
    1cec:	08 95       	ret

00001cee <MB_FrameReg>:
    1cee:	28 2f       	mov	r18, r24
    1cf0:	30 e0       	ldi	r19, 0x00	; 0
    1cf2:	70 e0       	ldi	r23, 0x00	; 0
    1cf4:	32 2f       	mov	r19, r18
    1cf6:	22 27       	eor	r18, r18
    1cf8:	f9 01       	movw	r30, r18
    1cfa:	e0 57       	subi	r30, 0x70	; 112
    1cfc:	fe 4e       	sbci	r31, 0xEE	; 238
    1cfe:	e6 0f       	add	r30, r22
    1d00:	f7 1f       	adc	r31, r23
    1d02:	81 81       	ldd	r24, Z+1	; 0x01
    1d04:	62 0f       	add	r22, r18
    1d06:	73 1f       	adc	r23, r19
    1d08:	fb 01       	movw	r30, r22
    1d0a:	e0 57       	subi	r30, 0x70	; 112
    1d0c:	fe 4e       	sbci	r31, 0xEE	; 238
    1d0e:	20 81       	ld	r18, Z
    1d10:	90 e0       	ldi	r25, 0x00	; 0
    1d12:	92 2b       	or	r25, r18
    1d14:	08 95       	ret

00001d16 <FormData>:
    1d16:	cf 92       	push	r12
    1d18:	df 92       	push	r13
    1d1a:	ef 92       	push	r14
    1d1c:	ff 92       	push	r15
    1d1e:	0f 93       	push	r16
    1d20:	1f 93       	push	r17
    1d22:	cf 93       	push	r28
    1d24:	df 93       	push	r29
    1d26:	f8 2e       	mov	r15, r24
    1d28:	c8 2f       	mov	r28, r24
    1d2a:	d0 e0       	ldi	r29, 0x00	; 0
    1d2c:	fc 2f       	mov	r31, r28
    1d2e:	ee 27       	eor	r30, r30
    1d30:	e0 57       	subi	r30, 0x70	; 112
    1d32:	fe 4e       	sbci	r31, 0xEE	; 238
    1d34:	81 81       	ldd	r24, Z+1	; 0x01
    1d36:	86 30       	cpi	r24, 0x06	; 6
    1d38:	81 f0       	breq	.+32     	; 0x1d5a <FormData+0x44>
    1d3a:	20 f4       	brcc	.+8      	; 0x1d44 <FormData+0x2e>
    1d3c:	81 50       	subi	r24, 0x01	; 1
    1d3e:	84 30       	cpi	r24, 0x04	; 4
    1d40:	38 f0       	brcs	.+14     	; 0x1d50 <FormData+0x3a>
    1d42:	e7 c0       	rjmp	.+462    	; 0x1f12 <FormData+0x1fc>
    1d44:	8f 30       	cpi	r24, 0x0F	; 15
    1d46:	d9 f0       	breq	.+54     	; 0x1d7e <FormData+0x68>
    1d48:	80 31       	cpi	r24, 0x10	; 16
    1d4a:	09 f4       	brne	.+2      	; 0x1d4e <FormData+0x38>
    1d4c:	b3 c0       	rjmp	.+358    	; 0x1eb4 <FormData+0x19e>
    1d4e:	e1 c0       	rjmp	.+450    	; 0x1f12 <FormData+0x1fc>
    1d50:	c2 54       	subi	r28, 0x42	; 66
    1d52:	d7 4f       	sbci	r29, 0xF7	; 247
    1d54:	88 e0       	ldi	r24, 0x08	; 8
    1d56:	88 83       	st	Y, r24
    1d58:	dc c0       	rjmp	.+440    	; 0x1f12 <FormData+0x1fc>
    1d5a:	fe 01       	movw	r30, r28
    1d5c:	e2 54       	subi	r30, 0x42	; 66
    1d5e:	f7 4f       	sbci	r31, 0xF7	; 247
    1d60:	88 e0       	ldi	r24, 0x08	; 8
    1d62:	80 83       	st	Z, r24
    1d64:	8f 2d       	mov	r24, r15
    1d66:	0e 94 45 03 	call	0x68a	; 0x68a <GetReg>
    1d6a:	dc 2f       	mov	r29, r28
    1d6c:	cc 27       	eor	r28, r28
    1d6e:	c0 57       	subi	r28, 0x70	; 112
    1d70:	de 4e       	sbci	r29, 0xEE	; 238
    1d72:	fc 01       	movw	r30, r24
    1d74:	21 81       	ldd	r18, Z+1	; 0x01
    1d76:	2c 83       	std	Y+4, r18	; 0x04
    1d78:	80 81       	ld	r24, Z
    1d7a:	8d 83       	std	Y+5, r24	; 0x05
    1d7c:	ca c0       	rjmp	.+404    	; 0x1f12 <FormData+0x1fc>
    1d7e:	64 e0       	ldi	r22, 0x04	; 4
    1d80:	8f 2d       	mov	r24, r15
    1d82:	b5 df       	rcall	.-150    	; 0x1cee <MB_FrameReg>
    1d84:	8c 01       	movw	r16, r24
    1d86:	96 95       	lsr	r25
    1d88:	87 95       	ror	r24
    1d8a:	96 95       	lsr	r25
    1d8c:	87 95       	ror	r24
    1d8e:	96 95       	lsr	r25
    1d90:	87 95       	ror	r24
    1d92:	98 01       	movw	r18, r16
    1d94:	27 70       	andi	r18, 0x07	; 7
    1d96:	33 27       	eor	r19, r19
    1d98:	41 e0       	ldi	r20, 0x01	; 1
    1d9a:	23 2b       	or	r18, r19
    1d9c:	09 f4       	brne	.+2      	; 0x1da0 <FormData+0x8a>
    1d9e:	40 e0       	ldi	r20, 0x00	; 0
    1da0:	24 2f       	mov	r18, r20
    1da2:	28 0f       	add	r18, r24
    1da4:	fc 2f       	mov	r31, r28
    1da6:	ee 27       	eor	r30, r30
    1da8:	e0 57       	subi	r30, 0x70	; 112
    1daa:	fe 4e       	sbci	r31, 0xEE	; 238
    1dac:	26 83       	std	Z+6, r18	; 0x06
    1dae:	de 01       	movw	r26, r28
    1db0:	a2 54       	subi	r26, 0x42	; 66
    1db2:	b7 4f       	sbci	r27, 0xF7	; 247
    1db4:	27 5f       	subi	r18, 0xF7	; 247
    1db6:	2c 93       	st	X, r18
    1db8:	e8 0f       	add	r30, r24
    1dba:	f9 1f       	adc	r31, r25
    1dbc:	17 82       	std	Z+7, r1	; 0x07
    1dbe:	fe 01       	movw	r30, r28
    1dc0:	e9 56       	subi	r30, 0x69	; 105
    1dc2:	f7 4f       	sbci	r31, 0xF7	; 247
    1dc4:	80 81       	ld	r24, Z
    1dc6:	82 30       	cpi	r24, 0x02	; 2
    1dc8:	09 f1       	breq	.+66     	; 0x1e0c <FormData+0xf6>
    1dca:	fe 01       	movw	r30, r28
    1dcc:	e2 95       	swap	r30
    1dce:	f2 95       	swap	r31
    1dd0:	f0 7f       	andi	r31, 0xF0	; 240
    1dd2:	fe 27       	eor	r31, r30
    1dd4:	e0 7f       	andi	r30, 0xF0	; 240
    1dd6:	fe 27       	eor	r31, r30
    1dd8:	e5 5e       	subi	r30, 0xE5	; 229
    1dda:	fa 4f       	sbci	r31, 0xFA	; 250
    1ddc:	c5 90       	lpm	r12, Z+
    1dde:	d4 90       	lpm	r13, Z
    1de0:	8f 2d       	mov	r24, r15
    1de2:	0e 94 e7 02 	call	0x5ce	; 0x5ce <GetSlave>
    1de6:	01 96       	adiw	r24, 0x01	; 1
    1de8:	fc 01       	movw	r30, r24
    1dea:	85 91       	lpm	r24, Z+
    1dec:	94 91       	lpm	r25, Z
    1dee:	fe 01       	movw	r30, r28
    1df0:	e6 57       	subi	r30, 0x76	; 118
    1df2:	f7 4f       	sbci	r31, 0xF7	; 247
    1df4:	20 81       	ld	r18, Z
    1df6:	fc 01       	movw	r30, r24
    1df8:	37 e0       	ldi	r19, 0x07	; 7
    1dfa:	23 9f       	mul	r18, r19
    1dfc:	e0 0d       	add	r30, r0
    1dfe:	f1 1d       	adc	r31, r1
    1e00:	11 24       	eor	r1, r1
    1e02:	35 96       	adiw	r30, 0x05	; 5
    1e04:	85 91       	lpm	r24, Z+
    1e06:	94 91       	lpm	r25, Z
    1e08:	b8 2f       	mov	r27, r24
    1e0a:	0c c0       	rjmp	.+24     	; 0x1e24 <FormData+0x10e>
    1e0c:	fe 01       	movw	r30, r28
    1e0e:	ee 0f       	add	r30, r30
    1e10:	ff 1f       	adc	r31, r31
    1e12:	ee 0f       	add	r30, r30
    1e14:	ff 1f       	adc	r31, r31
    1e16:	ee 0f       	add	r30, r30
    1e18:	ff 1f       	adc	r31, r31
    1e1a:	ee 56       	subi	r30, 0x6E	; 110
    1e1c:	fa 4f       	sbci	r31, 0xFA	; 250
    1e1e:	c6 80       	ldd	r12, Z+6	; 0x06
    1e20:	d7 80       	ldd	r13, Z+7	; 0x07
    1e22:	b0 e0       	ldi	r27, 0x00	; 0
    1e24:	01 15       	cp	r16, r1
    1e26:	11 05       	cpc	r17, r1
    1e28:	09 f4       	brne	.+2      	; 0x1e2c <FormData+0x116>
    1e2a:	73 c0       	rjmp	.+230    	; 0x1f12 <FormData+0x1fc>
    1e2c:	a0 e0       	ldi	r26, 0x00	; 0
    1e2e:	61 e0       	ldi	r22, 0x01	; 1
    1e30:	70 e0       	ldi	r23, 0x00	; 0
    1e32:	dc 2f       	mov	r29, r28
    1e34:	cc 27       	eor	r28, r28
    1e36:	8a 2f       	mov	r24, r26
    1e38:	8b 0f       	add	r24, r27
    1e3a:	9a 2f       	mov	r25, r26
    1e3c:	96 95       	lsr	r25
    1e3e:	96 95       	lsr	r25
    1e40:	96 95       	lsr	r25
    1e42:	0f 2e       	mov	r0, r31
    1e44:	f7 e0       	ldi	r31, 0x07	; 7
    1e46:	ef 2e       	mov	r14, r31
    1e48:	f0 2d       	mov	r31, r0
    1e4a:	e9 0e       	add	r14, r25
    1e4c:	2a 2f       	mov	r18, r26
    1e4e:	27 70       	andi	r18, 0x07	; 7
    1e50:	ab 01       	movw	r20, r22
    1e52:	02 c0       	rjmp	.+4      	; 0x1e58 <FormData+0x142>
    1e54:	44 0f       	add	r20, r20
    1e56:	55 1f       	adc	r21, r21
    1e58:	2a 95       	dec	r18
    1e5a:	e2 f7       	brpl	.-8      	; 0x1e54 <FormData+0x13e>
    1e5c:	9a 01       	movw	r18, r20
    1e5e:	98 2f       	mov	r25, r24
    1e60:	96 95       	lsr	r25
    1e62:	96 95       	lsr	r25
    1e64:	96 95       	lsr	r25
    1e66:	f6 01       	movw	r30, r12
    1e68:	e9 0f       	add	r30, r25
    1e6a:	f1 1d       	adc	r31, r1
    1e6c:	40 81       	ld	r20, Z
    1e6e:	50 e0       	ldi	r21, 0x00	; 0
    1e70:	87 70       	andi	r24, 0x07	; 7
    1e72:	fa 01       	movw	r30, r20
    1e74:	02 c0       	rjmp	.+4      	; 0x1e7a <FormData+0x164>
    1e76:	f5 95       	asr	r31
    1e78:	e7 95       	ror	r30
    1e7a:	8a 95       	dec	r24
    1e7c:	e2 f7       	brpl	.-8      	; 0x1e76 <FormData+0x160>
    1e7e:	e0 ff       	sbrs	r30, 0
    1e80:	09 c0       	rjmp	.+18     	; 0x1e94 <FormData+0x17e>
    1e82:	fe 01       	movw	r30, r28
    1e84:	ee 0d       	add	r30, r14
    1e86:	f1 1d       	adc	r31, r1
    1e88:	e0 57       	subi	r30, 0x70	; 112
    1e8a:	fe 4e       	sbci	r31, 0xEE	; 238
    1e8c:	80 81       	ld	r24, Z
    1e8e:	28 2b       	or	r18, r24
    1e90:	20 83       	st	Z, r18
    1e92:	09 c0       	rjmp	.+18     	; 0x1ea6 <FormData+0x190>
    1e94:	fe 01       	movw	r30, r28
    1e96:	ee 0d       	add	r30, r14
    1e98:	f1 1d       	adc	r31, r1
    1e9a:	e0 57       	subi	r30, 0x70	; 112
    1e9c:	fe 4e       	sbci	r31, 0xEE	; 238
    1e9e:	20 95       	com	r18
    1ea0:	80 81       	ld	r24, Z
    1ea2:	28 23       	and	r18, r24
    1ea4:	20 83       	st	Z, r18
    1ea6:	af 5f       	subi	r26, 0xFF	; 255
    1ea8:	2a 2f       	mov	r18, r26
    1eaa:	30 e0       	ldi	r19, 0x00	; 0
    1eac:	20 17       	cp	r18, r16
    1eae:	31 07       	cpc	r19, r17
    1eb0:	10 f2       	brcs	.-124    	; 0x1e36 <FormData+0x120>
    1eb2:	2f c0       	rjmp	.+94     	; 0x1f12 <FormData+0x1fc>
    1eb4:	1c 2f       	mov	r17, r28
    1eb6:	00 27       	eor	r16, r16
    1eb8:	00 57       	subi	r16, 0x70	; 112
    1eba:	1e 4e       	sbci	r17, 0xEE	; 238
    1ebc:	f8 01       	movw	r30, r16
    1ebe:	85 81       	ldd	r24, Z+5	; 0x05
    1ec0:	88 0f       	add	r24, r24
    1ec2:	86 83       	std	Z+6, r24	; 0x06
    1ec4:	fe 01       	movw	r30, r28
    1ec6:	e2 54       	subi	r30, 0x42	; 66
    1ec8:	f7 4f       	sbci	r31, 0xF7	; 247
    1eca:	87 5f       	subi	r24, 0xF7	; 247
    1ecc:	80 83       	st	Z, r24
    1ece:	8f 2d       	mov	r24, r15
    1ed0:	0e 94 45 03 	call	0x68a	; 0x68a <GetReg>
    1ed4:	f8 01       	movw	r30, r16
    1ed6:	25 81       	ldd	r18, Z+5	; 0x05
    1ed8:	22 23       	and	r18, r18
    1eda:	d9 f0       	breq	.+54     	; 0x1f12 <FormData+0x1fc>
    1edc:	40 e0       	ldi	r20, 0x00	; 0
    1ede:	e8 01       	movw	r28, r16
    1ee0:	98 01       	movw	r18, r16
    1ee2:	2b 5f       	subi	r18, 0xFB	; 251
    1ee4:	3f 4f       	sbci	r19, 0xFF	; 255
    1ee6:	54 2f       	mov	r21, r20
    1ee8:	55 0f       	add	r21, r21
    1eea:	a4 2f       	mov	r26, r20
    1eec:	b0 e0       	ldi	r27, 0x00	; 0
    1eee:	aa 0f       	add	r26, r26
    1ef0:	bb 1f       	adc	r27, r27
    1ef2:	a8 0f       	add	r26, r24
    1ef4:	b9 1f       	adc	r27, r25
    1ef6:	fe 01       	movw	r30, r28
    1ef8:	e5 0f       	add	r30, r21
    1efa:	f1 1d       	adc	r31, r1
    1efc:	11 96       	adiw	r26, 0x01	; 1
    1efe:	5c 91       	ld	r21, X
    1f00:	11 97       	sbiw	r26, 0x01	; 1
    1f02:	57 83       	std	Z+7, r21	; 0x07
    1f04:	5c 91       	ld	r21, X
    1f06:	50 87       	std	Z+8, r21	; 0x08
    1f08:	4f 5f       	subi	r20, 0xFF	; 255
    1f0a:	f9 01       	movw	r30, r18
    1f0c:	50 81       	ld	r21, Z
    1f0e:	45 17       	cp	r20, r21
    1f10:	50 f3       	brcs	.-44     	; 0x1ee6 <FormData+0x1d0>
    1f12:	8f 2d       	mov	r24, r15
    1f14:	d1 de       	rcall	.-606    	; 0x1cb8 <SetCRC_MB>
    1f16:	df 91       	pop	r29
    1f18:	cf 91       	pop	r28
    1f1a:	1f 91       	pop	r17
    1f1c:	0f 91       	pop	r16
    1f1e:	ff 90       	pop	r15
    1f20:	ef 90       	pop	r14
    1f22:	df 90       	pop	r13
    1f24:	cf 90       	pop	r12
    1f26:	08 95       	ret

00001f28 <FormQuery>:
    1f28:	cf 93       	push	r28
    1f2a:	c8 2f       	mov	r28, r24
    1f2c:	0e 94 e7 02 	call	0x5ce	; 0x5ce <GetSlave>
    1f30:	bc 01       	movw	r22, r24
    1f32:	fc 01       	movw	r30, r24
    1f34:	31 96       	adiw	r30, 0x01	; 1
    1f36:	45 91       	lpm	r20, Z+
    1f38:	54 91       	lpm	r21, Z
    1f3a:	2c 2f       	mov	r18, r28
    1f3c:	30 e0       	ldi	r19, 0x00	; 0
    1f3e:	f9 01       	movw	r30, r18
    1f40:	e6 57       	subi	r30, 0x76	; 118
    1f42:	f7 4f       	sbci	r31, 0xF7	; 247
    1f44:	80 81       	ld	r24, Z
    1f46:	97 e0       	ldi	r25, 0x07	; 7
    1f48:	89 9f       	mul	r24, r25
    1f4a:	40 0d       	add	r20, r0
    1f4c:	51 1d       	adc	r21, r1
    1f4e:	11 24       	eor	r1, r1
    1f50:	fb 01       	movw	r30, r22
    1f52:	64 91       	lpm	r22, Z
    1f54:	f2 2f       	mov	r31, r18
    1f56:	ee 27       	eor	r30, r30
    1f58:	e0 57       	subi	r30, 0x70	; 112
    1f5a:	fe 4e       	sbci	r31, 0xEE	; 238
    1f5c:	60 83       	st	Z, r22
    1f5e:	fa 01       	movw	r30, r20
    1f60:	84 91       	lpm	r24, Z
    1f62:	f2 2f       	mov	r31, r18
    1f64:	ee 27       	eor	r30, r30
    1f66:	e0 57       	subi	r30, 0x70	; 112
    1f68:	fe 4e       	sbci	r31, 0xEE	; 238
    1f6a:	81 83       	std	Z+1, r24	; 0x01
    1f6c:	fa 01       	movw	r30, r20
    1f6e:	32 96       	adiw	r30, 0x02	; 2
    1f70:	e4 91       	lpm	r30, Z
    1f72:	b2 2f       	mov	r27, r18
    1f74:	aa 27       	eor	r26, r26
    1f76:	a0 57       	subi	r26, 0x70	; 112
    1f78:	be 4e       	sbci	r27, 0xEE	; 238
    1f7a:	12 96       	adiw	r26, 0x02	; 2
    1f7c:	ec 93       	st	X, r30
    1f7e:	fa 01       	movw	r30, r20
    1f80:	31 96       	adiw	r30, 0x01	; 1
    1f82:	e4 91       	lpm	r30, Z
    1f84:	b2 2f       	mov	r27, r18
    1f86:	aa 27       	eor	r26, r26
    1f88:	a0 57       	subi	r26, 0x70	; 112
    1f8a:	be 4e       	sbci	r27, 0xEE	; 238
    1f8c:	13 96       	adiw	r26, 0x03	; 3
    1f8e:	ec 93       	st	X, r30
    1f90:	fa 01       	movw	r30, r20
    1f92:	34 96       	adiw	r30, 0x04	; 4
    1f94:	e4 91       	lpm	r30, Z
    1f96:	b2 2f       	mov	r27, r18
    1f98:	aa 27       	eor	r26, r26
    1f9a:	a0 57       	subi	r26, 0x70	; 112
    1f9c:	be 4e       	sbci	r27, 0xEE	; 238
    1f9e:	14 96       	adiw	r26, 0x04	; 4
    1fa0:	ec 93       	st	X, r30
    1fa2:	fa 01       	movw	r30, r20
    1fa4:	33 96       	adiw	r30, 0x03	; 3
    1fa6:	44 91       	lpm	r20, Z
    1fa8:	b2 2f       	mov	r27, r18
    1faa:	aa 27       	eor	r26, r26
    1fac:	a0 57       	subi	r26, 0x70	; 112
    1fae:	be 4e       	sbci	r27, 0xEE	; 238
    1fb0:	15 96       	adiw	r26, 0x05	; 5
    1fb2:	4c 93       	st	X, r20
    1fb4:	8c 2f       	mov	r24, r28
    1fb6:	af de       	rcall	.-674    	; 0x1d16 <FormData>
    1fb8:	cf 91       	pop	r28
    1fba:	08 95       	ret

00001fbc <FormSingle>:
    1fbc:	28 2f       	mov	r18, r24
    1fbe:	30 e0       	ldi	r19, 0x00	; 0
    1fc0:	f2 2f       	mov	r31, r18
    1fc2:	ee 27       	eor	r30, r30
    1fc4:	e0 57       	subi	r30, 0x70	; 112
    1fc6:	fe 4e       	sbci	r31, 0xEE	; 238
    1fc8:	d9 01       	movw	r26, r18
    1fca:	aa 0f       	add	r26, r26
    1fcc:	bb 1f       	adc	r27, r27
    1fce:	aa 0f       	add	r26, r26
    1fd0:	bb 1f       	adc	r27, r27
    1fd2:	aa 0f       	add	r26, r26
    1fd4:	bb 1f       	adc	r27, r27
    1fd6:	ae 56       	subi	r26, 0x6E	; 110
    1fd8:	ba 4f       	sbci	r27, 0xFA	; 250
    1fda:	9c 91       	ld	r25, X
    1fdc:	90 83       	st	Z, r25
    1fde:	11 96       	adiw	r26, 0x01	; 1
    1fe0:	9c 91       	ld	r25, X
    1fe2:	11 97       	sbiw	r26, 0x01	; 1
    1fe4:	91 83       	std	Z+1, r25	; 0x01
    1fe6:	12 96       	adiw	r26, 0x02	; 2
    1fe8:	9c 91       	ld	r25, X
    1fea:	12 97       	sbiw	r26, 0x02	; 2
    1fec:	13 96       	adiw	r26, 0x03	; 3
    1fee:	4c 91       	ld	r20, X
    1ff0:	13 97       	sbiw	r26, 0x03	; 3
    1ff2:	42 83       	std	Z+2, r20	; 0x02
    1ff4:	93 83       	std	Z+3, r25	; 0x03
    1ff6:	14 96       	adiw	r26, 0x04	; 4
    1ff8:	9c 91       	ld	r25, X
    1ffa:	14 97       	sbiw	r26, 0x04	; 4
    1ffc:	15 96       	adiw	r26, 0x05	; 5
    1ffe:	4c 91       	ld	r20, X
    2000:	44 83       	std	Z+4, r20	; 0x04
    2002:	95 83       	std	Z+5, r25	; 0x05
    2004:	f9 01       	movw	r30, r18
    2006:	e9 56       	subi	r30, 0x69	; 105
    2008:	f7 4f       	sbci	r31, 0xF7	; 247
    200a:	92 e0       	ldi	r25, 0x02	; 2
    200c:	90 83       	st	Z, r25
    200e:	83 ce       	rjmp	.-762    	; 0x1d16 <FormData>
    2010:	08 95       	ret

00002012 <MB_S_Timer_ISR>:
    2012:	6f 92       	push	r6
    2014:	7f 92       	push	r7
    2016:	8f 92       	push	r8
    2018:	9f 92       	push	r9
    201a:	af 92       	push	r10
    201c:	bf 92       	push	r11
    201e:	cf 92       	push	r12
    2020:	df 92       	push	r13
    2022:	ef 92       	push	r14
    2024:	ff 92       	push	r15
    2026:	0f 93       	push	r16
    2028:	1f 93       	push	r17
    202a:	cf 93       	push	r28
    202c:	df 93       	push	r29
    202e:	d8 2e       	mov	r13, r24
    2030:	c8 2f       	mov	r28, r24
    2032:	d0 e0       	ldi	r29, 0x00	; 0
    2034:	fe 01       	movw	r30, r28
    2036:	ef 57       	subi	r30, 0x7F	; 127
    2038:	f8 4f       	sbci	r31, 0xF8	; 248
    203a:	80 81       	ld	r24, Z
    203c:	88 23       	and	r24, r24
    203e:	19 f0       	breq	.+6      	; 0x2046 <MB_S_Timer_ISR+0x34>
    2040:	82 30       	cpi	r24, 0x02	; 2
    2042:	31 f0       	breq	.+12     	; 0x2050 <MB_S_Timer_ISR+0x3e>
    2044:	6f c3       	rjmp	.+1758   	; 0x2724 <__stack+0x525>
    2046:	cf 57       	subi	r28, 0x7F	; 127
    2048:	d8 4f       	sbci	r29, 0xF8	; 248
    204a:	81 e0       	ldi	r24, 0x01	; 1
    204c:	88 83       	st	Y, r24
    204e:	6a c3       	rjmp	.+1748   	; 0x2724 <__stack+0x525>
    2050:	84 e0       	ldi	r24, 0x04	; 4
    2052:	fe 01       	movw	r30, r28
    2054:	ef 57       	subi	r30, 0x7F	; 127
    2056:	f8 4f       	sbci	r31, 0xF8	; 248
    2058:	80 83       	st	Z, r24
    205a:	8d 2d       	mov	r24, r13
    205c:	bd dd       	rcall	.-1158   	; 0x1bd8 <CommErr>
    205e:	88 23       	and	r24, r24
    2060:	29 f0       	breq	.+10     	; 0x206c <MB_S_Timer_ISR+0x5a>
    2062:	cf 57       	subi	r28, 0x7F	; 127
    2064:	d8 4f       	sbci	r29, 0xF8	; 248
    2066:	81 e0       	ldi	r24, 0x01	; 1
    2068:	88 83       	st	Y, r24
    206a:	5c c3       	rjmp	.+1720   	; 0x2724 <__stack+0x525>
    206c:	fc 2f       	mov	r31, r28
    206e:	ee 27       	eor	r30, r30
    2070:	e0 57       	subi	r30, 0x70	; 112
    2072:	fe 4e       	sbci	r31, 0xEE	; 238
    2074:	80 81       	ld	r24, Z
    2076:	88 23       	and	r24, r24
    2078:	59 f0       	breq	.+22     	; 0x2090 <MB_S_Timer_ISR+0x7e>
    207a:	fe 01       	movw	r30, r28
    207c:	ee 58       	subi	r30, 0x8E	; 142
    207e:	f7 4f       	sbci	r31, 0xF7	; 247
    2080:	90 81       	ld	r25, Z
    2082:	89 17       	cp	r24, r25
    2084:	29 f0       	breq	.+10     	; 0x2090 <MB_S_Timer_ISR+0x7e>
    2086:	cf 57       	subi	r28, 0x7F	; 127
    2088:	d8 4f       	sbci	r29, 0xF8	; 248
    208a:	81 e0       	ldi	r24, 0x01	; 1
    208c:	88 83       	st	Y, r24
    208e:	4a c3       	rjmp	.+1684   	; 0x2724 <__stack+0x525>
    2090:	84 e1       	ldi	r24, 0x14	; 20
    2092:	8c 9f       	mul	r24, r28
    2094:	80 01       	movw	r16, r0
    2096:	8d 9f       	mul	r24, r29
    2098:	10 0d       	add	r17, r0
    209a:	11 24       	eor	r1, r1
    209c:	06 50       	subi	r16, 0x06	; 6
    209e:	1b 4f       	sbci	r17, 0xFB	; 251
    20a0:	f8 01       	movw	r30, r16
    20a2:	25 91       	lpm	r18, Z+
    20a4:	34 91       	lpm	r19, Z
    20a6:	f9 01       	movw	r30, r18
    20a8:	19 95       	eicall
    20aa:	fe 01       	movw	r30, r28
    20ac:	e2 95       	swap	r30
    20ae:	f2 95       	swap	r31
    20b0:	f0 7f       	andi	r31, 0xF0	; 240
    20b2:	fe 27       	eor	r31, r30
    20b4:	e0 7f       	andi	r30, 0xF0	; 240
    20b6:	fe 27       	eor	r31, r30
    20b8:	ef 50       	subi	r30, 0x0F	; 15
    20ba:	ff 4e       	sbci	r31, 0xEF	; 239
    20bc:	86 81       	ldd	r24, Z+6	; 0x06
    20be:	97 81       	ldd	r25, Z+7	; 0x07
    20c0:	01 96       	adiw	r24, 0x01	; 1
    20c2:	97 83       	std	Z+7, r25	; 0x07
    20c4:	86 83       	std	Z+6, r24	; 0x06
    20c6:	62 e0       	ldi	r22, 0x02	; 2
    20c8:	8d 2d       	mov	r24, r13
    20ca:	11 de       	rcall	.-990    	; 0x1cee <MB_FrameReg>
    20cc:	7c 01       	movw	r14, r24
    20ce:	fc 2f       	mov	r31, r28
    20d0:	ee 27       	eor	r30, r30
    20d2:	e0 57       	subi	r30, 0x70	; 112
    20d4:	fe 4e       	sbci	r31, 0xEE	; 238
    20d6:	c1 80       	ldd	r12, Z+1	; 0x01
    20d8:	8c 2d       	mov	r24, r12
    20da:	90 e0       	ldi	r25, 0x00	; 0
    20dc:	fc 01       	movw	r30, r24
    20de:	31 97       	sbiw	r30, 0x01	; 1
    20e0:	e0 31       	cpi	r30, 0x10	; 16
    20e2:	f1 05       	cpc	r31, r1
    20e4:	08 f0       	brcs	.+2      	; 0x20e8 <MB_S_Timer_ISR+0xd6>
    20e6:	c9 c2       	rjmp	.+1426   	; 0x267a <__stack+0x47b>
    20e8:	ea 59       	subi	r30, 0x9A	; 154
    20ea:	ff 4f       	sbci	r31, 0xFF	; 255
    20ec:	0c 94 7d 35 	jmp	0x6afa	; 0x6afa <__tablejump2__>
    20f0:	fc 2f       	mov	r31, r28
    20f2:	ee 27       	eor	r30, r30
    20f4:	e0 57       	subi	r30, 0x70	; 112
    20f6:	fe 4e       	sbci	r31, 0xEE	; 238
    20f8:	80 81       	ld	r24, Z
    20fa:	88 23       	and	r24, r24
    20fc:	09 f4       	brne	.+2      	; 0x2100 <MB_S_Timer_ISR+0xee>
    20fe:	c1 c0       	rjmp	.+386    	; 0x2282 <__stack+0x83>
    2100:	fe 01       	movw	r30, r28
    2102:	e2 54       	subi	r30, 0x42	; 66
    2104:	f7 4f       	sbci	r31, 0xF7	; 247
    2106:	80 81       	ld	r24, Z
    2108:	88 30       	cpi	r24, 0x08	; 8
    210a:	59 f0       	breq	.+22     	; 0x2122 <MB_S_Timer_ISR+0x110>
    210c:	fc 2f       	mov	r31, r28
    210e:	ee 27       	eor	r30, r30
    2110:	e0 57       	subi	r30, 0x70	; 112
    2112:	fe 4e       	sbci	r31, 0xEE	; 238
    2114:	83 e0       	ldi	r24, 0x03	; 3
    2116:	82 83       	std	Z+2, r24	; 0x02
    2118:	0f 2e       	mov	r0, r31
    211a:	f3 e0       	ldi	r31, 0x03	; 3
    211c:	ff 2e       	mov	r15, r31
    211e:	f0 2d       	mov	r31, r0
    2120:	b6 c2       	rjmp	.+1388   	; 0x268e <__stack+0x48f>
    2122:	64 e0       	ldi	r22, 0x04	; 4
    2124:	8d 2d       	mov	r24, r13
    2126:	e3 dd       	rcall	.-1082   	; 0x1cee <MB_FrameReg>
    2128:	ac 01       	movw	r20, r24
    212a:	8e 0d       	add	r24, r14
    212c:	9f 1d       	adc	r25, r15
    212e:	f1 e0       	ldi	r31, 0x01	; 1
    2130:	cf 12       	cpse	r12, r31
    2132:	0f c0       	rjmp	.+30     	; 0x2152 <MB_S_Timer_ISR+0x140>
    2134:	fe 01       	movw	r30, r28
    2136:	e2 95       	swap	r30
    2138:	f2 95       	swap	r31
    213a:	f0 7f       	andi	r31, 0xF0	; 240
    213c:	fe 27       	eor	r31, r30
    213e:	e0 7f       	andi	r30, 0xF0	; 240
    2140:	fe 27       	eor	r31, r30
    2142:	e3 5e       	subi	r30, 0xE3	; 227
    2144:	fa 4f       	sbci	r31, 0xFA	; 250
    2146:	25 91       	lpm	r18, Z+
    2148:	34 91       	lpm	r19, Z
    214a:	28 17       	cp	r18, r24
    214c:	39 07       	cpc	r19, r25
    214e:	78 f0       	brcs	.+30     	; 0x216e <MB_S_Timer_ISR+0x15c>
    2150:	18 c0       	rjmp	.+48     	; 0x2182 <MB_S_Timer_ISR+0x170>
    2152:	fe 01       	movw	r30, r28
    2154:	e2 95       	swap	r30
    2156:	f2 95       	swap	r31
    2158:	f0 7f       	andi	r31, 0xF0	; 240
    215a:	fe 27       	eor	r31, r30
    215c:	e0 7f       	andi	r30, 0xF0	; 240
    215e:	fe 27       	eor	r31, r30
    2160:	ef 5d       	subi	r30, 0xDF	; 223
    2162:	fa 4f       	sbci	r31, 0xFA	; 250
    2164:	25 91       	lpm	r18, Z+
    2166:	34 91       	lpm	r19, Z
    2168:	28 17       	cp	r18, r24
    216a:	39 07       	cpc	r19, r25
    216c:	b0 f4       	brcc	.+44     	; 0x219a <MB_S_Timer_ISR+0x188>
    216e:	fc 2f       	mov	r31, r28
    2170:	ee 27       	eor	r30, r30
    2172:	e0 57       	subi	r30, 0x70	; 112
    2174:	fe 4e       	sbci	r31, 0xEE	; 238
    2176:	82 e0       	ldi	r24, 0x02	; 2
    2178:	82 83       	std	Z+2, r24	; 0x02
    217a:	68 94       	set
    217c:	ff 24       	eor	r15, r15
    217e:	f1 f8       	bld	r15, 1
    2180:	86 c2       	rjmp	.+1292   	; 0x268e <__stack+0x48f>
    2182:	fe 01       	movw	r30, r28
    2184:	e2 95       	swap	r30
    2186:	f2 95       	swap	r31
    2188:	f0 7f       	andi	r31, 0xF0	; 240
    218a:	fe 27       	eor	r31, r30
    218c:	e0 7f       	andi	r30, 0xF0	; 240
    218e:	fe 27       	eor	r31, r30
    2190:	e5 5e       	subi	r30, 0xE5	; 229
    2192:	fa 4f       	sbci	r31, 0xFA	; 250
    2194:	a5 91       	lpm	r26, Z+
    2196:	b4 91       	lpm	r27, Z
    2198:	0b c0       	rjmp	.+22     	; 0x21b0 <MB_S_Timer_ISR+0x19e>
    219a:	fe 01       	movw	r30, r28
    219c:	e2 95       	swap	r30
    219e:	f2 95       	swap	r31
    21a0:	f0 7f       	andi	r31, 0xF0	; 240
    21a2:	fe 27       	eor	r31, r30
    21a4:	e0 7f       	andi	r30, 0xF0	; 240
    21a6:	fe 27       	eor	r31, r30
    21a8:	e1 5e       	subi	r30, 0xE1	; 225
    21aa:	fa 4f       	sbci	r31, 0xFA	; 250
    21ac:	a5 91       	lpm	r26, Z+
    21ae:	b4 91       	lpm	r27, Z
    21b0:	21 e0       	ldi	r18, 0x01	; 1
    21b2:	ca 01       	movw	r24, r20
    21b4:	87 70       	andi	r24, 0x07	; 7
    21b6:	99 27       	eor	r25, r25
    21b8:	89 2b       	or	r24, r25
    21ba:	09 f4       	brne	.+2      	; 0x21be <MB_S_Timer_ISR+0x1ac>
    21bc:	20 e0       	ldi	r18, 0x00	; 0
    21be:	ca 01       	movw	r24, r20
    21c0:	96 95       	lsr	r25
    21c2:	87 95       	ror	r24
    21c4:	96 95       	lsr	r25
    21c6:	87 95       	ror	r24
    21c8:	96 95       	lsr	r25
    21ca:	87 95       	ror	r24
    21cc:	82 0f       	add	r24, r18
    21ce:	fc 2f       	mov	r31, r28
    21d0:	ee 27       	eor	r30, r30
    21d2:	e0 57       	subi	r30, 0x70	; 112
    21d4:	fe 4e       	sbci	r31, 0xEE	; 238
    21d6:	82 83       	std	Z+2, r24	; 0x02
    21d8:	fe 01       	movw	r30, r28
    21da:	e2 54       	subi	r30, 0x42	; 66
    21dc:	f7 4f       	sbci	r31, 0xF7	; 247
    21de:	8b 5f       	subi	r24, 0xFB	; 251
    21e0:	80 83       	st	Z, r24
    21e2:	41 15       	cp	r20, r1
    21e4:	51 05       	cpc	r21, r1
    21e6:	09 f4       	brne	.+2      	; 0x21ea <MB_S_Timer_ISR+0x1d8>
    21e8:	4f c0       	rjmp	.+158    	; 0x2288 <__stack+0x89>
    21ea:	c1 2c       	mov	r12, r1
    21ec:	20 e0       	ldi	r18, 0x00	; 0
    21ee:	30 e0       	ldi	r19, 0x00	; 0
    21f0:	81 e0       	ldi	r24, 0x01	; 1
    21f2:	90 e0       	ldi	r25, 0x00	; 0
    21f4:	bc 2e       	mov	r11, r28
    21f6:	aa 24       	eor	r10, r10
    21f8:	2e 0d       	add	r18, r14
    21fa:	3f 1d       	adc	r19, r15
    21fc:	6c 2d       	mov	r22, r12
    21fe:	66 95       	lsr	r22
    2200:	66 95       	lsr	r22
    2202:	66 95       	lsr	r22
    2204:	0f 2e       	mov	r0, r31
    2206:	f3 e0       	ldi	r31, 0x03	; 3
    2208:	9f 2e       	mov	r9, r31
    220a:	f0 2d       	mov	r31, r0
    220c:	96 0e       	add	r9, r22
    220e:	ec 2d       	mov	r30, r12
    2210:	e7 70       	andi	r30, 0x07	; 7
    2212:	3c 01       	movw	r6, r24
    2214:	02 c0       	rjmp	.+4      	; 0x221a <__stack+0x1b>
    2216:	66 0c       	add	r6, r6
    2218:	77 1c       	adc	r7, r7
    221a:	ea 95       	dec	r30
    221c:	e2 f7       	brpl	.-8      	; 0x2216 <__stack+0x17>
    221e:	b9 01       	movw	r22, r18
    2220:	76 95       	lsr	r23
    2222:	67 95       	ror	r22
    2224:	76 95       	lsr	r23
    2226:	67 95       	ror	r22
    2228:	76 95       	lsr	r23
    222a:	67 95       	ror	r22
    222c:	6a 0f       	add	r22, r26
    222e:	7b 1f       	adc	r23, r27
    2230:	fb 01       	movw	r30, r22
    2232:	60 81       	ld	r22, Z
    2234:	70 e0       	ldi	r23, 0x00	; 0
    2236:	27 70       	andi	r18, 0x07	; 7
    2238:	33 27       	eor	r19, r19
    223a:	fb 01       	movw	r30, r22
    223c:	02 c0       	rjmp	.+4      	; 0x2242 <__stack+0x43>
    223e:	f5 95       	asr	r31
    2240:	e7 95       	ror	r30
    2242:	2a 95       	dec	r18
    2244:	e2 f7       	brpl	.-8      	; 0x223e <__stack+0x3f>
    2246:	e0 ff       	sbrs	r30, 0
    2248:	0a c0       	rjmp	.+20     	; 0x225e <__stack+0x5f>
    224a:	95 01       	movw	r18, r10
    224c:	29 0d       	add	r18, r9
    224e:	31 1d       	adc	r19, r1
    2250:	20 57       	subi	r18, 0x70	; 112
    2252:	3e 4e       	sbci	r19, 0xEE	; 238
    2254:	f9 01       	movw	r30, r18
    2256:	60 81       	ld	r22, Z
    2258:	66 29       	or	r22, r6
    225a:	60 83       	st	Z, r22
    225c:	0a c0       	rjmp	.+20     	; 0x2272 <__stack+0x73>
    225e:	95 01       	movw	r18, r10
    2260:	29 0d       	add	r18, r9
    2262:	31 1d       	adc	r19, r1
    2264:	20 57       	subi	r18, 0x70	; 112
    2266:	3e 4e       	sbci	r19, 0xEE	; 238
    2268:	60 94       	com	r6
    226a:	f9 01       	movw	r30, r18
    226c:	60 81       	ld	r22, Z
    226e:	66 21       	and	r22, r6
    2270:	60 83       	st	Z, r22
    2272:	c3 94       	inc	r12
    2274:	2c 2d       	mov	r18, r12
    2276:	30 e0       	ldi	r19, 0x00	; 0
    2278:	24 17       	cp	r18, r20
    227a:	35 07       	cpc	r19, r21
    227c:	08 f4       	brcc	.+2      	; 0x2280 <__stack+0x81>
    227e:	bc cf       	rjmp	.-136    	; 0x21f8 <MB_S_Timer_ISR+0x1e6>
    2280:	05 c0       	rjmp	.+10     	; 0x228c <__stack+0x8d>
    2282:	ff 24       	eor	r15, r15
    2284:	fa 94       	dec	r15
    2286:	03 c2       	rjmp	.+1030   	; 0x268e <__stack+0x48f>
    2288:	f1 2c       	mov	r15, r1
    228a:	01 c2       	rjmp	.+1026   	; 0x268e <__stack+0x48f>
    228c:	f1 2c       	mov	r15, r1
    228e:	ff c1       	rjmp	.+1022   	; 0x268e <__stack+0x48f>
    2290:	fc 2f       	mov	r31, r28
    2292:	ee 27       	eor	r30, r30
    2294:	e0 57       	subi	r30, 0x70	; 112
    2296:	fe 4e       	sbci	r31, 0xEE	; 238
    2298:	80 81       	ld	r24, Z
    229a:	88 23       	and	r24, r24
    229c:	09 f4       	brne	.+2      	; 0x22a0 <__stack+0xa1>
    229e:	85 c0       	rjmp	.+266    	; 0x23aa <__stack+0x1ab>
    22a0:	fe 01       	movw	r30, r28
    22a2:	e2 54       	subi	r30, 0x42	; 66
    22a4:	f7 4f       	sbci	r31, 0xF7	; 247
    22a6:	80 81       	ld	r24, Z
    22a8:	88 30       	cpi	r24, 0x08	; 8
    22aa:	59 f0       	breq	.+22     	; 0x22c2 <__stack+0xc3>
    22ac:	fc 2f       	mov	r31, r28
    22ae:	ee 27       	eor	r30, r30
    22b0:	e0 57       	subi	r30, 0x70	; 112
    22b2:	fe 4e       	sbci	r31, 0xEE	; 238
    22b4:	83 e0       	ldi	r24, 0x03	; 3
    22b6:	82 83       	std	Z+2, r24	; 0x02
    22b8:	0f 2e       	mov	r0, r31
    22ba:	f3 e0       	ldi	r31, 0x03	; 3
    22bc:	ff 2e       	mov	r15, r31
    22be:	f0 2d       	mov	r31, r0
    22c0:	e6 c1       	rjmp	.+972    	; 0x268e <__stack+0x48f>
    22c2:	fc 2f       	mov	r31, r28
    22c4:	ee 27       	eor	r30, r30
    22c6:	e0 57       	subi	r30, 0x70	; 112
    22c8:	fe 4e       	sbci	r31, 0xEE	; 238
    22ca:	45 81       	ldd	r20, Z+5	; 0x05
    22cc:	c7 01       	movw	r24, r14
    22ce:	84 0f       	add	r24, r20
    22d0:	91 1d       	adc	r25, r1
    22d2:	f3 e0       	ldi	r31, 0x03	; 3
    22d4:	cf 12       	cpse	r12, r31
    22d6:	0f c0       	rjmp	.+30     	; 0x22f6 <__stack+0xf7>
    22d8:	fe 01       	movw	r30, r28
    22da:	e2 95       	swap	r30
    22dc:	f2 95       	swap	r31
    22de:	f0 7f       	andi	r31, 0xF0	; 240
    22e0:	fe 27       	eor	r31, r30
    22e2:	e0 7f       	andi	r30, 0xF0	; 240
    22e4:	fe 27       	eor	r31, r30
    22e6:	eb 5d       	subi	r30, 0xDB	; 219
    22e8:	fa 4f       	sbci	r31, 0xFA	; 250
    22ea:	25 91       	lpm	r18, Z+
    22ec:	34 91       	lpm	r19, Z
    22ee:	28 17       	cp	r18, r24
    22f0:	39 07       	cpc	r19, r25
    22f2:	78 f0       	brcs	.+30     	; 0x2312 <__stack+0x113>
    22f4:	18 c0       	rjmp	.+48     	; 0x2326 <__stack+0x127>
    22f6:	fe 01       	movw	r30, r28
    22f8:	e2 95       	swap	r30
    22fa:	f2 95       	swap	r31
    22fc:	f0 7f       	andi	r31, 0xF0	; 240
    22fe:	fe 27       	eor	r31, r30
    2300:	e0 7f       	andi	r30, 0xF0	; 240
    2302:	fe 27       	eor	r31, r30
    2304:	e7 5d       	subi	r30, 0xD7	; 215
    2306:	fa 4f       	sbci	r31, 0xFA	; 250
    2308:	25 91       	lpm	r18, Z+
    230a:	34 91       	lpm	r19, Z
    230c:	28 17       	cp	r18, r24
    230e:	39 07       	cpc	r19, r25
    2310:	b0 f4       	brcc	.+44     	; 0x233e <__stack+0x13f>
    2312:	fc 2f       	mov	r31, r28
    2314:	ee 27       	eor	r30, r30
    2316:	e0 57       	subi	r30, 0x70	; 112
    2318:	fe 4e       	sbci	r31, 0xEE	; 238
    231a:	82 e0       	ldi	r24, 0x02	; 2
    231c:	82 83       	std	Z+2, r24	; 0x02
    231e:	68 94       	set
    2320:	ff 24       	eor	r15, r15
    2322:	f1 f8       	bld	r15, 1
    2324:	b4 c1       	rjmp	.+872    	; 0x268e <__stack+0x48f>
    2326:	fe 01       	movw	r30, r28
    2328:	e2 95       	swap	r30
    232a:	f2 95       	swap	r31
    232c:	f0 7f       	andi	r31, 0xF0	; 240
    232e:	fe 27       	eor	r31, r30
    2330:	e0 7f       	andi	r30, 0xF0	; 240
    2332:	fe 27       	eor	r31, r30
    2334:	ed 5d       	subi	r30, 0xDD	; 221
    2336:	fa 4f       	sbci	r31, 0xFA	; 250
    2338:	85 91       	lpm	r24, Z+
    233a:	94 91       	lpm	r25, Z
    233c:	0b c0       	rjmp	.+22     	; 0x2354 <__stack+0x155>
    233e:	fe 01       	movw	r30, r28
    2340:	e2 95       	swap	r30
    2342:	f2 95       	swap	r31
    2344:	f0 7f       	andi	r31, 0xF0	; 240
    2346:	fe 27       	eor	r31, r30
    2348:	e0 7f       	andi	r30, 0xF0	; 240
    234a:	fe 27       	eor	r31, r30
    234c:	e9 5d       	subi	r30, 0xD9	; 217
    234e:	fa 4f       	sbci	r31, 0xFA	; 250
    2350:	85 91       	lpm	r24, Z+
    2352:	94 91       	lpm	r25, Z
    2354:	ee 0c       	add	r14, r14
    2356:	ff 1c       	adc	r15, r15
    2358:	8e 0d       	add	r24, r14
    235a:	9f 1d       	adc	r25, r15
    235c:	44 0f       	add	r20, r20
    235e:	bc 2f       	mov	r27, r28
    2360:	aa 27       	eor	r26, r26
    2362:	a0 57       	subi	r26, 0x70	; 112
    2364:	be 4e       	sbci	r27, 0xEE	; 238
    2366:	12 96       	adiw	r26, 0x02	; 2
    2368:	4c 93       	st	X, r20
    236a:	12 97       	sbiw	r26, 0x02	; 2
    236c:	fe 01       	movw	r30, r28
    236e:	e2 54       	subi	r30, 0x42	; 66
    2370:	f7 4f       	sbci	r31, 0xF7	; 247
    2372:	4b 5f       	subi	r20, 0xFB	; 251
    2374:	40 83       	st	Z, r20
    2376:	15 96       	adiw	r26, 0x05	; 5
    2378:	6c 91       	ld	r22, X
    237a:	15 97       	sbiw	r26, 0x05	; 5
    237c:	66 23       	and	r22, r22
    237e:	c1 f0       	breq	.+48     	; 0x23b0 <__stack+0x1b1>
    2380:	fc 01       	movw	r30, r24
    2382:	40 e0       	ldi	r20, 0x00	; 0
    2384:	9d 01       	movw	r18, r26
    2386:	54 2f       	mov	r21, r20
    2388:	55 0f       	add	r21, r21
    238a:	79 01       	movw	r14, r18
    238c:	e5 0e       	add	r14, r21
    238e:	f1 1c       	adc	r15, r1
    2390:	51 81       	ldd	r21, Z+1	; 0x01
    2392:	d7 01       	movw	r26, r14
    2394:	13 96       	adiw	r26, 0x03	; 3
    2396:	5c 93       	st	X, r21
    2398:	80 81       	ld	r24, Z
    239a:	32 96       	adiw	r30, 0x02	; 2
    239c:	d7 01       	movw	r26, r14
    239e:	14 96       	adiw	r26, 0x04	; 4
    23a0:	8c 93       	st	X, r24
    23a2:	4f 5f       	subi	r20, 0xFF	; 255
    23a4:	46 13       	cpse	r20, r22
    23a6:	ef cf       	rjmp	.-34     	; 0x2386 <__stack+0x187>
    23a8:	05 c0       	rjmp	.+10     	; 0x23b4 <__stack+0x1b5>
    23aa:	ff 24       	eor	r15, r15
    23ac:	fa 94       	dec	r15
    23ae:	6f c1       	rjmp	.+734    	; 0x268e <__stack+0x48f>
    23b0:	f1 2c       	mov	r15, r1
    23b2:	6d c1       	rjmp	.+730    	; 0x268e <__stack+0x48f>
    23b4:	f1 2c       	mov	r15, r1
    23b6:	6b c1       	rjmp	.+726    	; 0x268e <__stack+0x48f>
    23b8:	fe 01       	movw	r30, r28
    23ba:	e2 54       	subi	r30, 0x42	; 66
    23bc:	f7 4f       	sbci	r31, 0xF7	; 247
    23be:	80 81       	ld	r24, Z
    23c0:	88 30       	cpi	r24, 0x08	; 8
    23c2:	59 f0       	breq	.+22     	; 0x23da <__stack+0x1db>
    23c4:	fc 2f       	mov	r31, r28
    23c6:	ee 27       	eor	r30, r30
    23c8:	e0 57       	subi	r30, 0x70	; 112
    23ca:	fe 4e       	sbci	r31, 0xEE	; 238
    23cc:	83 e0       	ldi	r24, 0x03	; 3
    23ce:	82 83       	std	Z+2, r24	; 0x02
    23d0:	0f 2e       	mov	r0, r31
    23d2:	f3 e0       	ldi	r31, 0x03	; 3
    23d4:	ff 2e       	mov	r15, r31
    23d6:	f0 2d       	mov	r31, r0
    23d8:	5a c1       	rjmp	.+692    	; 0x268e <__stack+0x48f>
    23da:	fe 01       	movw	r30, r28
    23dc:	e2 95       	swap	r30
    23de:	f2 95       	swap	r31
    23e0:	f0 7f       	andi	r31, 0xF0	; 240
    23e2:	fe 27       	eor	r31, r30
    23e4:	e0 7f       	andi	r30, 0xF0	; 240
    23e6:	fe 27       	eor	r31, r30
    23e8:	eb 5d       	subi	r30, 0xDB	; 219
    23ea:	fa 4f       	sbci	r31, 0xFA	; 250
    23ec:	85 91       	lpm	r24, Z+
    23ee:	94 91       	lpm	r25, Z
    23f0:	97 01       	movw	r18, r14
    23f2:	2f 5f       	subi	r18, 0xFF	; 255
    23f4:	3f 4f       	sbci	r19, 0xFF	; 255
    23f6:	82 17       	cp	r24, r18
    23f8:	93 07       	cpc	r25, r19
    23fa:	50 f4       	brcc	.+20     	; 0x2410 <__stack+0x211>
    23fc:	fc 2f       	mov	r31, r28
    23fe:	ee 27       	eor	r30, r30
    2400:	e0 57       	subi	r30, 0x70	; 112
    2402:	fe 4e       	sbci	r31, 0xEE	; 238
    2404:	82 e0       	ldi	r24, 0x02	; 2
    2406:	82 83       	std	Z+2, r24	; 0x02
    2408:	68 94       	set
    240a:	ff 24       	eor	r15, r15
    240c:	f1 f8       	bld	r15, 1
    240e:	3f c1       	rjmp	.+638    	; 0x268e <__stack+0x48f>
    2410:	88 e0       	ldi	r24, 0x08	; 8
    2412:	fe 01       	movw	r30, r28
    2414:	e2 54       	subi	r30, 0x42	; 66
    2416:	f7 4f       	sbci	r31, 0xF7	; 247
    2418:	80 83       	st	Z, r24
    241a:	fe 01       	movw	r30, r28
    241c:	e2 95       	swap	r30
    241e:	f2 95       	swap	r31
    2420:	f0 7f       	andi	r31, 0xF0	; 240
    2422:	fe 27       	eor	r31, r30
    2424:	e0 7f       	andi	r30, 0xF0	; 240
    2426:	fe 27       	eor	r31, r30
    2428:	ed 5d       	subi	r30, 0xDD	; 221
    242a:	fa 4f       	sbci	r31, 0xFA	; 250
    242c:	85 91       	lpm	r24, Z+
    242e:	94 91       	lpm	r25, Z
    2430:	ee 0c       	add	r14, r14
    2432:	ff 1c       	adc	r15, r15
    2434:	e8 0e       	add	r14, r24
    2436:	f9 1e       	adc	r15, r25
    2438:	64 e0       	ldi	r22, 0x04	; 4
    243a:	8d 2d       	mov	r24, r13
    243c:	58 dc       	rcall	.-1872   	; 0x1cee <MB_FrameReg>
    243e:	f7 01       	movw	r30, r14
    2440:	91 83       	std	Z+1, r25	; 0x01
    2442:	80 83       	st	Z, r24
    2444:	f1 2c       	mov	r15, r1
    2446:	23 c1       	rjmp	.+582    	; 0x268e <__stack+0x48f>
    2448:	64 e0       	ldi	r22, 0x04	; 4
    244a:	8d 2d       	mov	r24, r13
    244c:	50 dc       	rcall	.-1888   	; 0x1cee <MB_FrameReg>
    244e:	fc 2f       	mov	r31, r28
    2450:	ee 27       	eor	r30, r30
    2452:	e0 57       	subi	r30, 0x70	; 112
    2454:	fe 4e       	sbci	r31, 0xEE	; 238
    2456:	a6 81       	ldd	r26, Z+6	; 0x06
    2458:	fe 01       	movw	r30, r28
    245a:	e2 54       	subi	r30, 0x42	; 66
    245c:	f7 4f       	sbci	r31, 0xF7	; 247
    245e:	40 81       	ld	r20, Z
    2460:	50 e0       	ldi	r21, 0x00	; 0
    2462:	2a 2f       	mov	r18, r26
    2464:	30 e0       	ldi	r19, 0x00	; 0
    2466:	27 5f       	subi	r18, 0xF7	; 247
    2468:	3f 4f       	sbci	r19, 0xFF	; 255
    246a:	42 17       	cp	r20, r18
    246c:	53 07       	cpc	r21, r19
    246e:	b9 f4       	brne	.+46     	; 0x249e <__stack+0x29f>
    2470:	21 e0       	ldi	r18, 0x01	; 1
    2472:	30 e0       	ldi	r19, 0x00	; 0
    2474:	bc 01       	movw	r22, r24
    2476:	67 70       	andi	r22, 0x07	; 7
    2478:	77 27       	eor	r23, r23
    247a:	67 2b       	or	r22, r23
    247c:	11 f4       	brne	.+4      	; 0x2482 <__stack+0x283>
    247e:	20 e0       	ldi	r18, 0x00	; 0
    2480:	30 e0       	ldi	r19, 0x00	; 0
    2482:	bc 01       	movw	r22, r24
    2484:	76 95       	lsr	r23
    2486:	67 95       	ror	r22
    2488:	76 95       	lsr	r23
    248a:	67 95       	ror	r22
    248c:	76 95       	lsr	r23
    248e:	67 95       	ror	r22
    2490:	26 0f       	add	r18, r22
    2492:	37 1f       	adc	r19, r23
    2494:	4a 2f       	mov	r20, r26
    2496:	50 e0       	ldi	r21, 0x00	; 0
    2498:	24 17       	cp	r18, r20
    249a:	35 07       	cpc	r19, r21
    249c:	59 f0       	breq	.+22     	; 0x24b4 <__stack+0x2b5>
    249e:	fc 2f       	mov	r31, r28
    24a0:	ee 27       	eor	r30, r30
    24a2:	e0 57       	subi	r30, 0x70	; 112
    24a4:	fe 4e       	sbci	r31, 0xEE	; 238
    24a6:	83 e0       	ldi	r24, 0x03	; 3
    24a8:	82 83       	std	Z+2, r24	; 0x02
    24aa:	0f 2e       	mov	r0, r31
    24ac:	f3 e0       	ldi	r31, 0x03	; 3
    24ae:	ff 2e       	mov	r15, r31
    24b0:	f0 2d       	mov	r31, r0
    24b2:	ed c0       	rjmp	.+474    	; 0x268e <__stack+0x48f>
    24b4:	fe 01       	movw	r30, r28
    24b6:	e2 95       	swap	r30
    24b8:	f2 95       	swap	r31
    24ba:	f0 7f       	andi	r31, 0xF0	; 240
    24bc:	fe 27       	eor	r31, r30
    24be:	e0 7f       	andi	r30, 0xF0	; 240
    24c0:	fe 27       	eor	r31, r30
    24c2:	e3 5e       	subi	r30, 0xE3	; 227
    24c4:	fa 4f       	sbci	r31, 0xFA	; 250
    24c6:	25 91       	lpm	r18, Z+
    24c8:	34 91       	lpm	r19, Z
    24ca:	ac 01       	movw	r20, r24
    24cc:	4e 0d       	add	r20, r14
    24ce:	5f 1d       	adc	r21, r15
    24d0:	24 17       	cp	r18, r20
    24d2:	35 07       	cpc	r19, r21
    24d4:	50 f4       	brcc	.+20     	; 0x24ea <__stack+0x2eb>
    24d6:	fc 2f       	mov	r31, r28
    24d8:	ee 27       	eor	r30, r30
    24da:	e0 57       	subi	r30, 0x70	; 112
    24dc:	fe 4e       	sbci	r31, 0xEE	; 238
    24de:	82 e0       	ldi	r24, 0x02	; 2
    24e0:	82 83       	std	Z+2, r24	; 0x02
    24e2:	68 94       	set
    24e4:	ff 24       	eor	r15, r15
    24e6:	f1 f8       	bld	r15, 1
    24e8:	d2 c0       	rjmp	.+420    	; 0x268e <__stack+0x48f>
    24ea:	fe 01       	movw	r30, r28
    24ec:	e2 95       	swap	r30
    24ee:	f2 95       	swap	r31
    24f0:	f0 7f       	andi	r31, 0xF0	; 240
    24f2:	fe 27       	eor	r31, r30
    24f4:	e0 7f       	andi	r30, 0xF0	; 240
    24f6:	fe 27       	eor	r31, r30
    24f8:	e5 5e       	subi	r30, 0xE5	; 229
    24fa:	fa 4f       	sbci	r31, 0xFA	; 250
    24fc:	25 91       	lpm	r18, Z+
    24fe:	34 91       	lpm	r19, Z
    2500:	48 e0       	ldi	r20, 0x08	; 8
    2502:	fe 01       	movw	r30, r28
    2504:	e2 54       	subi	r30, 0x42	; 66
    2506:	f7 4f       	sbci	r31, 0xF7	; 247
    2508:	40 83       	st	Z, r20
    250a:	c1 2c       	mov	r12, r1
    250c:	e1 e0       	ldi	r30, 0x01	; 1
    250e:	f0 e0       	ldi	r31, 0x00	; 0
    2510:	7c 2f       	mov	r23, r28
    2512:	66 27       	eor	r22, r22
    2514:	ab 01       	movw	r20, r22
    2516:	40 57       	subi	r20, 0x70	; 112
    2518:	5e 4e       	sbci	r21, 0xEE	; 238
    251a:	3a 01       	movw	r6, r20
    251c:	36 c0       	rjmp	.+108    	; 0x258a <__stack+0x38b>
    251e:	da 01       	movw	r26, r20
    2520:	ae 0d       	add	r26, r14
    2522:	bf 1d       	adc	r27, r15
    2524:	ad 01       	movw	r20, r26
    2526:	56 95       	lsr	r21
    2528:	47 95       	ror	r20
    252a:	56 95       	lsr	r21
    252c:	47 95       	ror	r20
    252e:	56 95       	lsr	r21
    2530:	47 95       	ror	r20
    2532:	a7 70       	andi	r26, 0x07	; 7
    2534:	bb 27       	eor	r27, r27
    2536:	5f 01       	movw	r10, r30
    2538:	02 c0       	rjmp	.+4      	; 0x253e <__stack+0x33f>
    253a:	aa 0c       	add	r10, r10
    253c:	bb 1c       	adc	r11, r11
    253e:	aa 95       	dec	r26
    2540:	e2 f7       	brpl	.-8      	; 0x253a <__stack+0x33b>
    2542:	ac 2d       	mov	r26, r12
    2544:	a6 95       	lsr	r26
    2546:	a6 95       	lsr	r26
    2548:	a6 95       	lsr	r26
    254a:	b3 01       	movw	r22, r6
    254c:	6a 0f       	add	r22, r26
    254e:	71 1d       	adc	r23, r1
    2550:	db 01       	movw	r26, r22
    2552:	17 96       	adiw	r26, 0x07	; 7
    2554:	ac 91       	ld	r26, X
    2556:	b0 e0       	ldi	r27, 0x00	; 0
    2558:	7c 2d       	mov	r23, r12
    255a:	77 70       	andi	r23, 0x07	; 7
    255c:	07 2e       	mov	r0, r23
    255e:	02 c0       	rjmp	.+4      	; 0x2564 <__stack+0x365>
    2560:	b5 95       	asr	r27
    2562:	a7 95       	ror	r26
    2564:	0a 94       	dec	r0
    2566:	e2 f7       	brpl	.-8      	; 0x2560 <__stack+0x361>
    2568:	a0 ff       	sbrs	r26, 0
    256a:	07 c0       	rjmp	.+14     	; 0x257a <__stack+0x37b>
    256c:	d9 01       	movw	r26, r18
    256e:	a4 0f       	add	r26, r20
    2570:	b5 1f       	adc	r27, r21
    2572:	4c 91       	ld	r20, X
    2574:	a4 2a       	or	r10, r20
    2576:	ac 92       	st	X, r10
    2578:	07 c0       	rjmp	.+14     	; 0x2588 <__stack+0x389>
    257a:	d9 01       	movw	r26, r18
    257c:	a4 0f       	add	r26, r20
    257e:	b5 1f       	adc	r27, r21
    2580:	a0 94       	com	r10
    2582:	4c 91       	ld	r20, X
    2584:	4a 21       	and	r20, r10
    2586:	4c 93       	st	X, r20
    2588:	c3 94       	inc	r12
    258a:	4c 2d       	mov	r20, r12
    258c:	50 e0       	ldi	r21, 0x00	; 0
    258e:	48 17       	cp	r20, r24
    2590:	59 07       	cpc	r21, r25
    2592:	28 f2       	brcs	.-118    	; 0x251e <__stack+0x31f>
    2594:	f1 2c       	mov	r15, r1
    2596:	7b c0       	rjmp	.+246    	; 0x268e <__stack+0x48f>
    2598:	fc 2f       	mov	r31, r28
    259a:	ee 27       	eor	r30, r30
    259c:	e0 57       	subi	r30, 0x70	; 112
    259e:	fe 4e       	sbci	r31, 0xEE	; 238
    25a0:	86 81       	ldd	r24, Z+6	; 0x06
    25a2:	90 e0       	ldi	r25, 0x00	; 0
    25a4:	fe 01       	movw	r30, r28
    25a6:	e2 54       	subi	r30, 0x42	; 66
    25a8:	f7 4f       	sbci	r31, 0xF7	; 247
    25aa:	40 81       	ld	r20, Z
    25ac:	50 e0       	ldi	r21, 0x00	; 0
    25ae:	9c 01       	movw	r18, r24
    25b0:	27 5f       	subi	r18, 0xF7	; 247
    25b2:	3f 4f       	sbci	r19, 0xFF	; 255
    25b4:	42 17       	cp	r20, r18
    25b6:	53 07       	cpc	r21, r19
    25b8:	61 f4       	brne	.+24     	; 0x25d2 <__stack+0x3d3>
    25ba:	fc 2f       	mov	r31, r28
    25bc:	ee 27       	eor	r30, r30
    25be:	e0 57       	subi	r30, 0x70	; 112
    25c0:	fe 4e       	sbci	r31, 0xEE	; 238
    25c2:	45 81       	ldd	r20, Z+5	; 0x05
    25c4:	24 2f       	mov	r18, r20
    25c6:	30 e0       	ldi	r19, 0x00	; 0
    25c8:	22 0f       	add	r18, r18
    25ca:	33 1f       	adc	r19, r19
    25cc:	82 17       	cp	r24, r18
    25ce:	93 07       	cpc	r25, r19
    25d0:	59 f0       	breq	.+22     	; 0x25e8 <__stack+0x3e9>
    25d2:	fc 2f       	mov	r31, r28
    25d4:	ee 27       	eor	r30, r30
    25d6:	e0 57       	subi	r30, 0x70	; 112
    25d8:	fe 4e       	sbci	r31, 0xEE	; 238
    25da:	83 e0       	ldi	r24, 0x03	; 3
    25dc:	82 83       	std	Z+2, r24	; 0x02
    25de:	0f 2e       	mov	r0, r31
    25e0:	f3 e0       	ldi	r31, 0x03	; 3
    25e2:	ff 2e       	mov	r15, r31
    25e4:	f0 2d       	mov	r31, r0
    25e6:	53 c0       	rjmp	.+166    	; 0x268e <__stack+0x48f>
    25e8:	fe 01       	movw	r30, r28
    25ea:	e2 95       	swap	r30
    25ec:	f2 95       	swap	r31
    25ee:	f0 7f       	andi	r31, 0xF0	; 240
    25f0:	fe 27       	eor	r31, r30
    25f2:	e0 7f       	andi	r30, 0xF0	; 240
    25f4:	fe 27       	eor	r31, r30
    25f6:	eb 5d       	subi	r30, 0xDB	; 219
    25f8:	fa 4f       	sbci	r31, 0xFA	; 250
    25fa:	85 91       	lpm	r24, Z+
    25fc:	94 91       	lpm	r25, Z
    25fe:	97 01       	movw	r18, r14
    2600:	24 0f       	add	r18, r20
    2602:	31 1d       	adc	r19, r1
    2604:	82 17       	cp	r24, r18
    2606:	93 07       	cpc	r25, r19
    2608:	50 f4       	brcc	.+20     	; 0x261e <__stack+0x41f>
    260a:	fc 2f       	mov	r31, r28
    260c:	ee 27       	eor	r30, r30
    260e:	e0 57       	subi	r30, 0x70	; 112
    2610:	fe 4e       	sbci	r31, 0xEE	; 238
    2612:	82 e0       	ldi	r24, 0x02	; 2
    2614:	82 83       	std	Z+2, r24	; 0x02
    2616:	68 94       	set
    2618:	ff 24       	eor	r15, r15
    261a:	f1 f8       	bld	r15, 1
    261c:	38 c0       	rjmp	.+112    	; 0x268e <__stack+0x48f>
    261e:	88 e0       	ldi	r24, 0x08	; 8
    2620:	fe 01       	movw	r30, r28
    2622:	e2 54       	subi	r30, 0x42	; 66
    2624:	f7 4f       	sbci	r31, 0xF7	; 247
    2626:	80 83       	st	Z, r24
    2628:	fe 01       	movw	r30, r28
    262a:	e2 95       	swap	r30
    262c:	f2 95       	swap	r31
    262e:	f0 7f       	andi	r31, 0xF0	; 240
    2630:	fe 27       	eor	r31, r30
    2632:	e0 7f       	andi	r30, 0xF0	; 240
    2634:	fe 27       	eor	r31, r30
    2636:	ed 5d       	subi	r30, 0xDD	; 221
    2638:	fa 4f       	sbci	r31, 0xFA	; 250
    263a:	85 90       	lpm	r8, Z+
    263c:	94 90       	lpm	r9, Z
    263e:	c1 2c       	mov	r12, r1
    2640:	9c 2f       	mov	r25, r28
    2642:	88 27       	eor	r24, r24
    2644:	dc 01       	movw	r26, r24
    2646:	ab 56       	subi	r26, 0x6B	; 107
    2648:	be 4e       	sbci	r27, 0xEE	; 238
    264a:	3d 01       	movw	r6, r26
    264c:	10 c0       	rjmp	.+32     	; 0x266e <__stack+0x46f>
    264e:	57 01       	movw	r10, r14
    2650:	ac 0c       	add	r10, r12
    2652:	b1 1c       	adc	r11, r1
    2654:	aa 0c       	add	r10, r10
    2656:	bb 1c       	adc	r11, r11
    2658:	a8 0c       	add	r10, r8
    265a:	b9 1c       	adc	r11, r9
    265c:	6c 2d       	mov	r22, r12
    265e:	66 0f       	add	r22, r22
    2660:	69 5f       	subi	r22, 0xF9	; 249
    2662:	8d 2d       	mov	r24, r13
    2664:	44 db       	rcall	.-2424   	; 0x1cee <MB_FrameReg>
    2666:	f5 01       	movw	r30, r10
    2668:	91 83       	std	Z+1, r25	; 0x01
    266a:	80 83       	st	Z, r24
    266c:	c3 94       	inc	r12
    266e:	d3 01       	movw	r26, r6
    2670:	8c 91       	ld	r24, X
    2672:	c8 16       	cp	r12, r24
    2674:	60 f3       	brcs	.-40     	; 0x264e <__stack+0x44f>
    2676:	f1 2c       	mov	r15, r1
    2678:	0a c0       	rjmp	.+20     	; 0x268e <__stack+0x48f>
    267a:	fc 2f       	mov	r31, r28
    267c:	ee 27       	eor	r30, r30
    267e:	e0 57       	subi	r30, 0x70	; 112
    2680:	fe 4e       	sbci	r31, 0xEE	; 238
    2682:	81 e0       	ldi	r24, 0x01	; 1
    2684:	82 83       	std	Z+2, r24	; 0x02
    2686:	80 81       	ld	r24, Z
    2688:	81 11       	cpse	r24, r1
    268a:	0b c0       	rjmp	.+22     	; 0x26a2 <__stack+0x4a3>
    268c:	1c c0       	rjmp	.+56     	; 0x26c6 <__stack+0x4c7>
    268e:	fc 2f       	mov	r31, r28
    2690:	ee 27       	eor	r30, r30
    2692:	e0 57       	subi	r30, 0x70	; 112
    2694:	fe 4e       	sbci	r31, 0xEE	; 238
    2696:	80 81       	ld	r24, Z
    2698:	88 23       	and	r24, r24
    269a:	99 f0       	breq	.+38     	; 0x26c2 <__stack+0x4c3>
    269c:	ff 20       	and	r15, r15
    269e:	79 f0       	breq	.+30     	; 0x26be <__stack+0x4bf>
    26a0:	02 c0       	rjmp	.+4      	; 0x26a6 <__stack+0x4a7>
    26a2:	ff 24       	eor	r15, r15
    26a4:	f3 94       	inc	r15
    26a6:	fc 2f       	mov	r31, r28
    26a8:	ee 27       	eor	r30, r30
    26aa:	e0 57       	subi	r30, 0x70	; 112
    26ac:	fe 4e       	sbci	r31, 0xEE	; 238
    26ae:	81 81       	ldd	r24, Z+1	; 0x01
    26b0:	80 68       	ori	r24, 0x80	; 128
    26b2:	81 83       	std	Z+1, r24	; 0x01
    26b4:	85 e0       	ldi	r24, 0x05	; 5
    26b6:	fe 01       	movw	r30, r28
    26b8:	e2 54       	subi	r30, 0x42	; 66
    26ba:	f7 4f       	sbci	r31, 0xF7	; 247
    26bc:	80 83       	st	Z, r24
    26be:	8d 2d       	mov	r24, r13
    26c0:	fb da       	rcall	.-2570   	; 0x1cb8 <SetCRC_MB>
    26c2:	ff 20       	and	r15, r15
    26c4:	71 f0       	breq	.+28     	; 0x26e2 <__stack+0x4e3>
    26c6:	fe 01       	movw	r30, r28
    26c8:	e2 95       	swap	r30
    26ca:	f2 95       	swap	r31
    26cc:	f0 7f       	andi	r31, 0xF0	; 240
    26ce:	fe 27       	eor	r31, r30
    26d0:	e0 7f       	andi	r30, 0xF0	; 240
    26d2:	fe 27       	eor	r31, r30
    26d4:	ef 50       	subi	r30, 0x0F	; 15
    26d6:	ff 4e       	sbci	r31, 0xEF	; 239
    26d8:	84 81       	ldd	r24, Z+4	; 0x04
    26da:	95 81       	ldd	r25, Z+5	; 0x05
    26dc:	01 96       	adiw	r24, 0x01	; 1
    26de:	95 83       	std	Z+5, r25	; 0x05
    26e0:	84 83       	std	Z+4, r24	; 0x04
    26e2:	fc 2f       	mov	r31, r28
    26e4:	ee 27       	eor	r30, r30
    26e6:	e0 57       	subi	r30, 0x70	; 112
    26e8:	fe 4e       	sbci	r31, 0xEE	; 238
    26ea:	80 81       	ld	r24, Z
    26ec:	88 23       	and	r24, r24
    26ee:	19 f0       	breq	.+6      	; 0x26f6 <__stack+0x4f7>
    26f0:	8d 2d       	mov	r24, r13
    26f2:	ac d9       	rcall	.-3240   	; 0x1a4c <MB_Transm>
    26f4:	17 c0       	rjmp	.+46     	; 0x2724 <__stack+0x525>
    26f6:	fe 01       	movw	r30, r28
    26f8:	e2 95       	swap	r30
    26fa:	f2 95       	swap	r31
    26fc:	f0 7f       	andi	r31, 0xF0	; 240
    26fe:	fe 27       	eor	r31, r30
    2700:	e0 7f       	andi	r30, 0xF0	; 240
    2702:	fe 27       	eor	r31, r30
    2704:	ef 50       	subi	r30, 0x0F	; 15
    2706:	ff 4e       	sbci	r31, 0xEF	; 239
    2708:	80 85       	ldd	r24, Z+8	; 0x08
    270a:	91 85       	ldd	r25, Z+9	; 0x09
    270c:	01 96       	adiw	r24, 0x01	; 1
    270e:	91 87       	std	Z+9, r25	; 0x09
    2710:	80 87       	std	Z+8, r24	; 0x08
    2712:	cf 57       	subi	r28, 0x7F	; 127
    2714:	d8 4f       	sbci	r29, 0xF8	; 248
    2716:	81 e0       	ldi	r24, 0x01	; 1
    2718:	88 83       	st	Y, r24
    271a:	f8 01       	movw	r30, r16
    271c:	85 91       	lpm	r24, Z+
    271e:	94 91       	lpm	r25, Z
    2720:	fc 01       	movw	r30, r24
    2722:	19 95       	eicall
    2724:	df 91       	pop	r29
    2726:	cf 91       	pop	r28
    2728:	1f 91       	pop	r17
    272a:	0f 91       	pop	r16
    272c:	ff 90       	pop	r15
    272e:	ef 90       	pop	r14
    2730:	df 90       	pop	r13
    2732:	cf 90       	pop	r12
    2734:	bf 90       	pop	r11
    2736:	af 90       	pop	r10
    2738:	9f 90       	pop	r9
    273a:	8f 90       	pop	r8
    273c:	7f 90       	pop	r7
    273e:	6f 90       	pop	r6
    2740:	08 95       	ret

00002742 <MB_S_Tx>:
    2742:	24 e1       	ldi	r18, 0x14	; 20
    2744:	82 9f       	mul	r24, r18
    2746:	c0 01       	movw	r24, r0
    2748:	11 24       	eor	r1, r1
    274a:	fc 01       	movw	r30, r24
    274c:	e6 50       	subi	r30, 0x06	; 6
    274e:	fb 4f       	sbci	r31, 0xFB	; 251
    2750:	85 91       	lpm	r24, Z+
    2752:	94 91       	lpm	r25, Z
    2754:	fc 01       	movw	r30, r24
    2756:	19 95       	eicall
    2758:	08 95       	ret

0000275a <MB_S_Init>:
    275a:	cf 93       	push	r28
    275c:	df 93       	push	r29
    275e:	c8 2f       	mov	r28, r24
    2760:	d0 e0       	ldi	r29, 0x00	; 0
    2762:	ce 01       	movw	r24, r28
    2764:	88 5f       	subi	r24, 0xF8	; 248
    2766:	9f 4f       	sbci	r25, 0xFF	; 255
    2768:	0e 94 48 38 	call	0x7090	; 0x7090 <__eerd_byte_m2561>
    276c:	ce 58       	subi	r28, 0x8E	; 142
    276e:	d7 4f       	sbci	r29, 0xF7	; 247
    2770:	88 83       	st	Y, r24
    2772:	df 91       	pop	r29
    2774:	cf 91       	pop	r28
    2776:	08 95       	ret

00002778 <MB_M_Timer_ISR>:
    2778:	6f 92       	push	r6
    277a:	7f 92       	push	r7
    277c:	9f 92       	push	r9
    277e:	af 92       	push	r10
    2780:	bf 92       	push	r11
    2782:	cf 92       	push	r12
    2784:	df 92       	push	r13
    2786:	ef 92       	push	r14
    2788:	ff 92       	push	r15
    278a:	0f 93       	push	r16
    278c:	1f 93       	push	r17
    278e:	cf 93       	push	r28
    2790:	df 93       	push	r29
    2792:	d8 2e       	mov	r13, r24
    2794:	c8 2f       	mov	r28, r24
    2796:	d0 e0       	ldi	r29, 0x00	; 0
    2798:	fe 01       	movw	r30, r28
    279a:	ef 57       	subi	r30, 0x7F	; 127
    279c:	f8 4f       	sbci	r31, 0xF8	; 248
    279e:	80 81       	ld	r24, Z
    27a0:	88 23       	and	r24, r24
    27a2:	19 f0       	breq	.+6      	; 0x27aa <MB_M_Timer_ISR+0x32>
    27a4:	82 30       	cpi	r24, 0x02	; 2
    27a6:	71 f0       	breq	.+28     	; 0x27c4 <MB_M_Timer_ISR+0x4c>
    27a8:	96 c2       	rjmp	.+1324   	; 0x2cd6 <MB_M_Timer_ISR+0x55e>
    27aa:	80 91 8b 05 	lds	r24, 0x058B
    27ae:	8e 5f       	subi	r24, 0xFE	; 254
    27b0:	6f ef       	ldi	r22, 0xFF	; 255
    27b2:	7f ef       	ldi	r23, 0xFF	; 255
    27b4:	8d 0d       	add	r24, r13
    27b6:	0e 94 e6 07 	call	0xfcc	; 0xfcc <StartTimer16>
    27ba:	8d 2d       	mov	r24, r13
    27bc:	b5 db       	rcall	.-2198   	; 0x1f28 <FormQuery>
    27be:	8d 2d       	mov	r24, r13
    27c0:	45 d9       	rcall	.-3446   	; 0x1a4c <MB_Transm>
    27c2:	89 c2       	rjmp	.+1298   	; 0x2cd6 <MB_M_Timer_ISR+0x55e>
    27c4:	84 e0       	ldi	r24, 0x04	; 4
    27c6:	fe 01       	movw	r30, r28
    27c8:	ef 57       	subi	r30, 0x7F	; 127
    27ca:	f8 4f       	sbci	r31, 0xF8	; 248
    27cc:	80 83       	st	Z, r24
    27ce:	fe 01       	movw	r30, r28
    27d0:	e9 56       	subi	r30, 0x69	; 105
    27d2:	f7 4f       	sbci	r31, 0xF7	; 247
    27d4:	90 81       	ld	r25, Z
    27d6:	81 e0       	ldi	r24, 0x01	; 1
    27d8:	92 30       	cpi	r25, 0x02	; 2
    27da:	09 f0       	breq	.+2      	; 0x27de <MB_M_Timer_ISR+0x66>
    27dc:	80 e0       	ldi	r24, 0x00	; 0
    27de:	80 93 91 05 	sts	0x0591, r24
    27e2:	8d 2d       	mov	r24, r13
    27e4:	f9 d9       	rcall	.-3086   	; 0x1bd8 <CommErr>
    27e6:	88 23       	and	r24, r24
    27e8:	21 f0       	breq	.+8      	; 0x27f2 <MB_M_Timer_ISR+0x7a>
    27ea:	8d 2d       	mov	r24, r13
    27ec:	0e 94 dd 08 	call	0x11ba	; 0x11ba <FailSlave>
    27f0:	62 c2       	rjmp	.+1220   	; 0x2cb6 <MB_M_Timer_ISR+0x53e>
    27f2:	84 e1       	ldi	r24, 0x14	; 20
    27f4:	8c 9f       	mul	r24, r28
    27f6:	f0 01       	movw	r30, r0
    27f8:	8d 9f       	mul	r24, r29
    27fa:	f0 0d       	add	r31, r0
    27fc:	11 24       	eor	r1, r1
    27fe:	e6 50       	subi	r30, 0x06	; 6
    2800:	fb 4f       	sbci	r31, 0xFB	; 251
    2802:	85 91       	lpm	r24, Z+
    2804:	94 91       	lpm	r25, Z
    2806:	fc 01       	movw	r30, r24
    2808:	19 95       	eicall
    280a:	80 91 91 05 	lds	r24, 0x0591
    280e:	88 23       	and	r24, r24
    2810:	61 f0       	breq	.+24     	; 0x282a <MB_M_Timer_ISR+0xb2>
    2812:	fe 01       	movw	r30, r28
    2814:	ee 0f       	add	r30, r30
    2816:	ff 1f       	adc	r31, r31
    2818:	ee 0f       	add	r30, r30
    281a:	ff 1f       	adc	r31, r31
    281c:	ee 0f       	add	r30, r30
    281e:	ff 1f       	adc	r31, r31
    2820:	ee 56       	subi	r30, 0x6E	; 110
    2822:	fa 4f       	sbci	r31, 0xFA	; 250
    2824:	80 81       	ld	r24, Z
    2826:	21 81       	ldd	r18, Z+1	; 0x01
    2828:	15 c0       	rjmp	.+42     	; 0x2854 <MB_M_Timer_ISR+0xdc>
    282a:	8d 2d       	mov	r24, r13
    282c:	0e 94 e7 02 	call	0x5ce	; 0x5ce <GetSlave>
    2830:	8c 01       	movw	r16, r24
    2832:	fc 01       	movw	r30, r24
    2834:	31 96       	adiw	r30, 0x01	; 1
    2836:	e5 90       	lpm	r14, Z+
    2838:	f4 90       	lpm	r15, Z
    283a:	fe 01       	movw	r30, r28
    283c:	e6 57       	subi	r30, 0x76	; 118
    283e:	f7 4f       	sbci	r31, 0xF7	; 247
    2840:	80 81       	ld	r24, Z
    2842:	f7 e0       	ldi	r31, 0x07	; 7
    2844:	8f 9f       	mul	r24, r31
    2846:	e0 0c       	add	r14, r0
    2848:	f1 1c       	adc	r15, r1
    284a:	11 24       	eor	r1, r1
    284c:	f8 01       	movw	r30, r16
    284e:	84 91       	lpm	r24, Z
    2850:	f7 01       	movw	r30, r14
    2852:	24 91       	lpm	r18, Z
    2854:	fc 2f       	mov	r31, r28
    2856:	ee 27       	eor	r30, r30
    2858:	e0 57       	subi	r30, 0x70	; 112
    285a:	fe 4e       	sbci	r31, 0xEE	; 238
    285c:	90 81       	ld	r25, Z
    285e:	98 13       	cpse	r25, r24
    2860:	07 c0       	rjmp	.+14     	; 0x2870 <MB_M_Timer_ISR+0xf8>
    2862:	fc 2f       	mov	r31, r28
    2864:	ee 27       	eor	r30, r30
    2866:	e0 57       	subi	r30, 0x70	; 112
    2868:	fe 4e       	sbci	r31, 0xEE	; 238
    286a:	41 81       	ldd	r20, Z+1	; 0x01
    286c:	42 17       	cp	r20, r18
    286e:	21 f0       	breq	.+8      	; 0x2878 <MB_M_Timer_ISR+0x100>
    2870:	8d 2d       	mov	r24, r13
    2872:	0e 94 dd 08 	call	0x11ba	; 0x11ba <FailSlave>
    2876:	1f c2       	rjmp	.+1086   	; 0x2cb6 <MB_M_Timer_ISR+0x53e>
    2878:	84 2f       	mov	r24, r20
    287a:	90 e0       	ldi	r25, 0x00	; 0
    287c:	fc 01       	movw	r30, r24
    287e:	31 97       	sbiw	r30, 0x01	; 1
    2880:	e0 31       	cpi	r30, 0x10	; 16
    2882:	f1 05       	cpc	r31, r1
    2884:	08 f0       	brcs	.+2      	; 0x2888 <MB_M_Timer_ISR+0x110>
    2886:	bc c1       	rjmp	.+888    	; 0x2c00 <MB_M_Timer_ISR+0x488>
    2888:	ea 58       	subi	r30, 0x8A	; 138
    288a:	ff 4f       	sbci	r31, 0xFF	; 255
    288c:	0c 94 7d 35 	jmp	0x6afa	; 0x6afa <__tablejump2__>
    2890:	80 91 91 05 	lds	r24, 0x0591
    2894:	88 23       	and	r24, r24
    2896:	59 f0       	breq	.+22     	; 0x28ae <MB_M_Timer_ISR+0x136>
    2898:	fe 01       	movw	r30, r28
    289a:	ee 0f       	add	r30, r30
    289c:	ff 1f       	adc	r31, r31
    289e:	ee 0f       	add	r30, r30
    28a0:	ff 1f       	adc	r31, r31
    28a2:	ee 0f       	add	r30, r30
    28a4:	ff 1f       	adc	r31, r31
    28a6:	ee 56       	subi	r30, 0x6E	; 110
    28a8:	fa 4f       	sbci	r31, 0xFA	; 250
    28aa:	54 81       	ldd	r21, Z+4	; 0x04
    28ac:	03 c0       	rjmp	.+6      	; 0x28b4 <MB_M_Timer_ISR+0x13c>
    28ae:	f7 01       	movw	r30, r14
    28b0:	33 96       	adiw	r30, 0x03	; 3
    28b2:	54 91       	lpm	r21, Z
    28b4:	fc 2f       	mov	r31, r28
    28b6:	ee 27       	eor	r30, r30
    28b8:	e0 57       	subi	r30, 0x70	; 112
    28ba:	fe 4e       	sbci	r31, 0xEE	; 238
    28bc:	82 81       	ldd	r24, Z+2	; 0x02
    28be:	90 e0       	ldi	r25, 0x00	; 0
    28c0:	fe 01       	movw	r30, r28
    28c2:	e2 54       	subi	r30, 0x42	; 66
    28c4:	f7 4f       	sbci	r31, 0xF7	; 247
    28c6:	60 81       	ld	r22, Z
    28c8:	70 e0       	ldi	r23, 0x00	; 0
    28ca:	9c 01       	movw	r18, r24
    28cc:	2b 5f       	subi	r18, 0xFB	; 251
    28ce:	3f 4f       	sbci	r19, 0xFF	; 255
    28d0:	62 17       	cp	r22, r18
    28d2:	73 07       	cpc	r23, r19
    28d4:	09 f0       	breq	.+2      	; 0x28d8 <MB_M_Timer_ISR+0x160>
    28d6:	89 c0       	rjmp	.+274    	; 0x29ea <MB_M_Timer_ISR+0x272>
    28d8:	65 2f       	mov	r22, r21
    28da:	66 95       	lsr	r22
    28dc:	66 95       	lsr	r22
    28de:	66 95       	lsr	r22
    28e0:	70 e0       	ldi	r23, 0x00	; 0
    28e2:	21 e0       	ldi	r18, 0x01	; 1
    28e4:	30 e0       	ldi	r19, 0x00	; 0
    28e6:	e5 2f       	mov	r30, r21
    28e8:	e7 70       	andi	r30, 0x07	; 7
    28ea:	11 f4       	brne	.+4      	; 0x28f0 <MB_M_Timer_ISR+0x178>
    28ec:	20 e0       	ldi	r18, 0x00	; 0
    28ee:	30 e0       	ldi	r19, 0x00	; 0
    28f0:	26 0f       	add	r18, r22
    28f2:	37 1f       	adc	r19, r23
    28f4:	82 17       	cp	r24, r18
    28f6:	93 07       	cpc	r25, r19
    28f8:	09 f0       	breq	.+2      	; 0x28fc <MB_M_Timer_ISR+0x184>
    28fa:	7a c0       	rjmp	.+244    	; 0x29f0 <MB_M_Timer_ISR+0x278>
    28fc:	80 91 91 05 	lds	r24, 0x0591
    2900:	88 23       	and	r24, r24
    2902:	69 f0       	breq	.+26     	; 0x291e <MB_M_Timer_ISR+0x1a6>
    2904:	fe 01       	movw	r30, r28
    2906:	ee 0f       	add	r30, r30
    2908:	ff 1f       	adc	r31, r31
    290a:	ee 0f       	add	r30, r30
    290c:	ff 1f       	adc	r31, r31
    290e:	ee 0f       	add	r30, r30
    2910:	ff 1f       	adc	r31, r31
    2912:	ee 56       	subi	r30, 0x6E	; 110
    2914:	fa 4f       	sbci	r31, 0xFA	; 250
    2916:	a6 81       	ldd	r26, Z+6	; 0x06
    2918:	b7 81       	ldd	r27, Z+7	; 0x07
    291a:	c1 2c       	mov	r12, r1
    291c:	1e c0       	rjmp	.+60     	; 0x295a <MB_M_Timer_ISR+0x1e2>
    291e:	41 30       	cpi	r20, 0x01	; 1
    2920:	61 f4       	brne	.+24     	; 0x293a <MB_M_Timer_ISR+0x1c2>
    2922:	fe 01       	movw	r30, r28
    2924:	e2 95       	swap	r30
    2926:	f2 95       	swap	r31
    2928:	f0 7f       	andi	r31, 0xF0	; 240
    292a:	fe 27       	eor	r31, r30
    292c:	e0 7f       	andi	r30, 0xF0	; 240
    292e:	fe 27       	eor	r31, r30
    2930:	e5 5e       	subi	r30, 0xE5	; 229
    2932:	fa 4f       	sbci	r31, 0xFA	; 250
    2934:	a5 91       	lpm	r26, Z+
    2936:	b4 91       	lpm	r27, Z
    2938:	0b c0       	rjmp	.+22     	; 0x2950 <MB_M_Timer_ISR+0x1d8>
    293a:	fe 01       	movw	r30, r28
    293c:	e2 95       	swap	r30
    293e:	f2 95       	swap	r31
    2940:	f0 7f       	andi	r31, 0xF0	; 240
    2942:	fe 27       	eor	r31, r30
    2944:	e0 7f       	andi	r30, 0xF0	; 240
    2946:	fe 27       	eor	r31, r30
    2948:	e1 5e       	subi	r30, 0xE1	; 225
    294a:	fa 4f       	sbci	r31, 0xFA	; 250
    294c:	a5 91       	lpm	r26, Z+
    294e:	b4 91       	lpm	r27, Z
    2950:	f7 01       	movw	r30, r14
    2952:	35 96       	adiw	r30, 0x05	; 5
    2954:	85 91       	lpm	r24, Z+
    2956:	94 91       	lpm	r25, Z
    2958:	c8 2e       	mov	r12, r24
    295a:	a5 2e       	mov	r10, r21
    295c:	b1 2c       	mov	r11, r1
    295e:	a1 14       	cp	r10, r1
    2960:	b1 04       	cpc	r11, r1
    2962:	09 f4       	brne	.+2      	; 0x2966 <MB_M_Timer_ISR+0x1ee>
    2964:	48 c0       	rjmp	.+144    	; 0x29f6 <MB_M_Timer_ISR+0x27e>
    2966:	20 e0       	ldi	r18, 0x00	; 0
    2968:	30 e0       	ldi	r19, 0x00	; 0
    296a:	81 e0       	ldi	r24, 0x01	; 1
    296c:	90 e0       	ldi	r25, 0x00	; 0
    296e:	5c 2f       	mov	r21, r28
    2970:	44 27       	eor	r20, r20
    2972:	ba 01       	movw	r22, r20
    2974:	60 57       	subi	r22, 0x70	; 112
    2976:	7e 4e       	sbci	r23, 0xEE	; 238
    2978:	7b 01       	movw	r14, r22
    297a:	4c 2d       	mov	r20, r12
    297c:	42 0f       	add	r20, r18
    297e:	94 2e       	mov	r9, r20
    2980:	96 94       	lsr	r9
    2982:	96 94       	lsr	r9
    2984:	96 94       	lsr	r9
    2986:	47 70       	andi	r20, 0x07	; 7
    2988:	fc 01       	movw	r30, r24
    298a:	02 c0       	rjmp	.+4      	; 0x2990 <MB_M_Timer_ISR+0x218>
    298c:	ee 0f       	add	r30, r30
    298e:	ff 1f       	adc	r31, r31
    2990:	4a 95       	dec	r20
    2992:	e2 f7       	brpl	.-8      	; 0x298c <MB_M_Timer_ISR+0x214>
    2994:	af 01       	movw	r20, r30
    2996:	f9 01       	movw	r30, r18
    2998:	f6 95       	lsr	r31
    299a:	e7 95       	ror	r30
    299c:	f6 95       	lsr	r31
    299e:	e7 95       	ror	r30
    29a0:	f6 95       	lsr	r31
    29a2:	e7 95       	ror	r30
    29a4:	ee 0d       	add	r30, r14
    29a6:	ff 1d       	adc	r31, r15
    29a8:	e3 81       	ldd	r30, Z+3	; 0x03
    29aa:	f0 e0       	ldi	r31, 0x00	; 0
    29ac:	b9 01       	movw	r22, r18
    29ae:	67 70       	andi	r22, 0x07	; 7
    29b0:	77 27       	eor	r23, r23
    29b2:	3f 01       	movw	r6, r30
    29b4:	02 c0       	rjmp	.+4      	; 0x29ba <MB_M_Timer_ISR+0x242>
    29b6:	75 94       	asr	r7
    29b8:	67 94       	ror	r6
    29ba:	6a 95       	dec	r22
    29bc:	e2 f7       	brpl	.-8      	; 0x29b6 <MB_M_Timer_ISR+0x23e>
    29be:	60 fe       	sbrs	r6, 0
    29c0:	07 c0       	rjmp	.+14     	; 0x29d0 <MB_M_Timer_ISR+0x258>
    29c2:	fd 01       	movw	r30, r26
    29c4:	e9 0d       	add	r30, r9
    29c6:	f1 1d       	adc	r31, r1
    29c8:	50 81       	ld	r21, Z
    29ca:	45 2b       	or	r20, r21
    29cc:	40 83       	st	Z, r20
    29ce:	07 c0       	rjmp	.+14     	; 0x29de <MB_M_Timer_ISR+0x266>
    29d0:	fd 01       	movw	r30, r26
    29d2:	e9 0d       	add	r30, r9
    29d4:	f1 1d       	adc	r31, r1
    29d6:	40 95       	com	r20
    29d8:	50 81       	ld	r21, Z
    29da:	45 23       	and	r20, r21
    29dc:	40 83       	st	Z, r20
    29de:	2f 5f       	subi	r18, 0xFF	; 255
    29e0:	3f 4f       	sbci	r19, 0xFF	; 255
    29e2:	2a 15       	cp	r18, r10
    29e4:	3b 05       	cpc	r19, r11
    29e6:	48 f2       	brcs	.-110    	; 0x297a <MB_M_Timer_ISR+0x202>
    29e8:	08 c0       	rjmp	.+16     	; 0x29fa <MB_M_Timer_ISR+0x282>
    29ea:	bb 24       	eor	r11, r11
    29ec:	b3 94       	inc	r11
    29ee:	08 c1       	rjmp	.+528    	; 0x2c00 <MB_M_Timer_ISR+0x488>
    29f0:	bb 24       	eor	r11, r11
    29f2:	b3 94       	inc	r11
    29f4:	05 c1       	rjmp	.+522    	; 0x2c00 <MB_M_Timer_ISR+0x488>
    29f6:	b1 2c       	mov	r11, r1
    29f8:	03 c1       	rjmp	.+518    	; 0x2c00 <MB_M_Timer_ISR+0x488>
    29fa:	b1 2c       	mov	r11, r1
    29fc:	01 c1       	rjmp	.+514    	; 0x2c00 <MB_M_Timer_ISR+0x488>
    29fe:	fc 2f       	mov	r31, r28
    2a00:	ee 27       	eor	r30, r30
    2a02:	e0 57       	subi	r30, 0x70	; 112
    2a04:	fe 4e       	sbci	r31, 0xEE	; 238
    2a06:	52 81       	ldd	r21, Z+2	; 0x02
    2a08:	fe 01       	movw	r30, r28
    2a0a:	e2 54       	subi	r30, 0x42	; 66
    2a0c:	f7 4f       	sbci	r31, 0xF7	; 247
    2a0e:	20 81       	ld	r18, Z
    2a10:	30 e0       	ldi	r19, 0x00	; 0
    2a12:	85 2f       	mov	r24, r21
    2a14:	90 e0       	ldi	r25, 0x00	; 0
    2a16:	05 96       	adiw	r24, 0x05	; 5
    2a18:	28 17       	cp	r18, r24
    2a1a:	39 07       	cpc	r19, r25
    2a1c:	09 f0       	breq	.+2      	; 0x2a20 <MB_M_Timer_ISR+0x2a8>
    2a1e:	6a c0       	rjmp	.+212    	; 0x2af4 <MB_M_Timer_ISR+0x37c>
    2a20:	80 91 91 05 	lds	r24, 0x0591
    2a24:	88 23       	and	r24, r24
    2a26:	71 f0       	breq	.+28     	; 0x2a44 <MB_M_Timer_ISR+0x2cc>
    2a28:	fe 01       	movw	r30, r28
    2a2a:	ee 0f       	add	r30, r30
    2a2c:	ff 1f       	adc	r31, r31
    2a2e:	ee 0f       	add	r30, r30
    2a30:	ff 1f       	adc	r31, r31
    2a32:	ee 0f       	add	r30, r30
    2a34:	ff 1f       	adc	r31, r31
    2a36:	ee 56       	subi	r30, 0x6E	; 110
    2a38:	fa 4f       	sbci	r31, 0xFA	; 250
    2a3a:	84 81       	ldd	r24, Z+4	; 0x04
    2a3c:	95 81       	ldd	r25, Z+5	; 0x05
    2a3e:	88 0f       	add	r24, r24
    2a40:	99 1f       	adc	r25, r25
    2a42:	06 c0       	rjmp	.+12     	; 0x2a50 <MB_M_Timer_ISR+0x2d8>
    2a44:	f7 01       	movw	r30, r14
    2a46:	33 96       	adiw	r30, 0x03	; 3
    2a48:	85 91       	lpm	r24, Z+
    2a4a:	94 91       	lpm	r25, Z
    2a4c:	88 0f       	add	r24, r24
    2a4e:	99 1f       	adc	r25, r25
    2a50:	25 2f       	mov	r18, r21
    2a52:	30 e0       	ldi	r19, 0x00	; 0
    2a54:	28 17       	cp	r18, r24
    2a56:	39 07       	cpc	r19, r25
    2a58:	09 f0       	breq	.+2      	; 0x2a5c <MB_M_Timer_ISR+0x2e4>
    2a5a:	4f c0       	rjmp	.+158    	; 0x2afa <MB_M_Timer_ISR+0x382>
    2a5c:	80 91 91 05 	lds	r24, 0x0591
    2a60:	88 23       	and	r24, r24
    2a62:	61 f0       	breq	.+24     	; 0x2a7c <MB_M_Timer_ISR+0x304>
    2a64:	fe 01       	movw	r30, r28
    2a66:	ee 0f       	add	r30, r30
    2a68:	ff 1f       	adc	r31, r31
    2a6a:	ee 0f       	add	r30, r30
    2a6c:	ff 1f       	adc	r31, r31
    2a6e:	ee 0f       	add	r30, r30
    2a70:	ff 1f       	adc	r31, r31
    2a72:	ee 56       	subi	r30, 0x6E	; 110
    2a74:	fa 4f       	sbci	r31, 0xFA	; 250
    2a76:	a6 80       	ldd	r10, Z+6	; 0x06
    2a78:	b7 80       	ldd	r11, Z+7	; 0x07
    2a7a:	22 c0       	rjmp	.+68     	; 0x2ac0 <MB_M_Timer_ISR+0x348>
    2a7c:	43 30       	cpi	r20, 0x03	; 3
    2a7e:	61 f4       	brne	.+24     	; 0x2a98 <MB_M_Timer_ISR+0x320>
    2a80:	fe 01       	movw	r30, r28
    2a82:	e2 95       	swap	r30
    2a84:	f2 95       	swap	r31
    2a86:	f0 7f       	andi	r31, 0xF0	; 240
    2a88:	fe 27       	eor	r31, r30
    2a8a:	e0 7f       	andi	r30, 0xF0	; 240
    2a8c:	fe 27       	eor	r31, r30
    2a8e:	ed 5d       	subi	r30, 0xDD	; 221
    2a90:	fa 4f       	sbci	r31, 0xFA	; 250
    2a92:	85 91       	lpm	r24, Z+
    2a94:	94 91       	lpm	r25, Z
    2a96:	0b c0       	rjmp	.+22     	; 0x2aae <MB_M_Timer_ISR+0x336>
    2a98:	fe 01       	movw	r30, r28
    2a9a:	e2 95       	swap	r30
    2a9c:	f2 95       	swap	r31
    2a9e:	f0 7f       	andi	r31, 0xF0	; 240
    2aa0:	fe 27       	eor	r31, r30
    2aa2:	e0 7f       	andi	r30, 0xF0	; 240
    2aa4:	fe 27       	eor	r31, r30
    2aa6:	e9 5d       	subi	r30, 0xD9	; 217
    2aa8:	fa 4f       	sbci	r31, 0xFA	; 250
    2aaa:	85 91       	lpm	r24, Z+
    2aac:	94 91       	lpm	r25, Z
    2aae:	f7 01       	movw	r30, r14
    2ab0:	35 96       	adiw	r30, 0x05	; 5
    2ab2:	25 91       	lpm	r18, Z+
    2ab4:	34 91       	lpm	r19, Z
    2ab6:	22 0f       	add	r18, r18
    2ab8:	33 1f       	adc	r19, r19
    2aba:	5c 01       	movw	r10, r24
    2abc:	a2 0e       	add	r10, r18
    2abe:	b3 1e       	adc	r11, r19
    2ac0:	56 95       	lsr	r21
    2ac2:	cc 24       	eor	r12, r12
    2ac4:	ca 94       	dec	r12
    2ac6:	c5 0e       	add	r12, r21
    2ac8:	da f0       	brmi	.+54     	; 0x2b00 <MB_M_Timer_ISR+0x388>
    2aca:	55 0f       	add	r21, r21
    2acc:	99 24       	eor	r9, r9
    2ace:	93 94       	inc	r9
    2ad0:	95 0e       	add	r9, r21
    2ad2:	ec 2c       	mov	r14, r12
    2ad4:	ee 0c       	add	r14, r14
    2ad6:	ff 08       	sbc	r15, r15
    2ad8:	ea 0c       	add	r14, r10
    2ada:	fb 1c       	adc	r15, r11
    2adc:	69 2d       	mov	r22, r9
    2ade:	8d 2d       	mov	r24, r13
    2ae0:	06 d9       	rcall	.-3572   	; 0x1cee <MB_FrameReg>
    2ae2:	f7 01       	movw	r30, r14
    2ae4:	91 83       	std	Z+1, r25	; 0x01
    2ae6:	80 83       	st	Z, r24
    2ae8:	ca 94       	dec	r12
    2aea:	9a 94       	dec	r9
    2aec:	9a 94       	dec	r9
    2aee:	cc 20       	and	r12, r12
    2af0:	84 f7       	brge	.-32     	; 0x2ad2 <MB_M_Timer_ISR+0x35a>
    2af2:	08 c0       	rjmp	.+16     	; 0x2b04 <MB_M_Timer_ISR+0x38c>
    2af4:	bb 24       	eor	r11, r11
    2af6:	b3 94       	inc	r11
    2af8:	83 c0       	rjmp	.+262    	; 0x2c00 <MB_M_Timer_ISR+0x488>
    2afa:	bb 24       	eor	r11, r11
    2afc:	b3 94       	inc	r11
    2afe:	80 c0       	rjmp	.+256    	; 0x2c00 <MB_M_Timer_ISR+0x488>
    2b00:	b1 2c       	mov	r11, r1
    2b02:	7e c0       	rjmp	.+252    	; 0x2c00 <MB_M_Timer_ISR+0x488>
    2b04:	b1 2c       	mov	r11, r1
    2b06:	7c c0       	rjmp	.+248    	; 0x2c00 <MB_M_Timer_ISR+0x488>
    2b08:	80 91 91 05 	lds	r24, 0x0591
    2b0c:	88 23       	and	r24, r24
    2b0e:	71 f0       	breq	.+28     	; 0x2b2c <MB_M_Timer_ISR+0x3b4>
    2b10:	fe 01       	movw	r30, r28
    2b12:	ee 0f       	add	r30, r30
    2b14:	ff 1f       	adc	r31, r31
    2b16:	ee 0f       	add	r30, r30
    2b18:	ff 1f       	adc	r31, r31
    2b1a:	ee 0f       	add	r30, r30
    2b1c:	ff 1f       	adc	r31, r31
    2b1e:	ee 56       	subi	r30, 0x6E	; 110
    2b20:	fa 4f       	sbci	r31, 0xFA	; 250
    2b22:	a2 80       	ldd	r10, Z+2	; 0x02
    2b24:	b3 80       	ldd	r11, Z+3	; 0x03
    2b26:	e6 80       	ldd	r14, Z+6	; 0x06
    2b28:	f7 80       	ldd	r15, Z+7	; 0x07
    2b2a:	18 c0       	rjmp	.+48     	; 0x2b5c <MB_M_Timer_ISR+0x3e4>
    2b2c:	f7 01       	movw	r30, r14
    2b2e:	31 96       	adiw	r30, 0x01	; 1
    2b30:	a5 90       	lpm	r10, Z+
    2b32:	b4 90       	lpm	r11, Z
    2b34:	fe 01       	movw	r30, r28
    2b36:	e2 95       	swap	r30
    2b38:	f2 95       	swap	r31
    2b3a:	f0 7f       	andi	r31, 0xF0	; 240
    2b3c:	fe 27       	eor	r31, r30
    2b3e:	e0 7f       	andi	r30, 0xF0	; 240
    2b40:	fe 27       	eor	r31, r30
    2b42:	ed 5d       	subi	r30, 0xDD	; 221
    2b44:	fa 4f       	sbci	r31, 0xFA	; 250
    2b46:	85 91       	lpm	r24, Z+
    2b48:	94 91       	lpm	r25, Z
    2b4a:	f7 01       	movw	r30, r14
    2b4c:	35 96       	adiw	r30, 0x05	; 5
    2b4e:	25 91       	lpm	r18, Z+
    2b50:	34 91       	lpm	r19, Z
    2b52:	22 0f       	add	r18, r18
    2b54:	33 1f       	adc	r19, r19
    2b56:	7c 01       	movw	r14, r24
    2b58:	e2 0e       	add	r14, r18
    2b5a:	f3 1e       	adc	r15, r19
    2b5c:	fe 01       	movw	r30, r28
    2b5e:	e2 54       	subi	r30, 0x42	; 66
    2b60:	f7 4f       	sbci	r31, 0xF7	; 247
    2b62:	80 81       	ld	r24, Z
    2b64:	88 30       	cpi	r24, 0x08	; 8
    2b66:	99 f4       	brne	.+38     	; 0x2b8e <MB_M_Timer_ISR+0x416>
    2b68:	62 e0       	ldi	r22, 0x02	; 2
    2b6a:	8d 2d       	mov	r24, r13
    2b6c:	c0 d8       	rcall	.-3712   	; 0x1cee <MB_FrameReg>
    2b6e:	8a 15       	cp	r24, r10
    2b70:	9b 05       	cpc	r25, r11
    2b72:	79 f4       	brne	.+30     	; 0x2b92 <MB_M_Timer_ISR+0x41a>
    2b74:	64 e0       	ldi	r22, 0x04	; 4
    2b76:	8d 2d       	mov	r24, r13
    2b78:	ba d8       	rcall	.-3724   	; 0x1cee <MB_FrameReg>
    2b7a:	41 e0       	ldi	r20, 0x01	; 1
    2b7c:	f7 01       	movw	r30, r14
    2b7e:	20 81       	ld	r18, Z
    2b80:	31 81       	ldd	r19, Z+1	; 0x01
    2b82:	82 17       	cp	r24, r18
    2b84:	93 07       	cpc	r25, r19
    2b86:	09 f4       	brne	.+2      	; 0x2b8a <MB_M_Timer_ISR+0x412>
    2b88:	40 e0       	ldi	r20, 0x00	; 0
    2b8a:	84 2f       	mov	r24, r20
    2b8c:	03 c0       	rjmp	.+6      	; 0x2b94 <MB_M_Timer_ISR+0x41c>
    2b8e:	81 e0       	ldi	r24, 0x01	; 1
    2b90:	01 c0       	rjmp	.+2      	; 0x2b94 <MB_M_Timer_ISR+0x41c>
    2b92:	81 e0       	ldi	r24, 0x01	; 1
    2b94:	b8 2e       	mov	r11, r24
    2b96:	34 c0       	rjmp	.+104    	; 0x2c00 <MB_M_Timer_ISR+0x488>
    2b98:	80 91 91 05 	lds	r24, 0x0591
    2b9c:	88 23       	and	r24, r24
    2b9e:	71 f0       	breq	.+28     	; 0x2bbc <MB_M_Timer_ISR+0x444>
    2ba0:	fe 01       	movw	r30, r28
    2ba2:	ee 0f       	add	r30, r30
    2ba4:	ff 1f       	adc	r31, r31
    2ba6:	ee 0f       	add	r30, r30
    2ba8:	ff 1f       	adc	r31, r31
    2baa:	ee 0f       	add	r30, r30
    2bac:	ff 1f       	adc	r31, r31
    2bae:	ee 56       	subi	r30, 0x6E	; 110
    2bb0:	fa 4f       	sbci	r31, 0xFA	; 250
    2bb2:	a2 80       	ldd	r10, Z+2	; 0x02
    2bb4:	b3 80       	ldd	r11, Z+3	; 0x03
    2bb6:	e4 80       	ldd	r14, Z+4	; 0x04
    2bb8:	f5 80       	ldd	r15, Z+5	; 0x05
    2bba:	08 c0       	rjmp	.+16     	; 0x2bcc <MB_M_Timer_ISR+0x454>
    2bbc:	f7 01       	movw	r30, r14
    2bbe:	31 96       	adiw	r30, 0x01	; 1
    2bc0:	a5 90       	lpm	r10, Z+
    2bc2:	b4 90       	lpm	r11, Z
    2bc4:	f7 01       	movw	r30, r14
    2bc6:	33 96       	adiw	r30, 0x03	; 3
    2bc8:	e5 90       	lpm	r14, Z+
    2bca:	f4 90       	lpm	r15, Z
    2bcc:	fe 01       	movw	r30, r28
    2bce:	e2 54       	subi	r30, 0x42	; 66
    2bd0:	f7 4f       	sbci	r31, 0xF7	; 247
    2bd2:	80 81       	ld	r24, Z
    2bd4:	88 30       	cpi	r24, 0x08	; 8
    2bd6:	81 f4       	brne	.+32     	; 0x2bf8 <MB_M_Timer_ISR+0x480>
    2bd8:	62 e0       	ldi	r22, 0x02	; 2
    2bda:	8d 2d       	mov	r24, r13
    2bdc:	88 d8       	rcall	.-3824   	; 0x1cee <MB_FrameReg>
    2bde:	8a 15       	cp	r24, r10
    2be0:	9b 05       	cpc	r25, r11
    2be2:	61 f4       	brne	.+24     	; 0x2bfc <MB_M_Timer_ISR+0x484>
    2be4:	64 e0       	ldi	r22, 0x04	; 4
    2be6:	8d 2d       	mov	r24, r13
    2be8:	82 d8       	rcall	.-3836   	; 0x1cee <MB_FrameReg>
    2bea:	21 e0       	ldi	r18, 0x01	; 1
    2bec:	8e 15       	cp	r24, r14
    2bee:	9f 05       	cpc	r25, r15
    2bf0:	09 f4       	brne	.+2      	; 0x2bf4 <MB_M_Timer_ISR+0x47c>
    2bf2:	20 e0       	ldi	r18, 0x00	; 0
    2bf4:	82 2f       	mov	r24, r18
    2bf6:	03 c0       	rjmp	.+6      	; 0x2bfe <MB_M_Timer_ISR+0x486>
    2bf8:	81 e0       	ldi	r24, 0x01	; 1
    2bfa:	01 c0       	rjmp	.+2      	; 0x2bfe <MB_M_Timer_ISR+0x486>
    2bfc:	81 e0       	ldi	r24, 0x01	; 1
    2bfe:	b8 2e       	mov	r11, r24
    2c00:	bb 20       	and	r11, r11
    2c02:	91 f0       	breq	.+36     	; 0x2c28 <MB_M_Timer_ISR+0x4b0>
    2c04:	fe 01       	movw	r30, r28
    2c06:	e2 95       	swap	r30
    2c08:	f2 95       	swap	r31
    2c0a:	f0 7f       	andi	r31, 0xF0	; 240
    2c0c:	fe 27       	eor	r31, r30
    2c0e:	e0 7f       	andi	r30, 0xF0	; 240
    2c10:	fe 27       	eor	r31, r30
    2c12:	ef 50       	subi	r30, 0x0F	; 15
    2c14:	ff 4e       	sbci	r31, 0xEF	; 239
    2c16:	84 81       	ldd	r24, Z+4	; 0x04
    2c18:	95 81       	ldd	r25, Z+5	; 0x05
    2c1a:	01 96       	adiw	r24, 0x01	; 1
    2c1c:	95 83       	std	Z+5, r25	; 0x05
    2c1e:	84 83       	std	Z+4, r24	; 0x04
    2c20:	8d 2d       	mov	r24, r13
    2c22:	0e 94 dd 08 	call	0x11ba	; 0x11ba <FailSlave>
    2c26:	47 c0       	rjmp	.+142    	; 0x2cb6 <MB_M_Timer_ISR+0x53e>
    2c28:	80 91 91 05 	lds	r24, 0x0591
    2c2c:	88 23       	and	r24, r24
    2c2e:	31 f0       	breq	.+12     	; 0x2c3c <MB_M_Timer_ISR+0x4c4>
    2c30:	c9 56       	subi	r28, 0x69	; 105
    2c32:	d7 4f       	sbci	r29, 0xF7	; 247
    2c34:	18 82       	st	Y, r1
    2c36:	65 e0       	ldi	r22, 0x05	; 5
    2c38:	70 e0       	ldi	r23, 0x00	; 0
    2c3a:	48 c0       	rjmp	.+144    	; 0x2ccc <MB_M_Timer_ISR+0x554>
    2c3c:	fe 01       	movw	r30, r28
    2c3e:	ee 0f       	add	r30, r30
    2c40:	ff 1f       	adc	r31, r31
    2c42:	ee 0f       	add	r30, r30
    2c44:	ff 1f       	adc	r31, r31
    2c46:	bf 01       	movw	r22, r30
    2c48:	6f 51       	subi	r22, 0x1F	; 31
    2c4a:	7f 4e       	sbci	r23, 0xEF	; 239
    2c4c:	81 e0       	ldi	r24, 0x01	; 1
    2c4e:	90 e0       	ldi	r25, 0x00	; 0
    2c50:	a0 e0       	ldi	r26, 0x00	; 0
    2c52:	b0 e0       	ldi	r27, 0x00	; 0
    2c54:	9e 01       	movw	r18, r28
    2c56:	2b 57       	subi	r18, 0x7B	; 123
    2c58:	37 4f       	sbci	r19, 0xF7	; 247
    2c5a:	f9 01       	movw	r30, r18
    2c5c:	00 80       	ld	r0, Z
    2c5e:	04 c0       	rjmp	.+8      	; 0x2c68 <MB_M_Timer_ISR+0x4f0>
    2c60:	88 0f       	add	r24, r24
    2c62:	99 1f       	adc	r25, r25
    2c64:	aa 1f       	adc	r26, r26
    2c66:	bb 1f       	adc	r27, r27
    2c68:	0a 94       	dec	r0
    2c6a:	d2 f7       	brpl	.-12     	; 0x2c60 <MB_M_Timer_ISR+0x4e8>
    2c6c:	80 95       	com	r24
    2c6e:	90 95       	com	r25
    2c70:	a0 95       	com	r26
    2c72:	b0 95       	com	r27
    2c74:	fb 01       	movw	r30, r22
    2c76:	40 81       	ld	r20, Z
    2c78:	51 81       	ldd	r21, Z+1	; 0x01
    2c7a:	62 81       	ldd	r22, Z+2	; 0x02
    2c7c:	73 81       	ldd	r23, Z+3	; 0x03
    2c7e:	84 23       	and	r24, r20
    2c80:	95 23       	and	r25, r21
    2c82:	a6 23       	and	r26, r22
    2c84:	b7 23       	and	r27, r23
    2c86:	80 83       	st	Z, r24
    2c88:	91 83       	std	Z+1, r25	; 0x01
    2c8a:	a2 83       	std	Z+2, r26	; 0x02
    2c8c:	b3 83       	std	Z+3, r27	; 0x03
    2c8e:	fe 01       	movw	r30, r28
    2c90:	e6 57       	subi	r30, 0x76	; 118
    2c92:	f7 4f       	sbci	r31, 0xF7	; 247
    2c94:	80 81       	ld	r24, Z
    2c96:	8f 5f       	subi	r24, 0xFF	; 255
    2c98:	80 83       	st	Z, r24
    2c9a:	f8 01       	movw	r30, r16
    2c9c:	33 96       	adiw	r30, 0x03	; 3
    2c9e:	e4 91       	lpm	r30, Z
    2ca0:	8e 13       	cpse	r24, r30
    2ca2:	04 c0       	rjmp	.+8      	; 0x2cac <MB_M_Timer_ISR+0x534>
    2ca4:	8d 2d       	mov	r24, r13
    2ca6:	0e 94 3e 08 	call	0x107c	; 0x107c <NextSlave>
    2caa:	01 c0       	rjmp	.+2      	; 0x2cae <MB_M_Timer_ISR+0x536>
    2cac:	80 e0       	ldi	r24, 0x00	; 0
    2cae:	fe 01       	movw	r30, r28
    2cb0:	e0 57       	subi	r30, 0x70	; 112
    2cb2:	fa 4f       	sbci	r31, 0xFA	; 250
    2cb4:	10 82       	st	Z, r1
    2cb6:	88 23       	and	r24, r24
    2cb8:	39 f0       	breq	.+14     	; 0x2cc8 <MB_M_Timer_ISR+0x550>
    2cba:	cc 0f       	add	r28, r28
    2cbc:	dd 1f       	adc	r29, r29
    2cbe:	cb 56       	subi	r28, 0x6B	; 107
    2cc0:	d7 4f       	sbci	r29, 0xF7	; 247
    2cc2:	68 81       	ld	r22, Y
    2cc4:	79 81       	ldd	r23, Y+1	; 0x01
    2cc6:	02 c0       	rjmp	.+4      	; 0x2ccc <MB_M_Timer_ISR+0x554>
    2cc8:	65 e0       	ldi	r22, 0x05	; 5
    2cca:	70 e0       	ldi	r23, 0x00	; 0
    2ccc:	80 91 8b 05 	lds	r24, 0x058B
    2cd0:	8d 0d       	add	r24, r13
    2cd2:	0e 94 e6 07 	call	0xfcc	; 0xfcc <StartTimer16>
    2cd6:	df 91       	pop	r29
    2cd8:	cf 91       	pop	r28
    2cda:	1f 91       	pop	r17
    2cdc:	0f 91       	pop	r16
    2cde:	ff 90       	pop	r15
    2ce0:	ef 90       	pop	r14
    2ce2:	df 90       	pop	r13
    2ce4:	cf 90       	pop	r12
    2ce6:	bf 90       	pop	r11
    2ce8:	af 90       	pop	r10
    2cea:	9f 90       	pop	r9
    2cec:	7f 90       	pop	r7
    2cee:	6f 90       	pop	r6
    2cf0:	08 95       	ret

00002cf2 <MB_M_Tx>:
    2cf2:	e8 2f       	mov	r30, r24
    2cf4:	f0 e0       	ldi	r31, 0x00	; 0
    2cf6:	e1 52       	subi	r30, 0x21	; 33
    2cf8:	ff 4e       	sbci	r31, 0xEF	; 239
    2cfa:	60 81       	ld	r22, Z
    2cfc:	70 e0       	ldi	r23, 0x00	; 0
    2cfe:	90 91 8b 05 	lds	r25, 0x058B
    2d02:	89 0f       	add	r24, r25
    2d04:	0c 94 e6 07 	jmp	0xfcc	; 0xfcc <StartTimer16>
    2d08:	08 95       	ret

00002d0a <Modbus_TX>:
    2d0a:	1f 93       	push	r17
    2d0c:	cf 93       	push	r28
    2d0e:	df 93       	push	r29
    2d10:	ec ee       	ldi	r30, 0xEC	; 236
    2d12:	f4 e0       	ldi	r31, 0x04	; 4
    2d14:	25 91       	lpm	r18, Z+
    2d16:	34 91       	lpm	r19, Z
    2d18:	82 17       	cp	r24, r18
    2d1a:	93 07       	cpc	r25, r19
    2d1c:	91 f0       	breq	.+36     	; 0x2d42 <Modbus_TX+0x38>
    2d1e:	10 e0       	ldi	r17, 0x00	; 0
    2d20:	44 e1       	ldi	r20, 0x14	; 20
    2d22:	1f 5f       	subi	r17, 0xFF	; 255
    2d24:	c1 2f       	mov	r28, r17
    2d26:	d0 e0       	ldi	r29, 0x00	; 0
    2d28:	4c 9f       	mul	r20, r28
    2d2a:	f0 01       	movw	r30, r0
    2d2c:	4d 9f       	mul	r20, r29
    2d2e:	f0 0d       	add	r31, r0
    2d30:	11 24       	eor	r1, r1
    2d32:	e4 51       	subi	r30, 0x14	; 20
    2d34:	fb 4f       	sbci	r31, 0xFB	; 251
    2d36:	25 91       	lpm	r18, Z+
    2d38:	34 91       	lpm	r19, Z
    2d3a:	82 17       	cp	r24, r18
    2d3c:	93 07       	cpc	r25, r19
    2d3e:	89 f7       	brne	.-30     	; 0x2d22 <Modbus_TX+0x18>
    2d40:	03 c0       	rjmp	.+6      	; 0x2d48 <Modbus_TX+0x3e>
    2d42:	c0 e0       	ldi	r28, 0x00	; 0
    2d44:	d0 e0       	ldi	r29, 0x00	; 0
    2d46:	10 e0       	ldi	r17, 0x00	; 0
    2d48:	fe 01       	movw	r30, r28
    2d4a:	e9 58       	subi	r30, 0x89	; 137
    2d4c:	fa 4f       	sbci	r31, 0xFA	; 250
    2d4e:	60 81       	ld	r22, Z
    2d50:	46 2f       	mov	r20, r22
    2d52:	50 e0       	ldi	r21, 0x00	; 0
    2d54:	fe 01       	movw	r30, r28
    2d56:	e2 54       	subi	r30, 0x42	; 66
    2d58:	f7 4f       	sbci	r31, 0xF7	; 247
    2d5a:	20 81       	ld	r18, Z
    2d5c:	30 e0       	ldi	r19, 0x00	; 0
    2d5e:	22 50       	subi	r18, 0x02	; 2
    2d60:	31 09       	sbc	r19, r1
    2d62:	42 17       	cp	r20, r18
    2d64:	53 07       	cpc	r21, r19
    2d66:	09 f5       	brne	.+66     	; 0x2daa <Modbus_TX+0xa0>
    2d68:	44 e1       	ldi	r20, 0x14	; 20
    2d6a:	4c 9f       	mul	r20, r28
    2d6c:	90 01       	movw	r18, r0
    2d6e:	4d 9f       	mul	r20, r29
    2d70:	30 0d       	add	r19, r0
    2d72:	11 24       	eor	r1, r1
    2d74:	20 51       	subi	r18, 0x10	; 16
    2d76:	3b 4f       	sbci	r19, 0xFB	; 251
    2d78:	f9 01       	movw	r30, r18
    2d7a:	a5 91       	lpm	r26, Z+
    2d7c:	b4 91       	lpm	r27, Z
    2d7e:	4c 91       	ld	r20, X
    2d80:	4f 7d       	andi	r20, 0xDF	; 223
    2d82:	4c 93       	st	X, r20
    2d84:	f9 01       	movw	r30, r18
    2d86:	a5 91       	lpm	r26, Z+
    2d88:	b4 91       	lpm	r27, Z
    2d8a:	2c 91       	ld	r18, X
    2d8c:	20 64       	ori	r18, 0x40	; 64
    2d8e:	2c 93       	st	X, r18
    2d90:	24 e1       	ldi	r18, 0x14	; 20
    2d92:	2c 9f       	mul	r18, r28
    2d94:	f0 01       	movw	r30, r0
    2d96:	2d 9f       	mul	r18, r29
    2d98:	f0 0d       	add	r31, r0
    2d9a:	11 24       	eor	r1, r1
    2d9c:	e2 51       	subi	r30, 0x12	; 18
    2d9e:	fb 4f       	sbci	r31, 0xFB	; 251
    2da0:	a5 91       	lpm	r26, Z+
    2da2:	b4 91       	lpm	r27, Z
    2da4:	2c 91       	ld	r18, X
    2da6:	20 64       	ori	r18, 0x40	; 64
    2da8:	2c 93       	st	X, r18
    2daa:	6f 5f       	subi	r22, 0xFF	; 255
    2dac:	fe 01       	movw	r30, r28
    2dae:	e9 58       	subi	r30, 0x89	; 137
    2db0:	fa 4f       	sbci	r31, 0xFA	; 250
    2db2:	60 83       	st	Z, r22
    2db4:	fe 01       	movw	r30, r28
    2db6:	e2 54       	subi	r30, 0x42	; 66
    2db8:	f7 4f       	sbci	r31, 0xF7	; 247
    2dba:	20 81       	ld	r18, Z
    2dbc:	62 17       	cp	r22, r18
    2dbe:	50 f4       	brcc	.+20     	; 0x2dd4 <Modbus_TX+0xca>
    2dc0:	dc 2f       	mov	r29, r28
    2dc2:	cc 27       	eor	r28, r28
    2dc4:	c6 0f       	add	r28, r22
    2dc6:	d1 1d       	adc	r29, r1
    2dc8:	c0 57       	subi	r28, 0x70	; 112
    2dca:	de 4e       	sbci	r29, 0xEE	; 238
    2dcc:	28 81       	ld	r18, Y
    2dce:	fc 01       	movw	r30, r24
    2dd0:	20 83       	st	Z, r18
    2dd2:	30 c0       	rjmp	.+96     	; 0x2e34 <Modbus_TX+0x12a>
    2dd4:	84 e1       	ldi	r24, 0x14	; 20
    2dd6:	8c 9f       	mul	r24, r28
    2dd8:	f0 01       	movw	r30, r0
    2dda:	8d 9f       	mul	r24, r29
    2ddc:	f0 0d       	add	r31, r0
    2dde:	11 24       	eor	r1, r1
    2de0:	e0 51       	subi	r30, 0x10	; 16
    2de2:	fb 4f       	sbci	r31, 0xFB	; 251
    2de4:	a5 91       	lpm	r26, Z+
    2de6:	b4 91       	lpm	r27, Z
    2de8:	8c 91       	ld	r24, X
    2dea:	8f 79       	andi	r24, 0x9F	; 159
    2dec:	8c 93       	st	X, r24
    2dee:	84 e1       	ldi	r24, 0x14	; 20
    2df0:	8c 9f       	mul	r24, r28
    2df2:	f0 01       	movw	r30, r0
    2df4:	8d 9f       	mul	r24, r29
    2df6:	f0 0d       	add	r31, r0
    2df8:	11 24       	eor	r1, r1
    2dfa:	e8 50       	subi	r30, 0x08	; 8
    2dfc:	fb 4f       	sbci	r31, 0xFB	; 251
    2dfe:	85 91       	lpm	r24, Z+
    2e00:	94 91       	lpm	r25, Z
    2e02:	fc 01       	movw	r30, r24
    2e04:	19 95       	eicall
    2e06:	fe 01       	movw	r30, r28
    2e08:	e9 58       	subi	r30, 0x89	; 137
    2e0a:	fa 4f       	sbci	r31, 0xFA	; 250
    2e0c:	10 82       	st	Z, r1
    2e0e:	cf 57       	subi	r28, 0x7F	; 127
    2e10:	d8 4f       	sbci	r29, 0xF8	; 248
    2e12:	81 e0       	ldi	r24, 0x01	; 1
    2e14:	88 83       	st	Y, r24
    2e16:	e1 2f       	mov	r30, r17
    2e18:	f0 e0       	ldi	r31, 0x00	; 0
    2e1a:	e5 5d       	subi	r30, 0xD5	; 213
    2e1c:	fa 4f       	sbci	r31, 0xFA	; 250
    2e1e:	e4 91       	lpm	r30, Z
    2e20:	ee 23       	and	r30, r30
    2e22:	19 f0       	breq	.+6      	; 0x2e2a <Modbus_TX+0x120>
    2e24:	e1 30       	cpi	r30, 0x01	; 1
    2e26:	21 f0       	breq	.+8      	; 0x2e30 <Modbus_TX+0x126>
    2e28:	05 c0       	rjmp	.+10     	; 0x2e34 <Modbus_TX+0x12a>
    2e2a:	81 2f       	mov	r24, r17
    2e2c:	8a dc       	rcall	.-1772   	; 0x2742 <MB_S_Tx>
    2e2e:	02 c0       	rjmp	.+4      	; 0x2e34 <Modbus_TX+0x12a>
    2e30:	81 2f       	mov	r24, r17
    2e32:	5f df       	rcall	.-322    	; 0x2cf2 <MB_M_Tx>
    2e34:	df 91       	pop	r29
    2e36:	cf 91       	pop	r28
    2e38:	1f 91       	pop	r17
    2e3a:	08 95       	ret

00002e3c <MB_M_Cycle>:
    2e3c:	1f 93       	push	r17
    2e3e:	cf 93       	push	r28
    2e40:	df 93       	push	r29
    2e42:	18 2f       	mov	r17, r24
    2e44:	c0 91 8b 05 	lds	r28, 0x058B
    2e48:	c8 0f       	add	r28, r24
    2e4a:	81 e0       	ldi	r24, 0x01	; 1
    2e4c:	8c 0f       	add	r24, r28
    2e4e:	0e 94 92 09 	call	0x1324	; 0x1324 <Timer16Stopp>
    2e52:	88 23       	and	r24, r24
    2e54:	19 f0       	breq	.+6      	; 0x2e5c <MB_M_Cycle+0x20>
    2e56:	81 2f       	mov	r24, r17
    2e58:	0e 94 23 08 	call	0x1046	; 0x1046 <SlavesOn>
    2e5c:	8c 2f       	mov	r24, r28
    2e5e:	0e 94 92 09 	call	0x1324	; 0x1324 <Timer16Stopp>
    2e62:	88 23       	and	r24, r24
    2e64:	09 f4       	brne	.+2      	; 0x2e68 <MB_M_Cycle+0x2c>
    2e66:	69 c0       	rjmp	.+210    	; 0x2f3a <MB_M_Cycle+0xfe>
    2e68:	f8 94       	cli
    2e6a:	c1 2f       	mov	r28, r17
    2e6c:	d0 e0       	ldi	r29, 0x00	; 0
    2e6e:	fe 01       	movw	r30, r28
    2e70:	ef 57       	subi	r30, 0x7F	; 127
    2e72:	f8 4f       	sbci	r31, 0xF8	; 248
    2e74:	80 81       	ld	r24, Z
    2e76:	81 30       	cpi	r24, 0x01	; 1
    2e78:	29 f4       	brne	.+10     	; 0x2e84 <MB_M_Cycle+0x48>
    2e7a:	85 e0       	ldi	r24, 0x05	; 5
    2e7c:	fe 01       	movw	r30, r28
    2e7e:	ef 57       	subi	r30, 0x7F	; 127
    2e80:	f8 4f       	sbci	r31, 0xF8	; 248
    2e82:	80 83       	st	Z, r24
    2e84:	78 94       	sei
    2e86:	fe 01       	movw	r30, r28
    2e88:	ef 57       	subi	r30, 0x7F	; 127
    2e8a:	f8 4f       	sbci	r31, 0xF8	; 248
    2e8c:	80 81       	ld	r24, Z
    2e8e:	84 30       	cpi	r24, 0x04	; 4
    2e90:	31 f1       	breq	.+76     	; 0x2ede <MB_M_Cycle+0xa2>
    2e92:	85 30       	cpi	r24, 0x05	; 5
    2e94:	09 f0       	breq	.+2      	; 0x2e98 <MB_M_Cycle+0x5c>
    2e96:	51 c0       	rjmp	.+162    	; 0x2f3a <MB_M_Cycle+0xfe>
    2e98:	81 2f       	mov	r24, r17
    2e9a:	0e 94 dd 08 	call	0x11ba	; 0x11ba <FailSlave>
    2e9e:	fe 01       	movw	r30, r28
    2ea0:	e9 56       	subi	r30, 0x69	; 105
    2ea2:	f7 4f       	sbci	r31, 0xF7	; 247
    2ea4:	80 81       	ld	r24, Z
    2ea6:	88 23       	and	r24, r24
    2ea8:	19 f0       	breq	.+6      	; 0x2eb0 <MB_M_Cycle+0x74>
    2eaa:	81 30       	cpi	r24, 0x01	; 1
    2eac:	21 f0       	breq	.+8      	; 0x2eb6 <MB_M_Cycle+0x7a>
    2eae:	0a c0       	rjmp	.+20     	; 0x2ec4 <MB_M_Cycle+0x88>
    2eb0:	81 2f       	mov	r24, r17
    2eb2:	3a d8       	rcall	.-3980   	; 0x1f28 <FormQuery>
    2eb4:	07 c0       	rjmp	.+14     	; 0x2ec4 <MB_M_Cycle+0x88>
    2eb6:	c0 57       	subi	r28, 0x70	; 112
    2eb8:	da 4f       	sbci	r29, 0xFA	; 250
    2eba:	88 81       	ld	r24, Y
    2ebc:	81 11       	cpse	r24, r1
    2ebe:	02 c0       	rjmp	.+4      	; 0x2ec4 <MB_M_Cycle+0x88>
    2ec0:	81 2f       	mov	r24, r17
    2ec2:	7c d8       	rcall	.-3848   	; 0x1fbc <FormSingle>
    2ec4:	80 91 8b 05 	lds	r24, 0x058B
    2ec8:	6f ef       	ldi	r22, 0xFF	; 255
    2eca:	7f ef       	ldi	r23, 0xFF	; 255
    2ecc:	81 0f       	add	r24, r17
    2ece:	0e 94 e6 07 	call	0xfcc	; 0xfcc <StartTimer16>
    2ed2:	f8 94       	cli
    2ed4:	81 2f       	mov	r24, r17
    2ed6:	0e 94 26 0d 	call	0x1a4c	; 0x1a4c <MB_Transm>
    2eda:	78 94       	sei
    2edc:	2e c0       	rjmp	.+92     	; 0x2f3a <MB_M_Cycle+0xfe>
    2ede:	f8 94       	cli
    2ee0:	84 e1       	ldi	r24, 0x14	; 20
    2ee2:	8c 9f       	mul	r24, r28
    2ee4:	f0 01       	movw	r30, r0
    2ee6:	8d 9f       	mul	r24, r29
    2ee8:	f0 0d       	add	r31, r0
    2eea:	11 24       	eor	r1, r1
    2eec:	e6 50       	subi	r30, 0x06	; 6
    2eee:	fb 4f       	sbci	r31, 0xFB	; 251
    2ef0:	25 91       	lpm	r18, Z+
    2ef2:	34 91       	lpm	r19, Z
    2ef4:	f9 01       	movw	r30, r18
    2ef6:	19 95       	eicall
    2ef8:	78 94       	sei
    2efa:	c9 56       	subi	r28, 0x69	; 105
    2efc:	d7 4f       	sbci	r29, 0xF7	; 247
    2efe:	88 81       	ld	r24, Y
    2f00:	88 23       	and	r24, r24
    2f02:	19 f0       	breq	.+6      	; 0x2f0a <MB_M_Cycle+0xce>
    2f04:	81 30       	cpi	r24, 0x01	; 1
    2f06:	21 f0       	breq	.+8      	; 0x2f10 <MB_M_Cycle+0xd4>
    2f08:	0c c0       	rjmp	.+24     	; 0x2f22 <MB_M_Cycle+0xe6>
    2f0a:	81 2f       	mov	r24, r17
    2f0c:	0d d8       	rcall	.-4070   	; 0x1f28 <FormQuery>
    2f0e:	09 c0       	rjmp	.+18     	; 0x2f22 <MB_M_Cycle+0xe6>
    2f10:	80 91 91 05 	lds	r24, 0x0591
    2f14:	88 23       	and	r24, r24
    2f16:	19 f0       	breq	.+6      	; 0x2f1e <MB_M_Cycle+0xe2>
    2f18:	81 2f       	mov	r24, r17
    2f1a:	06 d8       	rcall	.-4084   	; 0x1f28 <FormQuery>
    2f1c:	02 c0       	rjmp	.+4      	; 0x2f22 <MB_M_Cycle+0xe6>
    2f1e:	81 2f       	mov	r24, r17
    2f20:	4d d8       	rcall	.-3942   	; 0x1fbc <FormSingle>
    2f22:	80 91 8b 05 	lds	r24, 0x058B
    2f26:	6f ef       	ldi	r22, 0xFF	; 255
    2f28:	7f ef       	ldi	r23, 0xFF	; 255
    2f2a:	81 0f       	add	r24, r17
    2f2c:	0e 94 e6 07 	call	0xfcc	; 0xfcc <StartTimer16>
    2f30:	f8 94       	cli
    2f32:	81 2f       	mov	r24, r17
    2f34:	0e 94 26 0d 	call	0x1a4c	; 0x1a4c <MB_Transm>
    2f38:	78 94       	sei
    2f3a:	df 91       	pop	r29
    2f3c:	cf 91       	pop	r28
    2f3e:	1f 91       	pop	r17
    2f40:	08 95       	ret

00002f42 <MB_Cycle>:
    2f42:	80 91 e0 10 	lds	r24, 0x10E0
    2f46:	80 ff       	sbrs	r24, 0
    2f48:	14 c0       	rjmp	.+40     	; 0x2f72 <MB_Cycle+0x30>
    2f4a:	f8 94       	cli
    2f4c:	80 91 e0 10 	lds	r24, 0x10E0
    2f50:	8e 7f       	andi	r24, 0xFE	; 254
    2f52:	80 93 e0 10 	sts	0x10E0, r24
    2f56:	78 94       	sei
    2f58:	eb e2       	ldi	r30, 0x2B	; 43
    2f5a:	f5 e0       	ldi	r31, 0x05	; 5
    2f5c:	e4 91       	lpm	r30, Z
    2f5e:	ee 23       	and	r30, r30
    2f60:	19 f0       	breq	.+6      	; 0x2f68 <MB_Cycle+0x26>
    2f62:	e1 30       	cpi	r30, 0x01	; 1
    2f64:	21 f0       	breq	.+8      	; 0x2f6e <MB_Cycle+0x2c>
    2f66:	05 c0       	rjmp	.+10     	; 0x2f72 <MB_Cycle+0x30>
    2f68:	80 e0       	ldi	r24, 0x00	; 0
    2f6a:	53 d8       	rcall	.-3930   	; 0x2012 <MB_S_Timer_ISR>
    2f6c:	02 c0       	rjmp	.+4      	; 0x2f72 <MB_Cycle+0x30>
    2f6e:	80 e0       	ldi	r24, 0x00	; 0
    2f70:	03 dc       	rcall	.-2042   	; 0x2778 <MB_M_Timer_ISR>
    2f72:	eb e2       	ldi	r30, 0x2B	; 43
    2f74:	f5 e0       	ldi	r31, 0x05	; 5
    2f76:	e4 91       	lpm	r30, Z
    2f78:	e1 30       	cpi	r30, 0x01	; 1
    2f7a:	11 f4       	brne	.+4      	; 0x2f80 <MB_Cycle+0x3e>
    2f7c:	80 e0       	ldi	r24, 0x00	; 0
    2f7e:	5e cf       	rjmp	.-324    	; 0x2e3c <MB_M_Cycle>
    2f80:	08 95       	ret

00002f82 <__vector_25>:
    2f82:	1f 92       	push	r1
    2f84:	0f 92       	push	r0
    2f86:	0f b6       	in	r0, 0x3f	; 63
    2f88:	0f 92       	push	r0
    2f8a:	11 24       	eor	r1, r1
    2f8c:	0b b6       	in	r0, 0x3b	; 59
    2f8e:	0f 92       	push	r0
    2f90:	2f 93       	push	r18
    2f92:	3f 93       	push	r19
    2f94:	4f 93       	push	r20
    2f96:	5f 93       	push	r21
    2f98:	6f 93       	push	r22
    2f9a:	7f 93       	push	r23
    2f9c:	8f 93       	push	r24
    2f9e:	9f 93       	push	r25
    2fa0:	af 93       	push	r26
    2fa2:	bf 93       	push	r27
    2fa4:	ef 93       	push	r30
    2fa6:	ff 93       	push	r31
    2fa8:	86 ec       	ldi	r24, 0xC6	; 198
    2faa:	90 e0       	ldi	r25, 0x00	; 0
    2fac:	0e 94 68 0d 	call	0x1ad0	; 0x1ad0 <Modbus_RX>
    2fb0:	ff 91       	pop	r31
    2fb2:	ef 91       	pop	r30
    2fb4:	bf 91       	pop	r27
    2fb6:	af 91       	pop	r26
    2fb8:	9f 91       	pop	r25
    2fba:	8f 91       	pop	r24
    2fbc:	7f 91       	pop	r23
    2fbe:	6f 91       	pop	r22
    2fc0:	5f 91       	pop	r21
    2fc2:	4f 91       	pop	r20
    2fc4:	3f 91       	pop	r19
    2fc6:	2f 91       	pop	r18
    2fc8:	0f 90       	pop	r0
    2fca:	0b be       	out	0x3b, r0	; 59
    2fcc:	0f 90       	pop	r0
    2fce:	0f be       	out	0x3f, r0	; 63
    2fd0:	0f 90       	pop	r0
    2fd2:	1f 90       	pop	r1
    2fd4:	18 95       	reti

00002fd6 <__vector_27>:
    2fd6:	1f 92       	push	r1
    2fd8:	0f 92       	push	r0
    2fda:	0f b6       	in	r0, 0x3f	; 63
    2fdc:	0f 92       	push	r0
    2fde:	11 24       	eor	r1, r1
    2fe0:	0b b6       	in	r0, 0x3b	; 59
    2fe2:	0f 92       	push	r0
    2fe4:	2f 93       	push	r18
    2fe6:	3f 93       	push	r19
    2fe8:	4f 93       	push	r20
    2fea:	5f 93       	push	r21
    2fec:	6f 93       	push	r22
    2fee:	7f 93       	push	r23
    2ff0:	8f 93       	push	r24
    2ff2:	9f 93       	push	r25
    2ff4:	af 93       	push	r26
    2ff6:	bf 93       	push	r27
    2ff8:	ef 93       	push	r30
    2ffa:	ff 93       	push	r31
    2ffc:	86 ec       	ldi	r24, 0xC6	; 198
    2ffe:	90 e0       	ldi	r25, 0x00	; 0
    3000:	84 de       	rcall	.-760    	; 0x2d0a <Modbus_TX>
    3002:	ff 91       	pop	r31
    3004:	ef 91       	pop	r30
    3006:	bf 91       	pop	r27
    3008:	af 91       	pop	r26
    300a:	9f 91       	pop	r25
    300c:	8f 91       	pop	r24
    300e:	7f 91       	pop	r23
    3010:	6f 91       	pop	r22
    3012:	5f 91       	pop	r21
    3014:	4f 91       	pop	r20
    3016:	3f 91       	pop	r19
    3018:	2f 91       	pop	r18
    301a:	0f 90       	pop	r0
    301c:	0b be       	out	0x3b, r0	; 59
    301e:	0f 90       	pop	r0
    3020:	0f be       	out	0x3f, r0	; 63
    3022:	0f 90       	pop	r0
    3024:	1f 90       	pop	r1
    3026:	18 95       	reti

00003028 <__vector_26>:
    3028:	1f 92       	push	r1
    302a:	0f 92       	push	r0
    302c:	0f b6       	in	r0, 0x3f	; 63
    302e:	0f 92       	push	r0
    3030:	11 24       	eor	r1, r1
    3032:	0b b6       	in	r0, 0x3b	; 59
    3034:	0f 92       	push	r0
    3036:	2f 93       	push	r18
    3038:	3f 93       	push	r19
    303a:	4f 93       	push	r20
    303c:	5f 93       	push	r21
    303e:	6f 93       	push	r22
    3040:	7f 93       	push	r23
    3042:	8f 93       	push	r24
    3044:	9f 93       	push	r25
    3046:	af 93       	push	r26
    3048:	bf 93       	push	r27
    304a:	ef 93       	push	r30
    304c:	ff 93       	push	r31
    304e:	86 ec       	ldi	r24, 0xC6	; 198
    3050:	90 e0       	ldi	r25, 0x00	; 0
    3052:	5b de       	rcall	.-842    	; 0x2d0a <Modbus_TX>
    3054:	ff 91       	pop	r31
    3056:	ef 91       	pop	r30
    3058:	bf 91       	pop	r27
    305a:	af 91       	pop	r26
    305c:	9f 91       	pop	r25
    305e:	8f 91       	pop	r24
    3060:	7f 91       	pop	r23
    3062:	6f 91       	pop	r22
    3064:	5f 91       	pop	r21
    3066:	4f 91       	pop	r20
    3068:	3f 91       	pop	r19
    306a:	2f 91       	pop	r18
    306c:	0f 90       	pop	r0
    306e:	0b be       	out	0x3b, r0	; 59
    3070:	0f 90       	pop	r0
    3072:	0f be       	out	0x3f, r0	; 63
    3074:	0f 90       	pop	r0
    3076:	1f 90       	pop	r1
    3078:	18 95       	reti

0000307a <__vector_36>:
    307a:	1f 92       	push	r1
    307c:	0f 92       	push	r0
    307e:	0f b6       	in	r0, 0x3f	; 63
    3080:	0f 92       	push	r0
    3082:	11 24       	eor	r1, r1
    3084:	0b b6       	in	r0, 0x3b	; 59
    3086:	0f 92       	push	r0
    3088:	2f 93       	push	r18
    308a:	3f 93       	push	r19
    308c:	4f 93       	push	r20
    308e:	5f 93       	push	r21
    3090:	6f 93       	push	r22
    3092:	7f 93       	push	r23
    3094:	8f 93       	push	r24
    3096:	9f 93       	push	r25
    3098:	af 93       	push	r26
    309a:	bf 93       	push	r27
    309c:	ef 93       	push	r30
    309e:	ff 93       	push	r31
    30a0:	8e ec       	ldi	r24, 0xCE	; 206
    30a2:	90 e0       	ldi	r25, 0x00	; 0
    30a4:	0e 94 68 0d 	call	0x1ad0	; 0x1ad0 <Modbus_RX>
    30a8:	ff 91       	pop	r31
    30aa:	ef 91       	pop	r30
    30ac:	bf 91       	pop	r27
    30ae:	af 91       	pop	r26
    30b0:	9f 91       	pop	r25
    30b2:	8f 91       	pop	r24
    30b4:	7f 91       	pop	r23
    30b6:	6f 91       	pop	r22
    30b8:	5f 91       	pop	r21
    30ba:	4f 91       	pop	r20
    30bc:	3f 91       	pop	r19
    30be:	2f 91       	pop	r18
    30c0:	0f 90       	pop	r0
    30c2:	0b be       	out	0x3b, r0	; 59
    30c4:	0f 90       	pop	r0
    30c6:	0f be       	out	0x3f, r0	; 63
    30c8:	0f 90       	pop	r0
    30ca:	1f 90       	pop	r1
    30cc:	18 95       	reti

000030ce <__vector_38>:
    30ce:	1f 92       	push	r1
    30d0:	0f 92       	push	r0
    30d2:	0f b6       	in	r0, 0x3f	; 63
    30d4:	0f 92       	push	r0
    30d6:	11 24       	eor	r1, r1
    30d8:	0b b6       	in	r0, 0x3b	; 59
    30da:	0f 92       	push	r0
    30dc:	2f 93       	push	r18
    30de:	3f 93       	push	r19
    30e0:	4f 93       	push	r20
    30e2:	5f 93       	push	r21
    30e4:	6f 93       	push	r22
    30e6:	7f 93       	push	r23
    30e8:	8f 93       	push	r24
    30ea:	9f 93       	push	r25
    30ec:	af 93       	push	r26
    30ee:	bf 93       	push	r27
    30f0:	ef 93       	push	r30
    30f2:	ff 93       	push	r31
    30f4:	8e ec       	ldi	r24, 0xCE	; 206
    30f6:	90 e0       	ldi	r25, 0x00	; 0
    30f8:	08 de       	rcall	.-1008   	; 0x2d0a <Modbus_TX>
    30fa:	ff 91       	pop	r31
    30fc:	ef 91       	pop	r30
    30fe:	bf 91       	pop	r27
    3100:	af 91       	pop	r26
    3102:	9f 91       	pop	r25
    3104:	8f 91       	pop	r24
    3106:	7f 91       	pop	r23
    3108:	6f 91       	pop	r22
    310a:	5f 91       	pop	r21
    310c:	4f 91       	pop	r20
    310e:	3f 91       	pop	r19
    3110:	2f 91       	pop	r18
    3112:	0f 90       	pop	r0
    3114:	0b be       	out	0x3b, r0	; 59
    3116:	0f 90       	pop	r0
    3118:	0f be       	out	0x3f, r0	; 63
    311a:	0f 90       	pop	r0
    311c:	1f 90       	pop	r1
    311e:	18 95       	reti

00003120 <__vector_37>:
    3120:	1f 92       	push	r1
    3122:	0f 92       	push	r0
    3124:	0f b6       	in	r0, 0x3f	; 63
    3126:	0f 92       	push	r0
    3128:	11 24       	eor	r1, r1
    312a:	0b b6       	in	r0, 0x3b	; 59
    312c:	0f 92       	push	r0
    312e:	2f 93       	push	r18
    3130:	3f 93       	push	r19
    3132:	4f 93       	push	r20
    3134:	5f 93       	push	r21
    3136:	6f 93       	push	r22
    3138:	7f 93       	push	r23
    313a:	8f 93       	push	r24
    313c:	9f 93       	push	r25
    313e:	af 93       	push	r26
    3140:	bf 93       	push	r27
    3142:	ef 93       	push	r30
    3144:	ff 93       	push	r31
    3146:	8e ec       	ldi	r24, 0xCE	; 206
    3148:	90 e0       	ldi	r25, 0x00	; 0
    314a:	df dd       	rcall	.-1090   	; 0x2d0a <Modbus_TX>
    314c:	ff 91       	pop	r31
    314e:	ef 91       	pop	r30
    3150:	bf 91       	pop	r27
    3152:	af 91       	pop	r26
    3154:	9f 91       	pop	r25
    3156:	8f 91       	pop	r24
    3158:	7f 91       	pop	r23
    315a:	6f 91       	pop	r22
    315c:	5f 91       	pop	r21
    315e:	4f 91       	pop	r20
    3160:	3f 91       	pop	r19
    3162:	2f 91       	pop	r18
    3164:	0f 90       	pop	r0
    3166:	0b be       	out	0x3b, r0	; 59
    3168:	0f 90       	pop	r0
    316a:	0f be       	out	0x3f, r0	; 63
    316c:	0f 90       	pop	r0
    316e:	1f 90       	pop	r1
    3170:	18 95       	reti

00003172 <UDPbegin0_Automat>:
    3172:	1f 93       	push	r17
    3174:	cf 93       	push	r28
    3176:	df 93       	push	r29
    3178:	d6 2f       	mov	r29, r22
    317a:	17 2f       	mov	r17, r23
    317c:	c0 91 76 05 	lds	r28, 0x0576
    3180:	88 23       	and	r24, r24
    3182:	31 f0       	breq	.+12     	; 0x3190 <UDPbegin0_Automat+0x1e>
    3184:	c1 30       	cpi	r28, 0x01	; 1
    3186:	51 f0       	breq	.+20     	; 0x319c <UDPbegin0_Automat+0x2a>
    3188:	18 f0       	brcs	.+6      	; 0x3190 <UDPbegin0_Automat+0x1e>
    318a:	c2 30       	cpi	r28, 0x02	; 2
    318c:	29 f1       	breq	.+74     	; 0x31d8 <UDPbegin0_Automat+0x66>
    318e:	2d c0       	rjmp	.+90     	; 0x31ea <UDPbegin0_Automat+0x78>
    3190:	81 e0       	ldi	r24, 0x01	; 1
    3192:	80 93 76 05 	sts	0x0576, r24
    3196:	c1 30       	cpi	r28, 0x01	; 1
    3198:	89 f5       	brne	.+98     	; 0x31fc <UDPbegin0_Automat+0x8a>
    319a:	39 c0       	rjmp	.+114    	; 0x320e <UDPbegin0_Automat+0x9c>
    319c:	60 e1       	ldi	r22, 0x10	; 16
    319e:	81 e0       	ldi	r24, 0x01	; 1
    31a0:	0e 94 cd 05 	call	0xb9a	; 0xb9a <execCmdS0_Automat>
    31a4:	8f 3f       	cpi	r24, 0xFF	; 255
    31a6:	09 f5       	brne	.+66     	; 0x31ea <UDPbegin0_Automat+0x78>
    31a8:	6f ef       	ldi	r22, 0xFF	; 255
    31aa:	82 e0       	ldi	r24, 0x02	; 2
    31ac:	94 e0       	ldi	r25, 0x04	; 4
    31ae:	0e 94 e6 04 	call	0x9cc	; 0x9cc <W5100write>
    31b2:	62 e0       	ldi	r22, 0x02	; 2
    31b4:	80 e0       	ldi	r24, 0x00	; 0
    31b6:	94 e0       	ldi	r25, 0x04	; 4
    31b8:	0e 94 e6 04 	call	0x9cc	; 0x9cc <W5100write>
    31bc:	61 2f       	mov	r22, r17
    31be:	84 e0       	ldi	r24, 0x04	; 4
    31c0:	94 e0       	ldi	r25, 0x04	; 4
    31c2:	0e 94 e6 04 	call	0x9cc	; 0x9cc <W5100write>
    31c6:	6d 2f       	mov	r22, r29
    31c8:	85 e0       	ldi	r24, 0x05	; 5
    31ca:	94 e0       	ldi	r25, 0x04	; 4
    31cc:	0e 94 e6 04 	call	0x9cc	; 0x9cc <W5100write>
    31d0:	82 e0       	ldi	r24, 0x02	; 2
    31d2:	80 93 76 05 	sts	0x0576, r24
    31d6:	17 c0       	rjmp	.+46     	; 0x3206 <UDPbegin0_Automat+0x94>
    31d8:	61 e0       	ldi	r22, 0x01	; 1
    31da:	81 e0       	ldi	r24, 0x01	; 1
    31dc:	0e 94 cd 05 	call	0xb9a	; 0xb9a <execCmdS0_Automat>
    31e0:	8f 3f       	cpi	r24, 0xFF	; 255
    31e2:	19 f4       	brne	.+6      	; 0x31ea <UDPbegin0_Automat+0x78>
    31e4:	80 93 76 05 	sts	0x0576, r24
    31e8:	12 c0       	rjmp	.+36     	; 0x320e <UDPbegin0_Automat+0x9c>
    31ea:	80 91 76 05 	lds	r24, 0x0576
    31ee:	8c 17       	cp	r24, r28
    31f0:	71 f0       	breq	.+28     	; 0x320e <UDPbegin0_Automat+0x9c>
    31f2:	81 30       	cpi	r24, 0x01	; 1
    31f4:	19 f0       	breq	.+6      	; 0x31fc <UDPbegin0_Automat+0x8a>
    31f6:	82 30       	cpi	r24, 0x02	; 2
    31f8:	31 f0       	breq	.+12     	; 0x3206 <UDPbegin0_Automat+0x94>
    31fa:	09 c0       	rjmp	.+18     	; 0x320e <UDPbegin0_Automat+0x9c>
    31fc:	60 e0       	ldi	r22, 0x00	; 0
    31fe:	80 e0       	ldi	r24, 0x00	; 0
    3200:	0e 94 cd 05 	call	0xb9a	; 0xb9a <execCmdS0_Automat>
    3204:	04 c0       	rjmp	.+8      	; 0x320e <UDPbegin0_Automat+0x9c>
    3206:	60 e0       	ldi	r22, 0x00	; 0
    3208:	80 e0       	ldi	r24, 0x00	; 0
    320a:	0e 94 cd 05 	call	0xb9a	; 0xb9a <execCmdS0_Automat>
    320e:	80 91 76 05 	lds	r24, 0x0576
    3212:	df 91       	pop	r29
    3214:	cf 91       	pop	r28
    3216:	1f 91       	pop	r17
    3218:	08 95       	ret

0000321a <UDPbegin1_Automat>:
    321a:	1f 93       	push	r17
    321c:	cf 93       	push	r28
    321e:	df 93       	push	r29
    3220:	d6 2f       	mov	r29, r22
    3222:	17 2f       	mov	r17, r23
    3224:	c0 91 75 05 	lds	r28, 0x0575
    3228:	88 23       	and	r24, r24
    322a:	31 f0       	breq	.+12     	; 0x3238 <UDPbegin1_Automat+0x1e>
    322c:	c1 30       	cpi	r28, 0x01	; 1
    322e:	51 f0       	breq	.+20     	; 0x3244 <UDPbegin1_Automat+0x2a>
    3230:	18 f0       	brcs	.+6      	; 0x3238 <UDPbegin1_Automat+0x1e>
    3232:	c2 30       	cpi	r28, 0x02	; 2
    3234:	29 f1       	breq	.+74     	; 0x3280 <UDPbegin1_Automat+0x66>
    3236:	2d c0       	rjmp	.+90     	; 0x3292 <UDPbegin1_Automat+0x78>
    3238:	81 e0       	ldi	r24, 0x01	; 1
    323a:	80 93 75 05 	sts	0x0575, r24
    323e:	c1 30       	cpi	r28, 0x01	; 1
    3240:	89 f5       	brne	.+98     	; 0x32a4 <UDPbegin1_Automat+0x8a>
    3242:	39 c0       	rjmp	.+114    	; 0x32b6 <UDPbegin1_Automat+0x9c>
    3244:	60 e1       	ldi	r22, 0x10	; 16
    3246:	81 e0       	ldi	r24, 0x01	; 1
    3248:	0e 94 fe 05 	call	0xbfc	; 0xbfc <execCmdS1_Automat>
    324c:	8f 3f       	cpi	r24, 0xFF	; 255
    324e:	09 f5       	brne	.+66     	; 0x3292 <UDPbegin1_Automat+0x78>
    3250:	6f ef       	ldi	r22, 0xFF	; 255
    3252:	82 e0       	ldi	r24, 0x02	; 2
    3254:	95 e0       	ldi	r25, 0x05	; 5
    3256:	0e 94 e6 04 	call	0x9cc	; 0x9cc <W5100write>
    325a:	62 e0       	ldi	r22, 0x02	; 2
    325c:	80 e0       	ldi	r24, 0x00	; 0
    325e:	95 e0       	ldi	r25, 0x05	; 5
    3260:	0e 94 e6 04 	call	0x9cc	; 0x9cc <W5100write>
    3264:	61 2f       	mov	r22, r17
    3266:	84 e0       	ldi	r24, 0x04	; 4
    3268:	95 e0       	ldi	r25, 0x05	; 5
    326a:	0e 94 e6 04 	call	0x9cc	; 0x9cc <W5100write>
    326e:	6d 2f       	mov	r22, r29
    3270:	85 e0       	ldi	r24, 0x05	; 5
    3272:	95 e0       	ldi	r25, 0x05	; 5
    3274:	0e 94 e6 04 	call	0x9cc	; 0x9cc <W5100write>
    3278:	82 e0       	ldi	r24, 0x02	; 2
    327a:	80 93 75 05 	sts	0x0575, r24
    327e:	17 c0       	rjmp	.+46     	; 0x32ae <UDPbegin1_Automat+0x94>
    3280:	61 e0       	ldi	r22, 0x01	; 1
    3282:	81 e0       	ldi	r24, 0x01	; 1
    3284:	0e 94 fe 05 	call	0xbfc	; 0xbfc <execCmdS1_Automat>
    3288:	8f 3f       	cpi	r24, 0xFF	; 255
    328a:	19 f4       	brne	.+6      	; 0x3292 <UDPbegin1_Automat+0x78>
    328c:	80 93 75 05 	sts	0x0575, r24
    3290:	12 c0       	rjmp	.+36     	; 0x32b6 <UDPbegin1_Automat+0x9c>
    3292:	80 91 75 05 	lds	r24, 0x0575
    3296:	8c 17       	cp	r24, r28
    3298:	71 f0       	breq	.+28     	; 0x32b6 <UDPbegin1_Automat+0x9c>
    329a:	81 30       	cpi	r24, 0x01	; 1
    329c:	19 f0       	breq	.+6      	; 0x32a4 <UDPbegin1_Automat+0x8a>
    329e:	82 30       	cpi	r24, 0x02	; 2
    32a0:	31 f0       	breq	.+12     	; 0x32ae <UDPbegin1_Automat+0x94>
    32a2:	09 c0       	rjmp	.+18     	; 0x32b6 <UDPbegin1_Automat+0x9c>
    32a4:	60 e0       	ldi	r22, 0x00	; 0
    32a6:	80 e0       	ldi	r24, 0x00	; 0
    32a8:	0e 94 fe 05 	call	0xbfc	; 0xbfc <execCmdS1_Automat>
    32ac:	04 c0       	rjmp	.+8      	; 0x32b6 <UDPbegin1_Automat+0x9c>
    32ae:	60 e0       	ldi	r22, 0x00	; 0
    32b0:	80 e0       	ldi	r24, 0x00	; 0
    32b2:	0e 94 fe 05 	call	0xbfc	; 0xbfc <execCmdS1_Automat>
    32b6:	80 91 75 05 	lds	r24, 0x0575
    32ba:	df 91       	pop	r29
    32bc:	cf 91       	pop	r28
    32be:	1f 91       	pop	r17
    32c0:	08 95       	ret

000032c2 <startUDP>:
    32c2:	cf 93       	push	r28
    32c4:	df 93       	push	r29
    32c6:	ea 01       	movw	r28, r20
    32c8:	fb 01       	movw	r30, r22
    32ca:	90 81       	ld	r25, Z
    32cc:	91 11       	cpse	r25, r1
    32ce:	09 c0       	rjmp	.+18     	; 0x32e2 <startUDP+0x20>
    32d0:	91 81       	ldd	r25, Z+1	; 0x01
    32d2:	91 11       	cpse	r25, r1
    32d4:	06 c0       	rjmp	.+12     	; 0x32e2 <startUDP+0x20>
    32d6:	92 81       	ldd	r25, Z+2	; 0x02
    32d8:	91 11       	cpse	r25, r1
    32da:	03 c0       	rjmp	.+6      	; 0x32e2 <startUDP+0x20>
    32dc:	93 81       	ldd	r25, Z+3	; 0x03
    32de:	99 23       	and	r25, r25
    32e0:	19 f1       	breq	.+70     	; 0x3328 <startUDP+0x66>
    32e2:	20 97       	sbiw	r28, 0x00	; 0
    32e4:	21 f1       	breq	.+72     	; 0x332e <startUDP+0x6c>
    32e6:	81 11       	cpse	r24, r1
    32e8:	09 c0       	rjmp	.+18     	; 0x32fc <startUDP+0x3a>
    32ea:	cb 01       	movw	r24, r22
    32ec:	0e 94 6c 06 	call	0xcd8	; 0xcd8 <W5100_writeS0DIPR>
    32f0:	ce 01       	movw	r24, r28
    32f2:	0e 94 60 06 	call	0xcc0	; 0xcc0 <W5100_writeS0DPORT>
    32f6:	81 e0       	ldi	r24, 0x01	; 1
    32f8:	90 e0       	ldi	r25, 0x00	; 0
    32fa:	1e c0       	rjmp	.+60     	; 0x3338 <startUDP+0x76>
    32fc:	81 30       	cpi	r24, 0x01	; 1
    32fe:	49 f4       	brne	.+18     	; 0x3312 <startUDP+0x50>
    3300:	cb 01       	movw	r24, r22
    3302:	0e 94 8e 06 	call	0xd1c	; 0xd1c <W5100_writeS1DIPR>
    3306:	ce 01       	movw	r24, r28
    3308:	0e 94 82 06 	call	0xd04	; 0xd04 <W5100_writeS1DPORT>
    330c:	81 e0       	ldi	r24, 0x01	; 1
    330e:	90 e0       	ldi	r25, 0x00	; 0
    3310:	13 c0       	rjmp	.+38     	; 0x3338 <startUDP+0x76>
    3312:	82 30       	cpi	r24, 0x02	; 2
    3314:	79 f4       	brne	.+30     	; 0x3334 <startUDP+0x72>
    3316:	cb 01       	movw	r24, r22
    3318:	0e 94 b0 06 	call	0xd60	; 0xd60 <W5100_writeS2DIPR>
    331c:	ce 01       	movw	r24, r28
    331e:	0e 94 a4 06 	call	0xd48	; 0xd48 <W5100_writeS2DPORT>
    3322:	81 e0       	ldi	r24, 0x01	; 1
    3324:	90 e0       	ldi	r25, 0x00	; 0
    3326:	08 c0       	rjmp	.+16     	; 0x3338 <startUDP+0x76>
    3328:	80 e0       	ldi	r24, 0x00	; 0
    332a:	90 e0       	ldi	r25, 0x00	; 0
    332c:	05 c0       	rjmp	.+10     	; 0x3338 <startUDP+0x76>
    332e:	80 e0       	ldi	r24, 0x00	; 0
    3330:	90 e0       	ldi	r25, 0x00	; 0
    3332:	02 c0       	rjmp	.+4      	; 0x3338 <startUDP+0x76>
    3334:	81 e0       	ldi	r24, 0x01	; 1
    3336:	90 e0       	ldi	r25, 0x00	; 0
    3338:	df 91       	pop	r29
    333a:	cf 91       	pop	r28
    333c:	08 95       	ret

0000333e <_dhcpUdpSocket_beginPacket>:
    333e:	ab 01       	movw	r20, r22
    3340:	10 92 18 11 	sts	0x1118, r1
    3344:	10 92 17 11 	sts	0x1117, r1
    3348:	bc 01       	movw	r22, r24
    334a:	80 e0       	ldi	r24, 0x00	; 0
    334c:	ba cf       	rjmp	.-140    	; 0x32c2 <startUDP>
    334e:	08 95       	ret

00003350 <_UDPtoSerialSocket_beginPacket>:
    3350:	ab 01       	movw	r20, r22
    3352:	10 92 6d 08 	sts	0x086D, r1
    3356:	10 92 6c 08 	sts	0x086C, r1
    335a:	bc 01       	movw	r22, r24
    335c:	81 e0       	ldi	r24, 0x01	; 1
    335e:	b1 cf       	rjmp	.-158    	; 0x32c2 <startUDP>
    3360:	08 95       	ret

00003362 <_dhcpUdpSocket_write>:
    3362:	9b 01       	movw	r18, r22
    3364:	60 91 17 11 	lds	r22, 0x1117
    3368:	70 91 18 11 	lds	r23, 0x1118
    336c:	ac 01       	movw	r20, r24
    336e:	80 e0       	ldi	r24, 0x00	; 0
    3370:	0e 94 4d 07 	call	0xe9a	; 0xe9a <bufferData>
    3374:	20 91 17 11 	lds	r18, 0x1117
    3378:	30 91 18 11 	lds	r19, 0x1118
    337c:	28 0f       	add	r18, r24
    337e:	39 1f       	adc	r19, r25
    3380:	30 93 18 11 	sts	0x1118, r19
    3384:	20 93 17 11 	sts	0x1117, r18
    3388:	08 95       	ret

0000338a <_UDPtoSerialSocket_write>:
    338a:	9b 01       	movw	r18, r22
    338c:	60 91 6c 08 	lds	r22, 0x086C
    3390:	70 91 6d 08 	lds	r23, 0x086D
    3394:	ac 01       	movw	r20, r24
    3396:	81 e0       	ldi	r24, 0x01	; 1
    3398:	0e 94 4d 07 	call	0xe9a	; 0xe9a <bufferData>
    339c:	20 91 6c 08 	lds	r18, 0x086C
    33a0:	30 91 6d 08 	lds	r19, 0x086D
    33a4:	28 0f       	add	r18, r24
    33a6:	39 1f       	adc	r19, r25
    33a8:	30 93 6d 08 	sts	0x086D, r19
    33ac:	20 93 6c 08 	sts	0x086C, r18
    33b0:	08 95       	ret

000033b2 <_UDPtoSerialSocket_endPacket_Automat>:
    33b2:	cf 93       	push	r28
    33b4:	c0 91 74 05 	lds	r28, 0x0574
    33b8:	88 23       	and	r24, r24
    33ba:	31 f0       	breq	.+12     	; 0x33c8 <_UDPtoSerialSocket_endPacket_Automat+0x16>
    33bc:	c1 30       	cpi	r28, 0x01	; 1
    33be:	51 f0       	breq	.+20     	; 0x33d4 <_UDPtoSerialSocket_endPacket_Automat+0x22>
    33c0:	18 f0       	brcs	.+6      	; 0x33c8 <_UDPtoSerialSocket_endPacket_Automat+0x16>
    33c2:	c2 30       	cpi	r28, 0x02	; 2
    33c4:	89 f0       	breq	.+34     	; 0x33e8 <_UDPtoSerialSocket_endPacket_Automat+0x36>
    33c6:	2e c0       	rjmp	.+92     	; 0x3424 <_UDPtoSerialSocket_endPacket_Automat+0x72>
    33c8:	81 e0       	ldi	r24, 0x01	; 1
    33ca:	80 93 74 05 	sts	0x0574, r24
    33ce:	c1 30       	cpi	r28, 0x01	; 1
    33d0:	79 f5       	brne	.+94     	; 0x3430 <_UDPtoSerialSocket_endPacket_Automat+0x7e>
    33d2:	32 c0       	rjmp	.+100    	; 0x3438 <_UDPtoSerialSocket_endPacket_Automat+0x86>
    33d4:	60 e2       	ldi	r22, 0x20	; 32
    33d6:	81 e0       	ldi	r24, 0x01	; 1
    33d8:	0e 94 fe 05 	call	0xbfc	; 0xbfc <execCmdS1_Automat>
    33dc:	8f 3f       	cpi	r24, 0xFF	; 255
    33de:	11 f5       	brne	.+68     	; 0x3424 <_UDPtoSerialSocket_endPacket_Automat+0x72>
    33e0:	82 e0       	ldi	r24, 0x02	; 2
    33e2:	80 93 74 05 	sts	0x0574, r24
    33e6:	28 c0       	rjmp	.+80     	; 0x3438 <_UDPtoSerialSocket_endPacket_Automat+0x86>
    33e8:	62 e0       	ldi	r22, 0x02	; 2
    33ea:	70 e0       	ldi	r23, 0x00	; 0
    33ec:	81 e0       	ldi	r24, 0x01	; 1
    33ee:	0e 94 8f 05 	call	0xb1e	; 0xb1e <readSn>
    33f2:	84 fd       	sbrc	r24, 4
    33f4:	0d c0       	rjmp	.+26     	; 0x3410 <_UDPtoSerialSocket_endPacket_Automat+0x5e>
    33f6:	62 e0       	ldi	r22, 0x02	; 2
    33f8:	70 e0       	ldi	r23, 0x00	; 0
    33fa:	81 e0       	ldi	r24, 0x01	; 1
    33fc:	0e 94 8f 05 	call	0xb1e	; 0xb1e <readSn>
    3400:	83 ff       	sbrs	r24, 3
    3402:	10 c0       	rjmp	.+32     	; 0x3424 <_UDPtoSerialSocket_endPacket_Automat+0x72>
    3404:	48 e1       	ldi	r20, 0x18	; 24
    3406:	62 e0       	ldi	r22, 0x02	; 2
    3408:	70 e0       	ldi	r23, 0x00	; 0
    340a:	81 e0       	ldi	r24, 0x01	; 1
    340c:	0e 94 c3 05 	call	0xb86	; 0xb86 <writeSn>
    3410:	40 e1       	ldi	r20, 0x10	; 16
    3412:	62 e0       	ldi	r22, 0x02	; 2
    3414:	70 e0       	ldi	r23, 0x00	; 0
    3416:	81 e0       	ldi	r24, 0x01	; 1
    3418:	0e 94 c3 05 	call	0xb86	; 0xb86 <writeSn>
    341c:	8f ef       	ldi	r24, 0xFF	; 255
    341e:	80 93 74 05 	sts	0x0574, r24
    3422:	0a c0       	rjmp	.+20     	; 0x3438 <_UDPtoSerialSocket_endPacket_Automat+0x86>
    3424:	80 91 74 05 	lds	r24, 0x0574
    3428:	8c 17       	cp	r24, r28
    342a:	31 f0       	breq	.+12     	; 0x3438 <_UDPtoSerialSocket_endPacket_Automat+0x86>
    342c:	81 30       	cpi	r24, 0x01	; 1
    342e:	21 f4       	brne	.+8      	; 0x3438 <_UDPtoSerialSocket_endPacket_Automat+0x86>
    3430:	60 e2       	ldi	r22, 0x20	; 32
    3432:	80 e0       	ldi	r24, 0x00	; 0
    3434:	0e 94 fe 05 	call	0xbfc	; 0xbfc <execCmdS1_Automat>
    3438:	80 91 74 05 	lds	r24, 0x0574
    343c:	cf 91       	pop	r28
    343e:	08 95       	ret

00003440 <_dhcpUdpSocket_endPacket_Automat>:
    3440:	cf 93       	push	r28
    3442:	c0 91 73 05 	lds	r28, 0x0573
    3446:	88 23       	and	r24, r24
    3448:	31 f0       	breq	.+12     	; 0x3456 <_dhcpUdpSocket_endPacket_Automat+0x16>
    344a:	c1 30       	cpi	r28, 0x01	; 1
    344c:	51 f0       	breq	.+20     	; 0x3462 <_dhcpUdpSocket_endPacket_Automat+0x22>
    344e:	18 f0       	brcs	.+6      	; 0x3456 <_dhcpUdpSocket_endPacket_Automat+0x16>
    3450:	c2 30       	cpi	r28, 0x02	; 2
    3452:	89 f0       	breq	.+34     	; 0x3476 <_dhcpUdpSocket_endPacket_Automat+0x36>
    3454:	2e c0       	rjmp	.+92     	; 0x34b2 <_dhcpUdpSocket_endPacket_Automat+0x72>
    3456:	81 e0       	ldi	r24, 0x01	; 1
    3458:	80 93 73 05 	sts	0x0573, r24
    345c:	c1 30       	cpi	r28, 0x01	; 1
    345e:	79 f5       	brne	.+94     	; 0x34be <_dhcpUdpSocket_endPacket_Automat+0x7e>
    3460:	32 c0       	rjmp	.+100    	; 0x34c6 <_dhcpUdpSocket_endPacket_Automat+0x86>
    3462:	60 e2       	ldi	r22, 0x20	; 32
    3464:	81 e0       	ldi	r24, 0x01	; 1
    3466:	0e 94 cd 05 	call	0xb9a	; 0xb9a <execCmdS0_Automat>
    346a:	8f 3f       	cpi	r24, 0xFF	; 255
    346c:	11 f5       	brne	.+68     	; 0x34b2 <_dhcpUdpSocket_endPacket_Automat+0x72>
    346e:	82 e0       	ldi	r24, 0x02	; 2
    3470:	80 93 73 05 	sts	0x0573, r24
    3474:	28 c0       	rjmp	.+80     	; 0x34c6 <_dhcpUdpSocket_endPacket_Automat+0x86>
    3476:	62 e0       	ldi	r22, 0x02	; 2
    3478:	70 e0       	ldi	r23, 0x00	; 0
    347a:	80 e0       	ldi	r24, 0x00	; 0
    347c:	0e 94 8f 05 	call	0xb1e	; 0xb1e <readSn>
    3480:	84 fd       	sbrc	r24, 4
    3482:	0d c0       	rjmp	.+26     	; 0x349e <_dhcpUdpSocket_endPacket_Automat+0x5e>
    3484:	62 e0       	ldi	r22, 0x02	; 2
    3486:	70 e0       	ldi	r23, 0x00	; 0
    3488:	80 e0       	ldi	r24, 0x00	; 0
    348a:	0e 94 8f 05 	call	0xb1e	; 0xb1e <readSn>
    348e:	83 ff       	sbrs	r24, 3
    3490:	10 c0       	rjmp	.+32     	; 0x34b2 <_dhcpUdpSocket_endPacket_Automat+0x72>
    3492:	48 e1       	ldi	r20, 0x18	; 24
    3494:	62 e0       	ldi	r22, 0x02	; 2
    3496:	70 e0       	ldi	r23, 0x00	; 0
    3498:	80 e0       	ldi	r24, 0x00	; 0
    349a:	0e 94 c3 05 	call	0xb86	; 0xb86 <writeSn>
    349e:	40 e1       	ldi	r20, 0x10	; 16
    34a0:	62 e0       	ldi	r22, 0x02	; 2
    34a2:	70 e0       	ldi	r23, 0x00	; 0
    34a4:	80 e0       	ldi	r24, 0x00	; 0
    34a6:	0e 94 c3 05 	call	0xb86	; 0xb86 <writeSn>
    34aa:	8f ef       	ldi	r24, 0xFF	; 255
    34ac:	80 93 73 05 	sts	0x0573, r24
    34b0:	0a c0       	rjmp	.+20     	; 0x34c6 <_dhcpUdpSocket_endPacket_Automat+0x86>
    34b2:	80 91 73 05 	lds	r24, 0x0573
    34b6:	8c 17       	cp	r24, r28
    34b8:	31 f0       	breq	.+12     	; 0x34c6 <_dhcpUdpSocket_endPacket_Automat+0x86>
    34ba:	81 30       	cpi	r24, 0x01	; 1
    34bc:	21 f4       	brne	.+8      	; 0x34c6 <_dhcpUdpSocket_endPacket_Automat+0x86>
    34be:	60 e2       	ldi	r22, 0x20	; 32
    34c0:	80 e0       	ldi	r24, 0x00	; 0
    34c2:	0e 94 cd 05 	call	0xb9a	; 0xb9a <execCmdS0_Automat>
    34c6:	80 91 73 05 	lds	r24, 0x0573
    34ca:	cf 91       	pop	r28
    34cc:	08 95       	ret

000034ce <UDPbegin2_Automat>:
    34ce:	1f 93       	push	r17
    34d0:	cf 93       	push	r28
    34d2:	df 93       	push	r29
    34d4:	d6 2f       	mov	r29, r22
    34d6:	17 2f       	mov	r17, r23
    34d8:	c0 91 72 05 	lds	r28, 0x0572
    34dc:	88 23       	and	r24, r24
    34de:	31 f0       	breq	.+12     	; 0x34ec <UDPbegin2_Automat+0x1e>
    34e0:	c1 30       	cpi	r28, 0x01	; 1
    34e2:	51 f0       	breq	.+20     	; 0x34f8 <UDPbegin2_Automat+0x2a>
    34e4:	18 f0       	brcs	.+6      	; 0x34ec <UDPbegin2_Automat+0x1e>
    34e6:	c2 30       	cpi	r28, 0x02	; 2
    34e8:	29 f1       	breq	.+74     	; 0x3534 <UDPbegin2_Automat+0x66>
    34ea:	2d c0       	rjmp	.+90     	; 0x3546 <UDPbegin2_Automat+0x78>
    34ec:	81 e0       	ldi	r24, 0x01	; 1
    34ee:	80 93 72 05 	sts	0x0572, r24
    34f2:	c1 30       	cpi	r28, 0x01	; 1
    34f4:	89 f5       	brne	.+98     	; 0x3558 <UDPbegin2_Automat+0x8a>
    34f6:	39 c0       	rjmp	.+114    	; 0x356a <UDPbegin2_Automat+0x9c>
    34f8:	60 e1       	ldi	r22, 0x10	; 16
    34fa:	81 e0       	ldi	r24, 0x01	; 1
    34fc:	0e 94 2f 06 	call	0xc5e	; 0xc5e <execCmdS2_Automat>
    3500:	8f 3f       	cpi	r24, 0xFF	; 255
    3502:	09 f5       	brne	.+66     	; 0x3546 <UDPbegin2_Automat+0x78>
    3504:	6f ef       	ldi	r22, 0xFF	; 255
    3506:	82 e0       	ldi	r24, 0x02	; 2
    3508:	96 e0       	ldi	r25, 0x06	; 6
    350a:	0e 94 e6 04 	call	0x9cc	; 0x9cc <W5100write>
    350e:	62 e0       	ldi	r22, 0x02	; 2
    3510:	80 e0       	ldi	r24, 0x00	; 0
    3512:	96 e0       	ldi	r25, 0x06	; 6
    3514:	0e 94 e6 04 	call	0x9cc	; 0x9cc <W5100write>
    3518:	61 2f       	mov	r22, r17
    351a:	84 e0       	ldi	r24, 0x04	; 4
    351c:	96 e0       	ldi	r25, 0x06	; 6
    351e:	0e 94 e6 04 	call	0x9cc	; 0x9cc <W5100write>
    3522:	6d 2f       	mov	r22, r29
    3524:	85 e0       	ldi	r24, 0x05	; 5
    3526:	96 e0       	ldi	r25, 0x06	; 6
    3528:	0e 94 e6 04 	call	0x9cc	; 0x9cc <W5100write>
    352c:	82 e0       	ldi	r24, 0x02	; 2
    352e:	80 93 72 05 	sts	0x0572, r24
    3532:	17 c0       	rjmp	.+46     	; 0x3562 <UDPbegin2_Automat+0x94>
    3534:	61 e0       	ldi	r22, 0x01	; 1
    3536:	81 e0       	ldi	r24, 0x01	; 1
    3538:	0e 94 2f 06 	call	0xc5e	; 0xc5e <execCmdS2_Automat>
    353c:	8f 3f       	cpi	r24, 0xFF	; 255
    353e:	19 f4       	brne	.+6      	; 0x3546 <UDPbegin2_Automat+0x78>
    3540:	80 93 72 05 	sts	0x0572, r24
    3544:	12 c0       	rjmp	.+36     	; 0x356a <UDPbegin2_Automat+0x9c>
    3546:	80 91 72 05 	lds	r24, 0x0572
    354a:	8c 17       	cp	r24, r28
    354c:	71 f0       	breq	.+28     	; 0x356a <UDPbegin2_Automat+0x9c>
    354e:	81 30       	cpi	r24, 0x01	; 1
    3550:	19 f0       	breq	.+6      	; 0x3558 <UDPbegin2_Automat+0x8a>
    3552:	82 30       	cpi	r24, 0x02	; 2
    3554:	31 f0       	breq	.+12     	; 0x3562 <UDPbegin2_Automat+0x94>
    3556:	09 c0       	rjmp	.+18     	; 0x356a <UDPbegin2_Automat+0x9c>
    3558:	60 e1       	ldi	r22, 0x10	; 16
    355a:	80 e0       	ldi	r24, 0x00	; 0
    355c:	0e 94 2f 06 	call	0xc5e	; 0xc5e <execCmdS2_Automat>
    3560:	04 c0       	rjmp	.+8      	; 0x356a <UDPbegin2_Automat+0x9c>
    3562:	61 e0       	ldi	r22, 0x01	; 1
    3564:	80 e0       	ldi	r24, 0x00	; 0
    3566:	0e 94 2f 06 	call	0xc5e	; 0xc5e <execCmdS2_Automat>
    356a:	80 91 72 05 	lds	r24, 0x0572
    356e:	df 91       	pop	r29
    3570:	cf 91       	pop	r28
    3572:	1f 91       	pop	r17
    3574:	08 95       	ret

00003576 <_Socket2_beginPacket>:
    3576:	ab 01       	movw	r20, r22
    3578:	10 92 ec 09 	sts	0x09EC, r1
    357c:	10 92 eb 09 	sts	0x09EB, r1
    3580:	bc 01       	movw	r22, r24
    3582:	82 e0       	ldi	r24, 0x02	; 2
    3584:	9e ce       	rjmp	.-708    	; 0x32c2 <startUDP>
    3586:	08 95       	ret

00003588 <_Socket2_write>:
    3588:	9b 01       	movw	r18, r22
    358a:	60 91 eb 09 	lds	r22, 0x09EB
    358e:	70 91 ec 09 	lds	r23, 0x09EC
    3592:	ac 01       	movw	r20, r24
    3594:	82 e0       	ldi	r24, 0x02	; 2
    3596:	0e 94 4d 07 	call	0xe9a	; 0xe9a <bufferData>
    359a:	20 91 eb 09 	lds	r18, 0x09EB
    359e:	30 91 ec 09 	lds	r19, 0x09EC
    35a2:	28 0f       	add	r18, r24
    35a4:	39 1f       	adc	r19, r25
    35a6:	30 93 ec 09 	sts	0x09EC, r19
    35aa:	20 93 eb 09 	sts	0x09EB, r18
    35ae:	08 95       	ret

000035b0 <read_data>:
    35b0:	af 92       	push	r10
    35b2:	bf 92       	push	r11
    35b4:	cf 92       	push	r12
    35b6:	df 92       	push	r13
    35b8:	ef 92       	push	r14
    35ba:	ff 92       	push	r15
    35bc:	0f 93       	push	r16
    35be:	1f 93       	push	r17
    35c0:	cf 93       	push	r28
    35c2:	df 93       	push	r29
    35c4:	1f 92       	push	r1
    35c6:	1f 92       	push	r1
    35c8:	cd b7       	in	r28, 0x3d	; 61
    35ca:	de b7       	in	r29, 0x3e	; 62
    35cc:	7a 83       	std	Y+2, r23	; 0x02
    35ce:	69 83       	std	Y+1, r22	; 0x01
    35d0:	7a 01       	movw	r14, r20
    35d2:	89 01       	movw	r16, r18
    35d4:	e9 81       	ldd	r30, Y+1	; 0x01
    35d6:	fa 81       	ldd	r31, Y+2	; 0x02
    35d8:	f7 70       	andi	r31, 0x07	; 7
    35da:	c8 2e       	mov	r12, r24
    35dc:	d1 2c       	mov	r13, r1
    35de:	d6 01       	movw	r26, r12
    35e0:	aa 0f       	add	r26, r26
    35e2:	bb 1f       	adc	r27, r27
    35e4:	ac 59       	subi	r26, 0x9C	; 156
    35e6:	b7 4f       	sbci	r27, 0xF7	; 247
    35e8:	8d 91       	ld	r24, X+
    35ea:	9c 91       	ld	r25, X
    35ec:	8e 0f       	add	r24, r30
    35ee:	9f 1f       	adc	r25, r31
    35f0:	2e 0f       	add	r18, r30
    35f2:	3f 1f       	adc	r19, r31
    35f4:	21 30       	cpi	r18, 0x01	; 1
    35f6:	38 40       	sbci	r19, 0x08	; 8
    35f8:	c8 f0       	brcs	.+50     	; 0x362c <read_data+0x7c>
    35fa:	20 e0       	ldi	r18, 0x00	; 0
    35fc:	38 e0       	ldi	r19, 0x08	; 8
    35fe:	59 01       	movw	r10, r18
    3600:	ae 1a       	sub	r10, r30
    3602:	bf 0a       	sbc	r11, r31
    3604:	a5 01       	movw	r20, r10
    3606:	b7 01       	movw	r22, r14
    3608:	0e 94 fd 03 	call	0x7fa	; 0x7fa <W5100readBlock>
    360c:	a8 01       	movw	r20, r16
    360e:	4a 19       	sub	r20, r10
    3610:	5b 09       	sbc	r21, r11
    3612:	b7 01       	movw	r22, r14
    3614:	6a 0d       	add	r22, r10
    3616:	7b 1d       	adc	r23, r11
    3618:	f6 01       	movw	r30, r12
    361a:	ee 0f       	add	r30, r30
    361c:	ff 1f       	adc	r31, r31
    361e:	ec 59       	subi	r30, 0x9C	; 156
    3620:	f7 4f       	sbci	r31, 0xF7	; 247
    3622:	80 81       	ld	r24, Z
    3624:	91 81       	ldd	r25, Z+1	; 0x01
    3626:	0e 94 fd 03 	call	0x7fa	; 0x7fa <W5100readBlock>
    362a:	04 c0       	rjmp	.+8      	; 0x3634 <read_data+0x84>
    362c:	a8 01       	movw	r20, r16
    362e:	b7 01       	movw	r22, r14
    3630:	0e 94 fd 03 	call	0x7fa	; 0x7fa <W5100readBlock>
    3634:	0f 90       	pop	r0
    3636:	0f 90       	pop	r0
    3638:	df 91       	pop	r29
    363a:	cf 91       	pop	r28
    363c:	1f 91       	pop	r17
    363e:	0f 91       	pop	r16
    3640:	ff 90       	pop	r15
    3642:	ef 90       	pop	r14
    3644:	df 90       	pop	r13
    3646:	cf 90       	pop	r12
    3648:	bf 90       	pop	r11
    364a:	af 90       	pop	r10
    364c:	08 95       	ret

0000364e <W5100_recv_data_processing>:
    364e:	df 92       	push	r13
    3650:	ef 92       	push	r14
    3652:	ff 92       	push	r15
    3654:	0f 93       	push	r16
    3656:	1f 93       	push	r17
    3658:	cf 93       	push	r28
    365a:	df 93       	push	r29
    365c:	d8 2e       	mov	r13, r24
    365e:	7b 01       	movw	r14, r22
    3660:	8a 01       	movw	r16, r20
    3662:	68 e2       	ldi	r22, 0x28	; 40
    3664:	70 e0       	ldi	r23, 0x00	; 0
    3666:	0e 94 8f 05 	call	0xb1e	; 0xb1e <readSn>
    366a:	c8 2f       	mov	r28, r24
    366c:	d0 e0       	ldi	r29, 0x00	; 0
    366e:	69 e2       	ldi	r22, 0x29	; 41
    3670:	70 e0       	ldi	r23, 0x00	; 0
    3672:	8d 2d       	mov	r24, r13
    3674:	0e 94 8f 05 	call	0xb1e	; 0xb1e <readSn>
    3678:	dc 2f       	mov	r29, r28
    367a:	cc 27       	eor	r28, r28
    367c:	c8 2b       	or	r28, r24
    367e:	98 01       	movw	r18, r16
    3680:	a7 01       	movw	r20, r14
    3682:	be 01       	movw	r22, r28
    3684:	8d 2d       	mov	r24, r13
    3686:	94 df       	rcall	.-216    	; 0x35b0 <read_data>
    3688:	c0 0f       	add	r28, r16
    368a:	d1 1f       	adc	r29, r17
    368c:	4d 2f       	mov	r20, r29
    368e:	68 e2       	ldi	r22, 0x28	; 40
    3690:	70 e0       	ldi	r23, 0x00	; 0
    3692:	8d 2d       	mov	r24, r13
    3694:	0e 94 c3 05 	call	0xb86	; 0xb86 <writeSn>
    3698:	4c 2f       	mov	r20, r28
    369a:	69 e2       	ldi	r22, 0x29	; 41
    369c:	70 e0       	ldi	r23, 0x00	; 0
    369e:	8d 2d       	mov	r24, r13
    36a0:	0e 94 c3 05 	call	0xb86	; 0xb86 <writeSn>
    36a4:	df 91       	pop	r29
    36a6:	cf 91       	pop	r28
    36a8:	1f 91       	pop	r17
    36aa:	0f 91       	pop	r16
    36ac:	ff 90       	pop	r15
    36ae:	ef 90       	pop	r14
    36b0:	df 90       	pop	r13
    36b2:	08 95       	ret

000036b4 <W5100_getRXReceivedSize>:
    36b4:	df 92       	push	r13
    36b6:	ef 92       	push	r14
    36b8:	ff 92       	push	r15
    36ba:	0f 93       	push	r16
    36bc:	1f 93       	push	r17
    36be:	cf 93       	push	r28
    36c0:	df 93       	push	r29
    36c2:	d8 2e       	mov	r13, r24
    36c4:	0f ef       	ldi	r16, 0xFF	; 255
    36c6:	1f ef       	ldi	r17, 0xFF	; 255
    36c8:	e1 2c       	mov	r14, r1
    36ca:	f1 2c       	mov	r15, r1
    36cc:	8d 2d       	mov	r24, r13
    36ce:	0e 94 ad 05 	call	0xb5a	; 0xb5a <readSnRX_RSR>
    36d2:	ec 01       	movw	r28, r24
    36d4:	00 97       	sbiw	r24, 0x00	; 0
    36d6:	21 f0       	breq	.+8      	; 0x36e0 <W5100_getRXReceivedSize+0x2c>
    36d8:	8d 2d       	mov	r24, r13
    36da:	0e 94 ad 05 	call	0xb5a	; 0xb5a <readSnRX_RSR>
    36de:	7c 01       	movw	r14, r24
    36e0:	ec 16       	cp	r14, r28
    36e2:	fd 06       	cpc	r15, r29
    36e4:	29 f0       	breq	.+10     	; 0x36f0 <W5100_getRXReceivedSize+0x3c>
    36e6:	01 50       	subi	r16, 0x01	; 1
    36e8:	11 09       	sbc	r17, r1
    36ea:	01 15       	cp	r16, r1
    36ec:	11 05       	cpc	r17, r1
    36ee:	71 f7       	brne	.-36     	; 0x36cc <W5100_getRXReceivedSize+0x18>
    36f0:	c7 01       	movw	r24, r14
    36f2:	df 91       	pop	r29
    36f4:	cf 91       	pop	r28
    36f6:	1f 91       	pop	r17
    36f8:	0f 91       	pop	r16
    36fa:	ff 90       	pop	r15
    36fc:	ef 90       	pop	r14
    36fe:	df 90       	pop	r13
    3700:	08 95       	ret

00003702 <recv>:
    3702:	df 92       	push	r13
    3704:	ef 92       	push	r14
    3706:	ff 92       	push	r15
    3708:	0f 93       	push	r16
    370a:	1f 93       	push	r17
    370c:	cf 93       	push	r28
    370e:	df 93       	push	r29
    3710:	d8 2e       	mov	r13, r24
    3712:	7b 01       	movw	r14, r22
    3714:	8a 01       	movw	r16, r20
    3716:	ce df       	rcall	.-100    	; 0x36b4 <W5100_getRXReceivedSize>
    3718:	ec 01       	movw	r28, r24
    371a:	00 97       	sbiw	r24, 0x00	; 0
    371c:	99 f4       	brne	.+38     	; 0x3744 <recv+0x42>
    371e:	63 e0       	ldi	r22, 0x03	; 3
    3720:	70 e0       	ldi	r23, 0x00	; 0
    3722:	8d 2d       	mov	r24, r13
    3724:	0e 94 8f 05 	call	0xb1e	; 0xb1e <readSn>
    3728:	84 31       	cpi	r24, 0x14	; 20
    372a:	d9 f0       	breq	.+54     	; 0x3762 <recv+0x60>
    372c:	88 23       	and	r24, r24
    372e:	c9 f0       	breq	.+50     	; 0x3762 <recv+0x60>
    3730:	c1 e0       	ldi	r28, 0x01	; 1
    3732:	d0 e0       	ldi	r29, 0x00	; 0
    3734:	8c 31       	cpi	r24, 0x1C	; 28
    3736:	11 f4       	brne	.+4      	; 0x373c <recv+0x3a>
    3738:	c0 e0       	ldi	r28, 0x00	; 0
    373a:	d0 e0       	ldi	r29, 0x00	; 0
    373c:	d1 95       	neg	r29
    373e:	c1 95       	neg	r28
    3740:	d1 09       	sbc	r29, r1
    3742:	04 c0       	rjmp	.+8      	; 0x374c <recv+0x4a>
    3744:	08 17       	cp	r16, r24
    3746:	19 07       	cpc	r17, r25
    3748:	0c f4       	brge	.+2      	; 0x374c <recv+0x4a>
    374a:	e8 01       	movw	r28, r16
    374c:	1c 16       	cp	r1, r28
    374e:	1d 06       	cpc	r1, r29
    3750:	44 f4       	brge	.+16     	; 0x3762 <recv+0x60>
    3752:	ae 01       	movw	r20, r28
    3754:	b7 01       	movw	r22, r14
    3756:	8d 2d       	mov	r24, r13
    3758:	7a df       	rcall	.-268    	; 0x364e <W5100_recv_data_processing>
    375a:	60 e4       	ldi	r22, 0x40	; 64
    375c:	8d 2d       	mov	r24, r13
    375e:	0e 94 ff 04 	call	0x9fe	; 0x9fe <execCmdSn>
    3762:	ce 01       	movw	r24, r28
    3764:	df 91       	pop	r29
    3766:	cf 91       	pop	r28
    3768:	1f 91       	pop	r17
    376a:	0f 91       	pop	r16
    376c:	ff 90       	pop	r15
    376e:	ef 90       	pop	r14
    3770:	df 90       	pop	r13
    3772:	08 95       	ret

00003774 <UDP_read>:
    3774:	0f 93       	push	r16
    3776:	1f 93       	push	r17
    3778:	cf 93       	push	r28
    377a:	df 93       	push	r29
    377c:	1f 92       	push	r1
    377e:	cd b7       	in	r28, 0x3d	; 61
    3780:	de b7       	in	r29, 0x3e	; 62
    3782:	08 2f       	mov	r16, r24
    3784:	10 e0       	ldi	r17, 0x00	; 0
    3786:	f8 01       	movw	r30, r16
    3788:	ee 0f       	add	r30, r30
    378a:	ff 1f       	adc	r31, r31
    378c:	e3 55       	subi	r30, 0x53	; 83
    378e:	f7 4f       	sbci	r31, 0xF7	; 247
    3790:	20 81       	ld	r18, Z
    3792:	31 81       	ldd	r19, Z+1	; 0x01
    3794:	23 2b       	or	r18, r19
    3796:	b1 f0       	breq	.+44     	; 0x37c4 <UDP_read+0x50>
    3798:	41 e0       	ldi	r20, 0x01	; 1
    379a:	50 e0       	ldi	r21, 0x00	; 0
    379c:	be 01       	movw	r22, r28
    379e:	6f 5f       	subi	r22, 0xFF	; 255
    37a0:	7f 4f       	sbci	r23, 0xFF	; 255
    37a2:	af df       	rcall	.-162    	; 0x3702 <recv>
    37a4:	18 16       	cp	r1, r24
    37a6:	19 06       	cpc	r1, r25
    37a8:	84 f4       	brge	.+32     	; 0x37ca <UDP_read+0x56>
    37aa:	f8 01       	movw	r30, r16
    37ac:	ee 0f       	add	r30, r30
    37ae:	ff 1f       	adc	r31, r31
    37b0:	e3 55       	subi	r30, 0x53	; 83
    37b2:	f7 4f       	sbci	r31, 0xF7	; 247
    37b4:	80 81       	ld	r24, Z
    37b6:	91 81       	ldd	r25, Z+1	; 0x01
    37b8:	01 97       	sbiw	r24, 0x01	; 1
    37ba:	91 83       	std	Z+1, r25	; 0x01
    37bc:	80 83       	st	Z, r24
    37be:	89 81       	ldd	r24, Y+1	; 0x01
    37c0:	90 e0       	ldi	r25, 0x00	; 0
    37c2:	05 c0       	rjmp	.+10     	; 0x37ce <UDP_read+0x5a>
    37c4:	8f ef       	ldi	r24, 0xFF	; 255
    37c6:	9f ef       	ldi	r25, 0xFF	; 255
    37c8:	02 c0       	rjmp	.+4      	; 0x37ce <UDP_read+0x5a>
    37ca:	8f ef       	ldi	r24, 0xFF	; 255
    37cc:	9f ef       	ldi	r25, 0xFF	; 255
    37ce:	0f 90       	pop	r0
    37d0:	df 91       	pop	r29
    37d2:	cf 91       	pop	r28
    37d4:	1f 91       	pop	r17
    37d6:	0f 91       	pop	r16
    37d8:	08 95       	ret

000037da <UDP_parsePacket>:
    37da:	df 92       	push	r13
    37dc:	ef 92       	push	r14
    37de:	ff 92       	push	r15
    37e0:	0f 93       	push	r16
    37e2:	1f 93       	push	r17
    37e4:	cf 93       	push	r28
    37e6:	df 93       	push	r29
    37e8:	cd b7       	in	r28, 0x3d	; 61
    37ea:	de b7       	in	r29, 0x3e	; 62
    37ec:	28 97       	sbiw	r28, 0x08	; 8
    37ee:	0f b6       	in	r0, 0x3f	; 63
    37f0:	f8 94       	cli
    37f2:	de bf       	out	0x3e, r29	; 62
    37f4:	0f be       	out	0x3f, r0	; 63
    37f6:	cd bf       	out	0x3d, r28	; 61
    37f8:	d8 2e       	mov	r13, r24
    37fa:	e8 2e       	mov	r14, r24
    37fc:	f1 2c       	mov	r15, r1
    37fe:	f7 01       	movw	r30, r14
    3800:	ee 0f       	add	r30, r30
    3802:	ff 1f       	adc	r31, r31
    3804:	e3 55       	subi	r30, 0x53	; 83
    3806:	f7 4f       	sbci	r31, 0xF7	; 247
    3808:	20 81       	ld	r18, Z
    380a:	31 81       	ldd	r19, Z+1	; 0x01
    380c:	23 2b       	or	r18, r19
    380e:	41 f0       	breq	.+16     	; 0x3820 <UDP_parsePacket+0x46>
    3810:	8f 01       	movw	r16, r30
    3812:	8d 2d       	mov	r24, r13
    3814:	af df       	rcall	.-162    	; 0x3774 <UDP_read>
    3816:	f8 01       	movw	r30, r16
    3818:	20 81       	ld	r18, Z
    381a:	31 81       	ldd	r19, Z+1	; 0x01
    381c:	23 2b       	or	r18, r19
    381e:	c9 f7       	brne	.-14     	; 0x3812 <UDP_parsePacket+0x38>
    3820:	8d 2d       	mov	r24, r13
    3822:	48 df       	rcall	.-368    	; 0x36b4 <W5100_getRXReceivedSize>
    3824:	18 16       	cp	r1, r24
    3826:	19 06       	cpc	r1, r25
    3828:	ac f5       	brge	.+106    	; 0x3894 <UDP_parsePacket+0xba>
    382a:	48 e0       	ldi	r20, 0x08	; 8
    382c:	50 e0       	ldi	r21, 0x00	; 0
    382e:	be 01       	movw	r22, r28
    3830:	6f 5f       	subi	r22, 0xFF	; 255
    3832:	7f 4f       	sbci	r23, 0xFF	; 255
    3834:	8d 2d       	mov	r24, r13
    3836:	65 df       	rcall	.-310    	; 0x3702 <recv>
    3838:	9c 01       	movw	r18, r24
    383a:	18 16       	cp	r1, r24
    383c:	19 06       	cpc	r1, r25
    383e:	3c f5       	brge	.+78     	; 0x388e <UDP_parsePacket+0xb4>
    3840:	89 81       	ldd	r24, Y+1	; 0x01
    3842:	80 93 ed 10 	sts	0x10ED, r24
    3846:	8a 81       	ldd	r24, Y+2	; 0x02
    3848:	80 93 ee 10 	sts	0x10EE, r24
    384c:	8b 81       	ldd	r24, Y+3	; 0x03
    384e:	80 93 ef 10 	sts	0x10EF, r24
    3852:	8c 81       	ldd	r24, Y+4	; 0x04
    3854:	80 93 f0 10 	sts	0x10F0, r24
    3858:	c7 01       	movw	r24, r14
    385a:	88 0f       	add	r24, r24
    385c:	99 1f       	adc	r25, r25
    385e:	fc 01       	movw	r30, r24
    3860:	eb 51       	subi	r30, 0x1B	; 27
    3862:	ff 4e       	sbci	r31, 0xEF	; 239
    3864:	2d 81       	ldd	r18, Y+5	; 0x05
    3866:	30 e0       	ldi	r19, 0x00	; 0
    3868:	32 2f       	mov	r19, r18
    386a:	22 27       	eor	r18, r18
    386c:	4e 81       	ldd	r20, Y+6	; 0x06
    386e:	24 0f       	add	r18, r20
    3870:	31 1d       	adc	r19, r1
    3872:	31 83       	std	Z+1, r19	; 0x01
    3874:	20 83       	st	Z, r18
    3876:	2f 81       	ldd	r18, Y+7	; 0x07
    3878:	30 e0       	ldi	r19, 0x00	; 0
    387a:	32 2f       	mov	r19, r18
    387c:	22 27       	eor	r18, r18
    387e:	48 85       	ldd	r20, Y+8	; 0x08
    3880:	24 0f       	add	r18, r20
    3882:	31 1d       	adc	r19, r1
    3884:	fc 01       	movw	r30, r24
    3886:	e3 55       	subi	r30, 0x53	; 83
    3888:	f7 4f       	sbci	r31, 0xF7	; 247
    388a:	31 83       	std	Z+1, r19	; 0x01
    388c:	20 83       	st	Z, r18
    388e:	82 2f       	mov	r24, r18
    3890:	93 2f       	mov	r25, r19
    3892:	02 c0       	rjmp	.+4      	; 0x3898 <UDP_parsePacket+0xbe>
    3894:	80 e0       	ldi	r24, 0x00	; 0
    3896:	90 e0       	ldi	r25, 0x00	; 0
    3898:	28 96       	adiw	r28, 0x08	; 8
    389a:	0f b6       	in	r0, 0x3f	; 63
    389c:	f8 94       	cli
    389e:	de bf       	out	0x3e, r29	; 62
    38a0:	0f be       	out	0x3f, r0	; 63
    38a2:	cd bf       	out	0x3d, r28	; 61
    38a4:	df 91       	pop	r29
    38a6:	cf 91       	pop	r28
    38a8:	1f 91       	pop	r17
    38aa:	0f 91       	pop	r16
    38ac:	ff 90       	pop	r15
    38ae:	ef 90       	pop	r14
    38b0:	df 90       	pop	r13
    38b2:	08 95       	ret

000038b4 <_dhcpUdpSocket_parsePacket>:
    38b4:	80 e0       	ldi	r24, 0x00	; 0
    38b6:	91 cf       	rjmp	.-222    	; 0x37da <UDP_parsePacket>
    38b8:	08 95       	ret

000038ba <_UDPtoSerialSocket_parsePacket>:
    38ba:	81 e0       	ldi	r24, 0x01	; 1
    38bc:	8e cf       	rjmp	.-228    	; 0x37da <UDP_parsePacket>
    38be:	08 95       	ret

000038c0 <_dhcpUdpSocket_readBlock>:
    38c0:	40 91 ad 08 	lds	r20, 0x08AD
    38c4:	50 91 ae 08 	lds	r21, 0x08AE
    38c8:	41 15       	cp	r20, r1
    38ca:	51 05       	cpc	r21, r1
    38cc:	d9 f0       	breq	.+54     	; 0x3904 <_dhcpUdpSocket_readBlock+0x44>
    38ce:	64 17       	cp	r22, r20
    38d0:	75 07       	cpc	r23, r21
    38d2:	28 f0       	brcs	.+10     	; 0x38de <_dhcpUdpSocket_readBlock+0x1e>
    38d4:	bc 01       	movw	r22, r24
    38d6:	80 e0       	ldi	r24, 0x00	; 0
    38d8:	14 df       	rcall	.-472    	; 0x3702 <recv>
    38da:	9c 01       	movw	r18, r24
    38dc:	05 c0       	rjmp	.+10     	; 0x38e8 <_dhcpUdpSocket_readBlock+0x28>
    38de:	ab 01       	movw	r20, r22
    38e0:	bc 01       	movw	r22, r24
    38e2:	80 e0       	ldi	r24, 0x00	; 0
    38e4:	0e df       	rcall	.-484    	; 0x3702 <recv>
    38e6:	9c 01       	movw	r18, r24
    38e8:	12 16       	cp	r1, r18
    38ea:	13 06       	cpc	r1, r19
    38ec:	74 f4       	brge	.+28     	; 0x390a <_dhcpUdpSocket_readBlock+0x4a>
    38ee:	ed ea       	ldi	r30, 0xAD	; 173
    38f0:	f8 e0       	ldi	r31, 0x08	; 8
    38f2:	80 81       	ld	r24, Z
    38f4:	91 81       	ldd	r25, Z+1	; 0x01
    38f6:	82 1b       	sub	r24, r18
    38f8:	93 0b       	sbc	r25, r19
    38fa:	91 83       	std	Z+1, r25	; 0x01
    38fc:	80 83       	st	Z, r24
    38fe:	82 2f       	mov	r24, r18
    3900:	93 2f       	mov	r25, r19
    3902:	08 95       	ret
    3904:	8f ef       	ldi	r24, 0xFF	; 255
    3906:	9f ef       	ldi	r25, 0xFF	; 255
    3908:	08 95       	ret
    390a:	8f ef       	ldi	r24, 0xFF	; 255
    390c:	9f ef       	ldi	r25, 0xFF	; 255
    390e:	08 95       	ret

00003910 <_SNMPSocket_read>:
    3910:	40 91 af 08 	lds	r20, 0x08AF
    3914:	50 91 b0 08 	lds	r21, 0x08B0
    3918:	41 15       	cp	r20, r1
    391a:	51 05       	cpc	r21, r1
    391c:	d9 f0       	breq	.+54     	; 0x3954 <_SNMPSocket_read+0x44>
    391e:	64 17       	cp	r22, r20
    3920:	75 07       	cpc	r23, r21
    3922:	28 f0       	brcs	.+10     	; 0x392e <_SNMPSocket_read+0x1e>
    3924:	bc 01       	movw	r22, r24
    3926:	81 e0       	ldi	r24, 0x01	; 1
    3928:	ec de       	rcall	.-552    	; 0x3702 <recv>
    392a:	9c 01       	movw	r18, r24
    392c:	05 c0       	rjmp	.+10     	; 0x3938 <_SNMPSocket_read+0x28>
    392e:	ab 01       	movw	r20, r22
    3930:	bc 01       	movw	r22, r24
    3932:	81 e0       	ldi	r24, 0x01	; 1
    3934:	e6 de       	rcall	.-564    	; 0x3702 <recv>
    3936:	9c 01       	movw	r18, r24
    3938:	12 16       	cp	r1, r18
    393a:	13 06       	cpc	r1, r19
    393c:	74 f4       	brge	.+28     	; 0x395a <_SNMPSocket_read+0x4a>
    393e:	ef ea       	ldi	r30, 0xAF	; 175
    3940:	f8 e0       	ldi	r31, 0x08	; 8
    3942:	80 81       	ld	r24, Z
    3944:	91 81       	ldd	r25, Z+1	; 0x01
    3946:	82 1b       	sub	r24, r18
    3948:	93 0b       	sbc	r25, r19
    394a:	91 83       	std	Z+1, r25	; 0x01
    394c:	80 83       	st	Z, r24
    394e:	82 2f       	mov	r24, r18
    3950:	93 2f       	mov	r25, r19
    3952:	08 95       	ret
    3954:	8f ef       	ldi	r24, 0xFF	; 255
    3956:	9f ef       	ldi	r25, 0xFF	; 255
    3958:	08 95       	ret
    395a:	8f ef       	ldi	r24, 0xFF	; 255
    395c:	9f ef       	ldi	r25, 0xFF	; 255
    395e:	08 95       	ret

00003960 <_dhcpUdpSocket_read>:
    3960:	80 e0       	ldi	r24, 0x00	; 0
    3962:	08 cf       	rjmp	.-496    	; 0x3774 <UDP_read>
    3964:	08 95       	ret

00003966 <resetTEST>:
    3966:	80 91 87 05 	lds	r24, 0x0587
    396a:	90 91 88 05 	lds	r25, 0x0588
    396e:	a0 91 89 05 	lds	r26, 0x0589
    3972:	b0 91 8a 05 	lds	r27, 0x058A
    3976:	01 96       	adiw	r24, 0x01	; 1
    3978:	a1 1d       	adc	r26, r1
    397a:	b1 1d       	adc	r27, r1
    397c:	80 93 87 05 	sts	0x0587, r24
    3980:	90 93 88 05 	sts	0x0588, r25
    3984:	a0 93 89 05 	sts	0x0589, r26
    3988:	b0 93 8a 05 	sts	0x058A, r27
    398c:	80 e0       	ldi	r24, 0x00	; 0
    398e:	a3 c0       	rjmp	.+326    	; 0x3ad6 <TEST_Automat>
    3990:	08 95       	ret

00003992 <_Socket2_endPacket_Automat>:
    3992:	cf 93       	push	r28
    3994:	c0 91 71 05 	lds	r28, 0x0571
    3998:	81 11       	cpse	r24, r1
    399a:	03 c0       	rjmp	.+6      	; 0x39a2 <_Socket2_endPacket_Automat+0x10>
    399c:	10 92 71 05 	sts	0x0571, r1
    39a0:	06 c0       	rjmp	.+12     	; 0x39ae <_Socket2_endPacket_Automat+0x1c>
    39a2:	c1 30       	cpi	r28, 0x01	; 1
    39a4:	99 f0       	breq	.+38     	; 0x39cc <_Socket2_endPacket_Automat+0x3a>
    39a6:	18 f0       	brcs	.+6      	; 0x39ae <_Socket2_endPacket_Automat+0x1c>
    39a8:	c2 30       	cpi	r28, 0x02	; 2
    39aa:	01 f1       	breq	.+64     	; 0x39ec <_Socket2_endPacket_Automat+0x5a>
    39ac:	49 c0       	rjmp	.+146    	; 0x3a40 <_Socket2_endPacket_Automat+0xae>
    39ae:	80 91 70 05 	lds	r24, 0x0570
    39b2:	81 11       	cpse	r24, r1
    39b4:	04 c0       	rjmp	.+8      	; 0x39be <_Socket2_endPacket_Automat+0x2c>
    39b6:	0e 94 a0 07 	call	0xf40	; 0xf40 <Timer16Alloc>
    39ba:	80 93 70 05 	sts	0x0570, r24
    39be:	81 e0       	ldi	r24, 0x01	; 1
    39c0:	80 93 71 05 	sts	0x0571, r24
    39c4:	c1 30       	cpi	r28, 0x01	; 1
    39c6:	09 f0       	breq	.+2      	; 0x39ca <_Socket2_endPacket_Automat+0x38>
    39c8:	41 c0       	rjmp	.+130    	; 0x3a4c <_Socket2_endPacket_Automat+0xba>
    39ca:	44 c0       	rjmp	.+136    	; 0x3a54 <_Socket2_endPacket_Automat+0xc2>
    39cc:	60 e2       	ldi	r22, 0x20	; 32
    39ce:	81 e0       	ldi	r24, 0x01	; 1
    39d0:	0e 94 2f 06 	call	0xc5e	; 0xc5e <execCmdS2_Automat>
    39d4:	8f 3f       	cpi	r24, 0xFF	; 255
    39d6:	a1 f5       	brne	.+104    	; 0x3a40 <_Socket2_endPacket_Automat+0xae>
    39d8:	68 ee       	ldi	r22, 0xE8	; 232
    39da:	73 e0       	ldi	r23, 0x03	; 3
    39dc:	80 91 70 05 	lds	r24, 0x0570
    39e0:	0e 94 e6 07 	call	0xfcc	; 0xfcc <StartTimer16>
    39e4:	82 e0       	ldi	r24, 0x02	; 2
    39e6:	80 93 71 05 	sts	0x0571, r24
    39ea:	34 c0       	rjmp	.+104    	; 0x3a54 <_Socket2_endPacket_Automat+0xc2>
    39ec:	62 e0       	ldi	r22, 0x02	; 2
    39ee:	70 e0       	ldi	r23, 0x00	; 0
    39f0:	82 e0       	ldi	r24, 0x02	; 2
    39f2:	0e 94 8f 05 	call	0xb1e	; 0xb1e <readSn>
    39f6:	84 fd       	sbrc	r24, 4
    39f8:	19 c0       	rjmp	.+50     	; 0x3a2c <_Socket2_endPacket_Automat+0x9a>
    39fa:	62 e0       	ldi	r22, 0x02	; 2
    39fc:	70 e0       	ldi	r23, 0x00	; 0
    39fe:	82 e0       	ldi	r24, 0x02	; 2
    3a00:	0e 94 8f 05 	call	0xb1e	; 0xb1e <readSn>
    3a04:	83 ff       	sbrs	r24, 3
    3a06:	07 c0       	rjmp	.+14     	; 0x3a16 <_Socket2_endPacket_Automat+0x84>
    3a08:	48 e1       	ldi	r20, 0x18	; 24
    3a0a:	62 e0       	ldi	r22, 0x02	; 2
    3a0c:	70 e0       	ldi	r23, 0x00	; 0
    3a0e:	82 e0       	ldi	r24, 0x02	; 2
    3a10:	0e 94 c3 05 	call	0xb86	; 0xb86 <writeSn>
    3a14:	15 c0       	rjmp	.+42     	; 0x3a40 <_Socket2_endPacket_Automat+0xae>
    3a16:	80 91 70 05 	lds	r24, 0x0570
    3a1a:	0e 94 92 09 	call	0x1324	; 0x1324 <Timer16Stopp>
    3a1e:	88 23       	and	r24, r24
    3a20:	79 f0       	breq	.+30     	; 0x3a40 <_Socket2_endPacket_Automat+0xae>
    3a22:	a1 df       	rcall	.-190    	; 0x3966 <resetTEST>
    3a24:	8f ef       	ldi	r24, 0xFF	; 255
    3a26:	80 93 71 05 	sts	0x0571, r24
    3a2a:	14 c0       	rjmp	.+40     	; 0x3a54 <_Socket2_endPacket_Automat+0xc2>
    3a2c:	40 e1       	ldi	r20, 0x10	; 16
    3a2e:	62 e0       	ldi	r22, 0x02	; 2
    3a30:	70 e0       	ldi	r23, 0x00	; 0
    3a32:	82 e0       	ldi	r24, 0x02	; 2
    3a34:	0e 94 c3 05 	call	0xb86	; 0xb86 <writeSn>
    3a38:	8f ef       	ldi	r24, 0xFF	; 255
    3a3a:	80 93 71 05 	sts	0x0571, r24
    3a3e:	0a c0       	rjmp	.+20     	; 0x3a54 <_Socket2_endPacket_Automat+0xc2>
    3a40:	80 91 71 05 	lds	r24, 0x0571
    3a44:	8c 17       	cp	r24, r28
    3a46:	31 f0       	breq	.+12     	; 0x3a54 <_Socket2_endPacket_Automat+0xc2>
    3a48:	81 30       	cpi	r24, 0x01	; 1
    3a4a:	21 f4       	brne	.+8      	; 0x3a54 <_Socket2_endPacket_Automat+0xc2>
    3a4c:	60 e2       	ldi	r22, 0x20	; 32
    3a4e:	80 e0       	ldi	r24, 0x00	; 0
    3a50:	0e 94 2f 06 	call	0xc5e	; 0xc5e <execCmdS2_Automat>
    3a54:	80 91 71 05 	lds	r24, 0x0571
    3a58:	cf 91       	pop	r28
    3a5a:	08 95       	ret

00003a5c <Socket2_sendmessage_Automat>:
    3a5c:	bf 92       	push	r11
    3a5e:	cf 92       	push	r12
    3a60:	df 92       	push	r13
    3a62:	ef 92       	push	r14
    3a64:	ff 92       	push	r15
    3a66:	0f 93       	push	r16
    3a68:	1f 93       	push	r17
    3a6a:	cf 93       	push	r28
    3a6c:	df 93       	push	r29
    3a6e:	7b 01       	movw	r14, r22
    3a70:	6a 01       	movw	r12, r20
    3a72:	e9 01       	movw	r28, r18
    3a74:	b0 90 6f 05 	lds	r11, 0x056F
    3a78:	88 23       	and	r24, r24
    3a7a:	31 f0       	breq	.+12     	; 0x3a88 <Socket2_sendmessage_Automat+0x2c>
    3a7c:	bb 20       	and	r11, r11
    3a7e:	21 f0       	breq	.+8      	; 0x3a88 <Socket2_sendmessage_Automat+0x2c>
    3a80:	81 e0       	ldi	r24, 0x01	; 1
    3a82:	b8 16       	cp	r11, r24
    3a84:	39 f0       	breq	.+14     	; 0x3a94 <Socket2_sendmessage_Automat+0x38>
    3a86:	0d c0       	rjmp	.+26     	; 0x3aa2 <Socket2_sendmessage_Automat+0x46>
    3a88:	81 e0       	ldi	r24, 0x01	; 1
    3a8a:	80 93 6f 05 	sts	0x056F, r24
    3a8e:	b8 12       	cpse	r11, r24
    3a90:	0e c0       	rjmp	.+28     	; 0x3aae <Socket2_sendmessage_Automat+0x52>
    3a92:	15 c0       	rjmp	.+42     	; 0x3abe <Socket2_sendmessage_Automat+0x62>
    3a94:	81 e0       	ldi	r24, 0x01	; 1
    3a96:	7d df       	rcall	.-262    	; 0x3992 <_Socket2_endPacket_Automat>
    3a98:	8f 3f       	cpi	r24, 0xFF	; 255
    3a9a:	19 f4       	brne	.+6      	; 0x3aa2 <Socket2_sendmessage_Automat+0x46>
    3a9c:	80 93 6f 05 	sts	0x056F, r24
    3aa0:	0e c0       	rjmp	.+28     	; 0x3abe <Socket2_sendmessage_Automat+0x62>
    3aa2:	80 91 6f 05 	lds	r24, 0x056F
    3aa6:	8b 15       	cp	r24, r11
    3aa8:	51 f0       	breq	.+20     	; 0x3abe <Socket2_sendmessage_Automat+0x62>
    3aaa:	81 30       	cpi	r24, 0x01	; 1
    3aac:	41 f4       	brne	.+16     	; 0x3abe <Socket2_sendmessage_Automat+0x62>
    3aae:	b6 01       	movw	r22, r12
    3ab0:	c7 01       	movw	r24, r14
    3ab2:	61 dd       	rcall	.-1342   	; 0x3576 <_Socket2_beginPacket>
    3ab4:	b8 01       	movw	r22, r16
    3ab6:	ce 01       	movw	r24, r28
    3ab8:	67 dd       	rcall	.-1330   	; 0x3588 <_Socket2_write>
    3aba:	80 e0       	ldi	r24, 0x00	; 0
    3abc:	6a df       	rcall	.-300    	; 0x3992 <_Socket2_endPacket_Automat>
    3abe:	80 91 6f 05 	lds	r24, 0x056F
    3ac2:	df 91       	pop	r29
    3ac4:	cf 91       	pop	r28
    3ac6:	1f 91       	pop	r17
    3ac8:	0f 91       	pop	r16
    3aca:	ff 90       	pop	r15
    3acc:	ef 90       	pop	r14
    3ace:	df 90       	pop	r13
    3ad0:	cf 90       	pop	r12
    3ad2:	bf 90       	pop	r11
    3ad4:	08 95       	ret

00003ad6 <TEST_Automat>:
    3ad6:	0f 93       	push	r16
    3ad8:	1f 93       	push	r17
    3ada:	cf 93       	push	r28
    3adc:	c0 91 6e 05 	lds	r28, 0x056E
    3ae0:	81 11       	cpse	r24, r1
    3ae2:	03 c0       	rjmp	.+6      	; 0x3aea <TEST_Automat+0x14>
    3ae4:	10 92 6e 05 	sts	0x056E, r1
    3ae8:	08 c0       	rjmp	.+16     	; 0x3afa <TEST_Automat+0x24>
    3aea:	c1 30       	cpi	r28, 0x01	; 1
    3aec:	a9 f0       	breq	.+42     	; 0x3b18 <TEST_Automat+0x42>
    3aee:	28 f0       	brcs	.+10     	; 0x3afa <TEST_Automat+0x24>
    3af0:	c2 30       	cpi	r28, 0x02	; 2
    3af2:	11 f1       	breq	.+68     	; 0x3b38 <TEST_Automat+0x62>
    3af4:	c4 30       	cpi	r28, 0x04	; 4
    3af6:	51 f1       	breq	.+84     	; 0x3b4c <TEST_Automat+0x76>
    3af8:	4b c0       	rjmp	.+150    	; 0x3b90 <TEST_Automat+0xba>
    3afa:	80 91 6d 05 	lds	r24, 0x056D
    3afe:	81 11       	cpse	r24, r1
    3b00:	04 c0       	rjmp	.+8      	; 0x3b0a <TEST_Automat+0x34>
    3b02:	0e 94 a0 07 	call	0xf40	; 0xf40 <Timer16Alloc>
    3b06:	80 93 6d 05 	sts	0x056D, r24
    3b0a:	81 e0       	ldi	r24, 0x01	; 1
    3b0c:	80 93 6e 05 	sts	0x056E, r24
    3b10:	c1 30       	cpi	r28, 0x01	; 1
    3b12:	09 f0       	breq	.+2      	; 0x3b16 <TEST_Automat+0x40>
    3b14:	47 c0       	rjmp	.+142    	; 0x3ba4 <TEST_Automat+0xce>
    3b16:	e5 c0       	rjmp	.+458    	; 0x3ce2 <TEST_Automat+0x20c>
    3b18:	69 ee       	ldi	r22, 0xE9	; 233
    3b1a:	77 e0       	ldi	r23, 0x07	; 7
    3b1c:	81 e0       	ldi	r24, 0x01	; 1
    3b1e:	d7 dc       	rcall	.-1618   	; 0x34ce <UDPbegin2_Automat>
    3b20:	8f 3f       	cpi	r24, 0xFF	; 255
    3b22:	b1 f5       	brne	.+108    	; 0x3b90 <TEST_Automat+0xba>
    3b24:	68 ee       	ldi	r22, 0xE8	; 232
    3b26:	73 e0       	ldi	r23, 0x03	; 3
    3b28:	80 91 6d 05 	lds	r24, 0x056D
    3b2c:	0e 94 e6 07 	call	0xfcc	; 0xfcc <StartTimer16>
    3b30:	82 e0       	ldi	r24, 0x02	; 2
    3b32:	80 93 6e 05 	sts	0x056E, r24
    3b36:	d5 c0       	rjmp	.+426    	; 0x3ce2 <TEST_Automat+0x20c>
    3b38:	80 91 6d 05 	lds	r24, 0x056D
    3b3c:	0e 94 92 09 	call	0x1324	; 0x1324 <Timer16Stopp>
    3b40:	88 23       	and	r24, r24
    3b42:	31 f1       	breq	.+76     	; 0x3b90 <TEST_Automat+0xba>
    3b44:	84 e0       	ldi	r24, 0x04	; 4
    3b46:	80 93 6e 05 	sts	0x056E, r24
    3b4a:	31 c0       	rjmp	.+98     	; 0x3bae <TEST_Automat+0xd8>
    3b4c:	63 e0       	ldi	r22, 0x03	; 3
    3b4e:	70 e0       	ldi	r23, 0x00	; 0
    3b50:	82 e0       	ldi	r24, 0x02	; 2
    3b52:	0e 94 8f 05 	call	0xb1e	; 0xb1e <readSn>
    3b56:	82 32       	cpi	r24, 0x22	; 34
    3b58:	19 f0       	breq	.+6      	; 0x3b60 <TEST_Automat+0x8a>
    3b5a:	10 92 6e 05 	sts	0x056E, r1
    3b5e:	c1 c0       	rjmp	.+386    	; 0x3ce2 <TEST_Automat+0x20c>
    3b60:	40 91 c1 02 	lds	r20, 0x02C1
    3b64:	50 91 c2 02 	lds	r21, 0x02C2
    3b68:	0e e3       	ldi	r16, 0x3E	; 62
    3b6a:	10 e0       	ldi	r17, 0x00	; 0
    3b6c:	22 e8       	ldi	r18, 0x82	; 130
    3b6e:	37 e0       	ldi	r19, 0x07	; 7
    3b70:	63 ec       	ldi	r22, 0xC3	; 195
    3b72:	72 e0       	ldi	r23, 0x02	; 2
    3b74:	81 e0       	ldi	r24, 0x01	; 1
    3b76:	72 df       	rcall	.-284    	; 0x3a5c <Socket2_sendmessage_Automat>
    3b78:	8f 3f       	cpi	r24, 0xFF	; 255
    3b7a:	51 f4       	brne	.+20     	; 0x3b90 <TEST_Automat+0xba>
    3b7c:	68 ee       	ldi	r22, 0xE8	; 232
    3b7e:	73 e0       	ldi	r23, 0x03	; 3
    3b80:	80 91 6d 05 	lds	r24, 0x056D
    3b84:	0e 94 e6 07 	call	0xfcc	; 0xfcc <StartTimer16>
    3b88:	82 e0       	ldi	r24, 0x02	; 2
    3b8a:	80 93 6e 05 	sts	0x056E, r24
    3b8e:	a9 c0       	rjmp	.+338    	; 0x3ce2 <TEST_Automat+0x20c>
    3b90:	80 91 6e 05 	lds	r24, 0x056E
    3b94:	8c 17       	cp	r24, r28
    3b96:	09 f4       	brne	.+2      	; 0x3b9a <TEST_Automat+0xc4>
    3b98:	a4 c0       	rjmp	.+328    	; 0x3ce2 <TEST_Automat+0x20c>
    3b9a:	81 30       	cpi	r24, 0x01	; 1
    3b9c:	19 f0       	breq	.+6      	; 0x3ba4 <TEST_Automat+0xce>
    3b9e:	84 30       	cpi	r24, 0x04	; 4
    3ba0:	31 f0       	breq	.+12     	; 0x3bae <TEST_Automat+0xd8>
    3ba2:	9f c0       	rjmp	.+318    	; 0x3ce2 <TEST_Automat+0x20c>
    3ba4:	69 ee       	ldi	r22, 0xE9	; 233
    3ba6:	77 e0       	ldi	r23, 0x07	; 7
    3ba8:	80 e0       	ldi	r24, 0x00	; 0
    3baa:	91 dc       	rcall	.-1758   	; 0x34ce <UDPbegin2_Automat>
    3bac:	9a c0       	rjmp	.+308    	; 0x3ce2 <TEST_Automat+0x20c>
    3bae:	e2 e8       	ldi	r30, 0x82	; 130
    3bb0:	f7 e0       	ldi	r31, 0x07	; 7
    3bb2:	85 e0       	ldi	r24, 0x05	; 5
    3bb4:	80 83       	st	Z, r24
    3bb6:	81 e0       	ldi	r24, 0x01	; 1
    3bb8:	80 93 83 07 	sts	0x0783, r24
    3bbc:	90 91 bf 02 	lds	r25, 0x02BF
    3bc0:	20 91 c0 02 	lds	r18, 0x02C0
    3bc4:	20 93 84 07 	sts	0x0784, r18
    3bc8:	90 93 85 07 	sts	0x0785, r25
    3bcc:	80 93 86 07 	sts	0x0786, r24
    3bd0:	82 e0       	ldi	r24, 0x02	; 2
    3bd2:	80 93 87 07 	sts	0x0787, r24
    3bd6:	83 e1       	ldi	r24, 0x13	; 19
    3bd8:	80 93 88 07 	sts	0x0788, r24
    3bdc:	86 e3       	ldi	r24, 0x36	; 54
    3bde:	80 93 89 07 	sts	0x0789, r24
    3be2:	80 91 6e 08 	lds	r24, 0x086E
    3be6:	80 93 8a 07 	sts	0x078A, r24
    3bea:	80 91 6f 08 	lds	r24, 0x086F
    3bee:	80 93 8b 07 	sts	0x078B, r24
    3bf2:	80 91 70 08 	lds	r24, 0x0870
    3bf6:	80 93 8c 07 	sts	0x078C, r24
    3bfa:	80 91 71 08 	lds	r24, 0x0871
    3bfe:	80 93 8d 07 	sts	0x078D, r24
    3c02:	87 e5       	ldi	r24, 0x57	; 87
    3c04:	80 93 8e 07 	sts	0x078E, r24
    3c08:	85 e3       	ldi	r24, 0x35	; 53
    3c0a:	80 93 8f 07 	sts	0x078F, r24
    3c0e:	81 e3       	ldi	r24, 0x31	; 49
    3c10:	80 93 90 07 	sts	0x0790, r24
    3c14:	80 e3       	ldi	r24, 0x30	; 48
    3c16:	80 93 91 07 	sts	0x0791, r24
    3c1a:	80 93 92 07 	sts	0x0792, r24
    3c1e:	80 e2       	ldi	r24, 0x20	; 32
    3c20:	80 93 93 07 	sts	0x0793, r24
    3c24:	84 e5       	ldi	r24, 0x54	; 84
    3c26:	80 93 94 07 	sts	0x0794, r24
    3c2a:	95 e4       	ldi	r25, 0x45	; 69
    3c2c:	90 93 95 07 	sts	0x0795, r25
    3c30:	93 e5       	ldi	r25, 0x53	; 83
    3c32:	90 93 96 07 	sts	0x0796, r25
    3c36:	80 93 97 07 	sts	0x0797, r24
    3c3a:	8d e9       	ldi	r24, 0x9D	; 157
    3c3c:	97 e0       	ldi	r25, 0x07	; 7
    3c3e:	90 93 9b 08 	sts	0x089B, r25
    3c42:	80 93 9a 08 	sts	0x089A, r24
    3c46:	10 a2       	std	Z+32, r1	; 0x20
    3c48:	17 8e       	std	Z+31, r1	; 0x1f
    3c4a:	12 a2       	std	Z+34, r1	; 0x22
    3c4c:	11 a2       	std	Z+33, r1	; 0x21
    3c4e:	80 91 af 02 	lds	r24, 0x02AF
    3c52:	90 91 b0 02 	lds	r25, 0x02B0
    3c56:	94 a3       	std	Z+36, r25	; 0x24
    3c58:	83 a3       	std	Z+35, r24	; 0x23
    3c5a:	80 91 bb 02 	lds	r24, 0x02BB
    3c5e:	90 91 bc 02 	lds	r25, 0x02BC
    3c62:	96 a3       	std	Z+38, r25	; 0x26
    3c64:	85 a3       	std	Z+37, r24	; 0x25
    3c66:	8b e7       	ldi	r24, 0x7B	; 123
    3c68:	90 e0       	ldi	r25, 0x00	; 0
    3c6a:	90 a7       	std	Z+40, r25	; 0x28
    3c6c:	87 a3       	std	Z+39, r24	; 0x27
    3c6e:	88 e0       	ldi	r24, 0x08	; 8
    3c70:	97 e0       	ldi	r25, 0x07	; 7
    3c72:	92 a7       	std	Z+42, r25	; 0x2a
    3c74:	81 a7       	std	Z+41, r24	; 0x29
    3c76:	88 e9       	ldi	r24, 0x98	; 152
    3c78:	98 e0       	ldi	r25, 0x08	; 8
    3c7a:	94 a7       	std	Z+44, r25	; 0x2c
    3c7c:	83 a7       	std	Z+43, r24	; 0x2b
    3c7e:	8f ea       	ldi	r24, 0xAF	; 175
    3c80:	97 e0       	ldi	r25, 0x07	; 7
    3c82:	90 93 80 07 	sts	0x0780, r25
    3c86:	80 93 7f 07 	sts	0x077F, r24
    3c8a:	80 91 7c 05 	lds	r24, 0x057C
    3c8e:	90 91 7d 05 	lds	r25, 0x057D
    3c92:	a0 91 7e 05 	lds	r26, 0x057E
    3c96:	b0 91 7f 05 	lds	r27, 0x057F
    3c9a:	88 0f       	add	r24, r24
    3c9c:	99 1f       	adc	r25, r25
    3c9e:	aa 1f       	adc	r26, r26
    3ca0:	bb 1f       	adc	r27, r27
    3ca2:	ac 01       	movw	r20, r24
    3ca4:	bd 01       	movw	r22, r26
    3ca6:	44 0f       	add	r20, r20
    3ca8:	55 1f       	adc	r21, r21
    3caa:	66 1f       	adc	r22, r22
    3cac:	77 1f       	adc	r23, r23
    3cae:	44 0f       	add	r20, r20
    3cb0:	55 1f       	adc	r21, r21
    3cb2:	66 1f       	adc	r22, r22
    3cb4:	77 1f       	adc	r23, r23
    3cb6:	84 0f       	add	r24, r20
    3cb8:	95 1f       	adc	r25, r21
    3cba:	a6 1f       	adc	r26, r22
    3cbc:	b7 1f       	adc	r27, r23
    3cbe:	85 a7       	std	Z+45, r24	; 0x2d
    3cc0:	96 a7       	std	Z+46, r25	; 0x2e
    3cc2:	a7 a7       	std	Z+47, r26	; 0x2f
    3cc4:	b0 ab       	std	Z+48, r27	; 0x30
    3cc6:	8a e1       	ldi	r24, 0x1A	; 26
    3cc8:	80 93 bf 07 	sts	0x07BF, r24
    3ccc:	40 91 c1 02 	lds	r20, 0x02C1
    3cd0:	50 91 c2 02 	lds	r21, 0x02C2
    3cd4:	0e e3       	ldi	r16, 0x3E	; 62
    3cd6:	10 e0       	ldi	r17, 0x00	; 0
    3cd8:	9f 01       	movw	r18, r30
    3cda:	63 ec       	ldi	r22, 0xC3	; 195
    3cdc:	72 e0       	ldi	r23, 0x02	; 2
    3cde:	80 e0       	ldi	r24, 0x00	; 0
    3ce0:	bd de       	rcall	.-646    	; 0x3a5c <Socket2_sendmessage_Automat>
    3ce2:	80 91 6e 05 	lds	r24, 0x056E
    3ce6:	cf 91       	pop	r28
    3ce8:	1f 91       	pop	r17
    3cea:	0f 91       	pop	r16
    3cec:	08 95       	ret

00003cee <send_DHCP_MESSAGE>:
    3cee:	8f 92       	push	r8
    3cf0:	9f 92       	push	r9
    3cf2:	af 92       	push	r10
    3cf4:	bf 92       	push	r11
    3cf6:	cf 92       	push	r12
    3cf8:	df 92       	push	r13
    3cfa:	ef 92       	push	r14
    3cfc:	ff 92       	push	r15
    3cfe:	0f 93       	push	r16
    3d00:	1f 93       	push	r17
    3d02:	cf 93       	push	r28
    3d04:	df 93       	push	r29
    3d06:	cd b7       	in	r28, 0x3d	; 61
    3d08:	de b7       	in	r29, 0x3e	; 62
    3d0a:	a4 97       	sbiw	r28, 0x24	; 36
    3d0c:	0f b6       	in	r0, 0x3f	; 63
    3d0e:	f8 94       	cli
    3d10:	de bf       	out	0x3e, r29	; 62
    3d12:	0f be       	out	0x3f, r0	; 63
    3d14:	cd bf       	out	0x3d, r28	; 61
    3d16:	e8 2e       	mov	r14, r24
    3d18:	d6 2e       	mov	r13, r22
    3d1a:	c7 2e       	mov	r12, r23
    3d1c:	68 94       	set
    3d1e:	ff 24       	eor	r15, r15
    3d20:	f5 f8       	bld	r15, 5
    3d22:	8e 01       	movw	r16, r28
    3d24:	0f 5f       	subi	r16, 0xFF	; 255
    3d26:	1f 4f       	sbci	r17, 0xFF	; 255
    3d28:	f8 01       	movw	r30, r16
    3d2a:	8f 2d       	mov	r24, r15
    3d2c:	11 92       	st	Z+, r1
    3d2e:	8a 95       	dec	r24
    3d30:	e9 f7       	brne	.-6      	; 0x3d2c <send_DHCP_MESSAGE+0x3e>
    3d32:	8f ef       	ldi	r24, 0xFF	; 255
    3d34:	89 a3       	std	Y+33, r24	; 0x21
    3d36:	8a a3       	std	Y+34, r24	; 0x22
    3d38:	8b a3       	std	Y+35, r24	; 0x23
    3d3a:	8c a3       	std	Y+36, r24	; 0x24
    3d3c:	63 e4       	ldi	r22, 0x43	; 67
    3d3e:	70 e0       	ldi	r23, 0x00	; 0
    3d40:	ce 01       	movw	r24, r28
    3d42:	81 96       	adiw	r24, 0x21	; 33
    3d44:	fc da       	rcall	.-2568   	; 0x333e <_dhcpUdpSocket_beginPacket>
    3d46:	81 e0       	ldi	r24, 0x01	; 1
    3d48:	89 83       	std	Y+1, r24	; 0x01
    3d4a:	8a 83       	std	Y+2, r24	; 0x02
    3d4c:	86 e0       	ldi	r24, 0x06	; 6
    3d4e:	8b 83       	std	Y+3, r24	; 0x03
    3d50:	1c 82       	std	Y+4, r1	; 0x04
    3d52:	40 91 91 08 	lds	r20, 0x0891
    3d56:	50 91 92 08 	lds	r21, 0x0892
    3d5a:	60 91 93 08 	lds	r22, 0x0893
    3d5e:	70 91 94 08 	lds	r23, 0x0894
    3d62:	87 2e       	mov	r8, r23
    3d64:	99 24       	eor	r9, r9
    3d66:	aa 24       	eor	r10, r10
    3d68:	bb 24       	eor	r11, r11
    3d6a:	b4 2f       	mov	r27, r20
    3d6c:	aa 27       	eor	r26, r26
    3d6e:	99 27       	eor	r25, r25
    3d70:	88 27       	eor	r24, r24
    3d72:	88 29       	or	r24, r8
    3d74:	99 29       	or	r25, r9
    3d76:	aa 29       	or	r26, r10
    3d78:	bb 29       	or	r27, r11
    3d7a:	88 24       	eor	r8, r8
    3d7c:	94 2e       	mov	r9, r20
    3d7e:	a5 2e       	mov	r10, r21
    3d80:	b6 2e       	mov	r11, r22
    3d82:	88 24       	eor	r8, r8
    3d84:	99 24       	eor	r9, r9
    3d86:	bb 24       	eor	r11, r11
    3d88:	88 29       	or	r24, r8
    3d8a:	99 29       	or	r25, r9
    3d8c:	aa 29       	or	r26, r10
    3d8e:	bb 29       	or	r27, r11
    3d90:	45 2f       	mov	r20, r21
    3d92:	56 2f       	mov	r21, r22
    3d94:	67 2f       	mov	r22, r23
    3d96:	77 27       	eor	r23, r23
    3d98:	44 27       	eor	r20, r20
    3d9a:	66 27       	eor	r22, r22
    3d9c:	77 27       	eor	r23, r23
    3d9e:	48 2b       	or	r20, r24
    3da0:	59 2b       	or	r21, r25
    3da2:	6a 2b       	or	r22, r26
    3da4:	7b 2b       	or	r23, r27
    3da6:	4d 83       	std	Y+5, r20	; 0x05
    3da8:	5e 83       	std	Y+6, r21	; 0x06
    3daa:	6f 83       	std	Y+7, r22	; 0x07
    3dac:	78 87       	std	Y+8, r23	; 0x08
    3dae:	c9 86       	std	Y+9, r12	; 0x09
    3db0:	da 86       	std	Y+10, r13	; 0x0a
    3db2:	80 e8       	ldi	r24, 0x80	; 128
    3db4:	90 e0       	ldi	r25, 0x00	; 0
    3db6:	9c 87       	std	Y+12, r25	; 0x0c
    3db8:	8b 87       	std	Y+11, r24	; 0x0b
    3dba:	6c e1       	ldi	r22, 0x1C	; 28
    3dbc:	70 e0       	ldi	r23, 0x00	; 0
    3dbe:	c8 01       	movw	r24, r16
    3dc0:	d0 da       	rcall	.-2656   	; 0x3362 <_dhcpUdpSocket_write>
    3dc2:	f8 01       	movw	r30, r16
    3dc4:	8f 2d       	mov	r24, r15
    3dc6:	11 92       	st	Z+, r1
    3dc8:	8a 95       	dec	r24
    3dca:	e9 f7       	brne	.-6      	; 0x3dc6 <send_DHCP_MESSAGE+0xd8>
    3dcc:	86 e0       	ldi	r24, 0x06	; 6
    3dce:	e3 e7       	ldi	r30, 0x73	; 115
    3dd0:	f8 e0       	ldi	r31, 0x08	; 8
    3dd2:	d8 01       	movw	r26, r16
    3dd4:	01 90       	ld	r0, Z+
    3dd6:	0d 92       	st	X+, r0
    3dd8:	8a 95       	dec	r24
    3dda:	e1 f7       	brne	.-8      	; 0x3dd4 <send_DHCP_MESSAGE+0xe6>
    3ddc:	60 e1       	ldi	r22, 0x10	; 16
    3dde:	70 e0       	ldi	r23, 0x00	; 0
    3de0:	c8 01       	movw	r24, r16
    3de2:	bf da       	rcall	.-2690   	; 0x3362 <_dhcpUdpSocket_write>
    3de4:	f8 01       	movw	r30, r16
    3de6:	11 92       	st	Z+, r1
    3de8:	fa 94       	dec	r15
    3dea:	e9 f7       	brne	.-6      	; 0x3de6 <send_DHCP_MESSAGE+0xf8>
    3dec:	06 e0       	ldi	r16, 0x06	; 6
    3dee:	10 e0       	ldi	r17, 0x00	; 0
    3df0:	60 e2       	ldi	r22, 0x20	; 32
    3df2:	70 e0       	ldi	r23, 0x00	; 0
    3df4:	ce 01       	movw	r24, r28
    3df6:	01 96       	adiw	r24, 0x01	; 1
    3df8:	b4 da       	rcall	.-2712   	; 0x3362 <_dhcpUdpSocket_write>
    3dfa:	01 50       	subi	r16, 0x01	; 1
    3dfc:	11 09       	sbc	r17, r1
    3dfe:	01 15       	cp	r16, r1
    3e00:	11 05       	cpc	r17, r1
    3e02:	b1 f7       	brne	.-20     	; 0x3df0 <send_DHCP_MESSAGE+0x102>
    3e04:	83 e6       	ldi	r24, 0x63	; 99
    3e06:	89 83       	std	Y+1, r24	; 0x01
    3e08:	92 e8       	ldi	r25, 0x82	; 130
    3e0a:	9a 83       	std	Y+2, r25	; 0x02
    3e0c:	93 e5       	ldi	r25, 0x53	; 83
    3e0e:	9b 83       	std	Y+3, r25	; 0x03
    3e10:	8c 83       	std	Y+4, r24	; 0x04
    3e12:	85 e3       	ldi	r24, 0x35	; 53
    3e14:	8d 83       	std	Y+5, r24	; 0x05
    3e16:	81 e0       	ldi	r24, 0x01	; 1
    3e18:	8e 83       	std	Y+6, r24	; 0x06
    3e1a:	ef 82       	std	Y+7, r14	; 0x07
    3e1c:	9d e3       	ldi	r25, 0x3D	; 61
    3e1e:	98 87       	std	Y+8, r25	; 0x08
    3e20:	97 e0       	ldi	r25, 0x07	; 7
    3e22:	99 87       	std	Y+9, r25	; 0x09
    3e24:	8a 87       	std	Y+10, r24	; 0x0a
    3e26:	86 e0       	ldi	r24, 0x06	; 6
    3e28:	e3 e7       	ldi	r30, 0x73	; 115
    3e2a:	f8 e0       	ldi	r31, 0x08	; 8
    3e2c:	de 01       	movw	r26, r28
    3e2e:	1b 96       	adiw	r26, 0x0b	; 11
    3e30:	01 90       	ld	r0, Z+
    3e32:	0d 92       	st	X+, r0
    3e34:	8a 95       	dec	r24
    3e36:	e1 f7       	brne	.-8      	; 0x3e30 <send_DHCP_MESSAGE+0x142>
    3e38:	8c e0       	ldi	r24, 0x0C	; 12
    3e3a:	89 8b       	std	Y+17, r24	; 0x11
    3e3c:	8a 8b       	std	Y+18, r24	; 0x12
    3e3e:	87 e0       	ldi	r24, 0x07	; 7
    3e40:	eb ec       	ldi	r30, 0xCB	; 203
    3e42:	f2 e0       	ldi	r31, 0x02	; 2
    3e44:	de 01       	movw	r26, r28
    3e46:	53 96       	adiw	r26, 0x13	; 19
    3e48:	01 90       	ld	r0, Z+
    3e4a:	0d 92       	st	X+, r0
    3e4c:	8a 95       	dec	r24
    3e4e:	e1 f7       	brne	.-8      	; 0x3e48 <send_DHCP_MESSAGE+0x15a>
    3e50:	60 91 76 08 	lds	r22, 0x0876
    3e54:	ce 01       	movw	r24, r28
    3e56:	49 96       	adiw	r24, 0x19	; 25
    3e58:	0e 94 6d 07 	call	0xeda	; 0xeda <printByte>
    3e5c:	60 91 77 08 	lds	r22, 0x0877
    3e60:	ce 01       	movw	r24, r28
    3e62:	4b 96       	adiw	r24, 0x1b	; 27
    3e64:	0e 94 6d 07 	call	0xeda	; 0xeda <printByte>
    3e68:	60 91 78 08 	lds	r22, 0x0878
    3e6c:	ce 01       	movw	r24, r28
    3e6e:	4d 96       	adiw	r24, 0x1d	; 29
    3e70:	0e 94 6d 07 	call	0xeda	; 0xeda <printByte>
    3e74:	6e e1       	ldi	r22, 0x1E	; 30
    3e76:	70 e0       	ldi	r23, 0x00	; 0
    3e78:	ce 01       	movw	r24, r28
    3e7a:	01 96       	adiw	r24, 0x01	; 1
    3e7c:	72 da       	rcall	.-2844   	; 0x3362 <_dhcpUdpSocket_write>
    3e7e:	f3 e0       	ldi	r31, 0x03	; 3
    3e80:	ef 12       	cpse	r14, r31
    3e82:	24 c0       	rjmp	.+72     	; 0x3ecc <send_DHCP_MESSAGE+0x1de>
    3e84:	82 e3       	ldi	r24, 0x32	; 50
    3e86:	89 83       	std	Y+1, r24	; 0x01
    3e88:	84 e0       	ldi	r24, 0x04	; 4
    3e8a:	8a 83       	std	Y+2, r24	; 0x02
    3e8c:	90 91 6e 08 	lds	r25, 0x086E
    3e90:	9b 83       	std	Y+3, r25	; 0x03
    3e92:	90 91 6f 08 	lds	r25, 0x086F
    3e96:	9c 83       	std	Y+4, r25	; 0x04
    3e98:	90 91 70 08 	lds	r25, 0x0870
    3e9c:	9d 83       	std	Y+5, r25	; 0x05
    3e9e:	90 91 71 08 	lds	r25, 0x0871
    3ea2:	9e 83       	std	Y+6, r25	; 0x06
    3ea4:	96 e3       	ldi	r25, 0x36	; 54
    3ea6:	9f 83       	std	Y+7, r25	; 0x07
    3ea8:	88 87       	std	Y+8, r24	; 0x08
    3eaa:	80 91 c4 07 	lds	r24, 0x07C4
    3eae:	89 87       	std	Y+9, r24	; 0x09
    3eb0:	80 91 c5 07 	lds	r24, 0x07C5
    3eb4:	8a 87       	std	Y+10, r24	; 0x0a
    3eb6:	80 91 c6 07 	lds	r24, 0x07C6
    3eba:	8b 87       	std	Y+11, r24	; 0x0b
    3ebc:	80 91 c7 07 	lds	r24, 0x07C7
    3ec0:	8c 87       	std	Y+12, r24	; 0x0c
    3ec2:	6c e0       	ldi	r22, 0x0C	; 12
    3ec4:	70 e0       	ldi	r23, 0x00	; 0
    3ec6:	ce 01       	movw	r24, r28
    3ec8:	01 96       	adiw	r24, 0x01	; 1
    3eca:	4b da       	rcall	.-2922   	; 0x3362 <_dhcpUdpSocket_write>
    3ecc:	87 e3       	ldi	r24, 0x37	; 55
    3ece:	89 83       	std	Y+1, r24	; 0x01
    3ed0:	86 e0       	ldi	r24, 0x06	; 6
    3ed2:	8a 83       	std	Y+2, r24	; 0x02
    3ed4:	91 e0       	ldi	r25, 0x01	; 1
    3ed6:	9b 83       	std	Y+3, r25	; 0x03
    3ed8:	93 e0       	ldi	r25, 0x03	; 3
    3eda:	9c 83       	std	Y+4, r25	; 0x04
    3edc:	8d 83       	std	Y+5, r24	; 0x05
    3ede:	8f e0       	ldi	r24, 0x0F	; 15
    3ee0:	8e 83       	std	Y+6, r24	; 0x06
    3ee2:	8a e3       	ldi	r24, 0x3A	; 58
    3ee4:	8f 83       	std	Y+7, r24	; 0x07
    3ee6:	8b e3       	ldi	r24, 0x3B	; 59
    3ee8:	88 87       	std	Y+8, r24	; 0x08
    3eea:	8f ef       	ldi	r24, 0xFF	; 255
    3eec:	89 87       	std	Y+9, r24	; 0x09
    3eee:	69 e0       	ldi	r22, 0x09	; 9
    3ef0:	70 e0       	ldi	r23, 0x00	; 0
    3ef2:	ce 01       	movw	r24, r28
    3ef4:	01 96       	adiw	r24, 0x01	; 1
    3ef6:	35 da       	rcall	.-2966   	; 0x3362 <_dhcpUdpSocket_write>
    3ef8:	a4 96       	adiw	r28, 0x24	; 36
    3efa:	0f b6       	in	r0, 0x3f	; 63
    3efc:	f8 94       	cli
    3efe:	de bf       	out	0x3e, r29	; 62
    3f00:	0f be       	out	0x3f, r0	; 63
    3f02:	cd bf       	out	0x3d, r28	; 61
    3f04:	df 91       	pop	r29
    3f06:	cf 91       	pop	r28
    3f08:	1f 91       	pop	r17
    3f0a:	0f 91       	pop	r16
    3f0c:	ff 90       	pop	r15
    3f0e:	ef 90       	pop	r14
    3f10:	df 90       	pop	r13
    3f12:	cf 90       	pop	r12
    3f14:	bf 90       	pop	r11
    3f16:	af 90       	pop	r10
    3f18:	9f 90       	pop	r9
    3f1a:	8f 90       	pop	r8
    3f1c:	08 95       	ret

00003f1e <send_DHCP_MESSAGE_Automat>:
    3f1e:	0f 93       	push	r16
    3f20:	1f 93       	push	r17
    3f22:	cf 93       	push	r28
    3f24:	df 93       	push	r29
    3f26:	06 2f       	mov	r16, r22
    3f28:	ea 01       	movw	r28, r20
    3f2a:	10 91 6c 05 	lds	r17, 0x056C
    3f2e:	88 23       	and	r24, r24
    3f30:	29 f0       	breq	.+10     	; 0x3f3c <send_DHCP_MESSAGE_Automat+0x1e>
    3f32:	11 23       	and	r17, r17
    3f34:	19 f0       	breq	.+6      	; 0x3f3c <send_DHCP_MESSAGE_Automat+0x1e>
    3f36:	11 30       	cpi	r17, 0x01	; 1
    3f38:	39 f0       	breq	.+14     	; 0x3f48 <send_DHCP_MESSAGE_Automat+0x2a>
    3f3a:	0d c0       	rjmp	.+26     	; 0x3f56 <send_DHCP_MESSAGE_Automat+0x38>
    3f3c:	81 e0       	ldi	r24, 0x01	; 1
    3f3e:	80 93 6c 05 	sts	0x056C, r24
    3f42:	11 30       	cpi	r17, 0x01	; 1
    3f44:	71 f4       	brne	.+28     	; 0x3f62 <send_DHCP_MESSAGE_Automat+0x44>
    3f46:	12 c0       	rjmp	.+36     	; 0x3f6c <send_DHCP_MESSAGE_Automat+0x4e>
    3f48:	81 e0       	ldi	r24, 0x01	; 1
    3f4a:	7a da       	rcall	.-2828   	; 0x3440 <_dhcpUdpSocket_endPacket_Automat>
    3f4c:	8f 3f       	cpi	r24, 0xFF	; 255
    3f4e:	19 f4       	brne	.+6      	; 0x3f56 <send_DHCP_MESSAGE_Automat+0x38>
    3f50:	80 93 6c 05 	sts	0x056C, r24
    3f54:	0b c0       	rjmp	.+22     	; 0x3f6c <send_DHCP_MESSAGE_Automat+0x4e>
    3f56:	90 91 6c 05 	lds	r25, 0x056C
    3f5a:	91 17       	cp	r25, r17
    3f5c:	39 f0       	breq	.+14     	; 0x3f6c <send_DHCP_MESSAGE_Automat+0x4e>
    3f5e:	91 30       	cpi	r25, 0x01	; 1
    3f60:	29 f4       	brne	.+10     	; 0x3f6c <send_DHCP_MESSAGE_Automat+0x4e>
    3f62:	be 01       	movw	r22, r28
    3f64:	80 2f       	mov	r24, r16
    3f66:	c3 de       	rcall	.-634    	; 0x3cee <send_DHCP_MESSAGE>
    3f68:	80 e0       	ldi	r24, 0x00	; 0
    3f6a:	6a da       	rcall	.-2860   	; 0x3440 <_dhcpUdpSocket_endPacket_Automat>
    3f6c:	80 91 6c 05 	lds	r24, 0x056C
    3f70:	df 91       	pop	r29
    3f72:	cf 91       	pop	r28
    3f74:	1f 91       	pop	r17
    3f76:	0f 91       	pop	r16
    3f78:	08 95       	ret

00003f7a <parseDHCPResponse>:
    3f7a:	2f 92       	push	r2
    3f7c:	3f 92       	push	r3
    3f7e:	4f 92       	push	r4
    3f80:	5f 92       	push	r5
    3f82:	7f 92       	push	r7
    3f84:	8f 92       	push	r8
    3f86:	9f 92       	push	r9
    3f88:	af 92       	push	r10
    3f8a:	bf 92       	push	r11
    3f8c:	cf 92       	push	r12
    3f8e:	df 92       	push	r13
    3f90:	ef 92       	push	r14
    3f92:	ff 92       	push	r15
    3f94:	0f 93       	push	r16
    3f96:	1f 93       	push	r17
    3f98:	cf 93       	push	r28
    3f9a:	df 93       	push	r29
    3f9c:	cd b7       	in	r28, 0x3d	; 61
    3f9e:	de b7       	in	r29, 0x3e	; 62
    3fa0:	a2 97       	sbiw	r28, 0x22	; 34
    3fa2:	0f b6       	in	r0, 0x3f	; 63
    3fa4:	f8 94       	cli
    3fa6:	de bf       	out	0x3e, r29	; 62
    3fa8:	0f be       	out	0x3f, r0	; 63
    3faa:	cd bf       	out	0x3d, r28	; 61
    3fac:	8a 01       	movw	r16, r20
    3fae:	82 dc       	rcall	.-1788   	; 0x38b4 <_dhcpUdpSocket_parsePacket>
    3fb0:	18 16       	cp	r1, r24
    3fb2:	19 06       	cpc	r1, r25
    3fb4:	0c f0       	brlt	.+2      	; 0x3fb8 <parseDHCPResponse+0x3e>
    3fb6:	f1 c1       	rjmp	.+994    	; 0x439a <parseDHCPResponse+0x420>
    3fb8:	62 e2       	ldi	r22, 0x22	; 34
    3fba:	70 e0       	ldi	r23, 0x00	; 0
    3fbc:	ce 01       	movw	r24, r28
    3fbe:	01 96       	adiw	r24, 0x01	; 1
    3fc0:	7f dc       	rcall	.-1794   	; 0x38c0 <_dhcpUdpSocket_readBlock>
    3fc2:	89 81       	ldd	r24, Y+1	; 0x01
    3fc4:	82 30       	cpi	r24, 0x02	; 2
    3fc6:	09 f0       	breq	.+2      	; 0x3fca <parseDHCPResponse+0x50>
    3fc8:	ea c1       	rjmp	.+980    	; 0x439e <parseDHCPResponse+0x424>
    3fca:	80 91 e5 10 	lds	r24, 0x10E5
    3fce:	90 91 e6 10 	lds	r25, 0x10E6
    3fd2:	83 34       	cpi	r24, 0x43	; 67
    3fd4:	91 05       	cpc	r25, r1
    3fd6:	09 f0       	breq	.+2      	; 0x3fda <parseDHCPResponse+0x60>
    3fd8:	e4 c1       	rjmp	.+968    	; 0x43a2 <parseDHCPResponse+0x428>
    3fda:	8d 81       	ldd	r24, Y+5	; 0x05
    3fdc:	9e 81       	ldd	r25, Y+6	; 0x06
    3fde:	af 81       	ldd	r26, Y+7	; 0x07
    3fe0:	b8 85       	ldd	r27, Y+8	; 0x08
    3fe2:	cb 2e       	mov	r12, r27
    3fe4:	dd 24       	eor	r13, r13
    3fe6:	ee 24       	eor	r14, r14
    3fe8:	ff 24       	eor	r15, r15
    3fea:	78 2f       	mov	r23, r24
    3fec:	66 27       	eor	r22, r22
    3fee:	55 27       	eor	r21, r21
    3ff0:	44 27       	eor	r20, r20
    3ff2:	c4 2a       	or	r12, r20
    3ff4:	d5 2a       	or	r13, r21
    3ff6:	e6 2a       	or	r14, r22
    3ff8:	f7 2a       	or	r15, r23
    3ffa:	44 27       	eor	r20, r20
    3ffc:	58 2f       	mov	r21, r24
    3ffe:	69 2f       	mov	r22, r25
    4000:	7a 2f       	mov	r23, r26
    4002:	44 27       	eor	r20, r20
    4004:	55 27       	eor	r21, r21
    4006:	77 27       	eor	r23, r23
    4008:	c4 2a       	or	r12, r20
    400a:	d5 2a       	or	r13, r21
    400c:	e6 2a       	or	r14, r22
    400e:	f7 2a       	or	r15, r23
    4010:	89 2f       	mov	r24, r25
    4012:	9a 2f       	mov	r25, r26
    4014:	ab 2f       	mov	r26, r27
    4016:	bb 27       	eor	r27, r27
    4018:	88 27       	eor	r24, r24
    401a:	aa 27       	eor	r26, r26
    401c:	bb 27       	eor	r27, r27
    401e:	c8 2a       	or	r12, r24
    4020:	d9 2a       	or	r13, r25
    4022:	ea 2a       	or	r14, r26
    4024:	fb 2a       	or	r15, r27
    4026:	f8 01       	movw	r30, r16
    4028:	c0 82       	st	Z, r12
    402a:	d1 82       	std	Z+1, r13	; 0x01
    402c:	e2 82       	std	Z+2, r14	; 0x02
    402e:	f3 82       	std	Z+3, r15	; 0x03
    4030:	46 e0       	ldi	r20, 0x06	; 6
    4032:	50 e0       	ldi	r21, 0x00	; 0
    4034:	63 e7       	ldi	r22, 0x73	; 115
    4036:	78 e0       	ldi	r23, 0x08	; 8
    4038:	ce 01       	movw	r24, r28
    403a:	4d 96       	adiw	r24, 0x1d	; 29
    403c:	0e 94 e2 35 	call	0x6bc4	; 0x6bc4 <memcmp>
    4040:	89 2b       	or	r24, r25
    4042:	09 f0       	breq	.+2      	; 0x4046 <parseDHCPResponse+0xcc>
    4044:	b0 c1       	rjmp	.+864    	; 0x43a6 <parseDHCPResponse+0x42c>
    4046:	80 91 cd 0c 	lds	r24, 0x0CCD
    404a:	90 91 ce 0c 	lds	r25, 0x0CCE
    404e:	a0 91 cf 0c 	lds	r26, 0x0CCF
    4052:	b0 91 d0 0c 	lds	r27, 0x0CD0
    4056:	c8 16       	cp	r12, r24
    4058:	d9 06       	cpc	r13, r25
    405a:	ea 06       	cpc	r14, r26
    405c:	fb 06       	cpc	r15, r27
    405e:	08 f4       	brcc	.+2      	; 0x4062 <parseDHCPResponse+0xe8>
    4060:	a4 c1       	rjmp	.+840    	; 0x43aa <parseDHCPResponse+0x430>
    4062:	80 91 91 08 	lds	r24, 0x0891
    4066:	90 91 92 08 	lds	r25, 0x0892
    406a:	a0 91 93 08 	lds	r26, 0x0893
    406e:	b0 91 94 08 	lds	r27, 0x0894
    4072:	8c 15       	cp	r24, r12
    4074:	9d 05       	cpc	r25, r13
    4076:	ae 05       	cpc	r26, r14
    4078:	bf 05       	cpc	r27, r15
    407a:	08 f4       	brcc	.+2      	; 0x407e <parseDHCPResponse+0x104>
    407c:	98 c1       	rjmp	.+816    	; 0x43ae <parseDHCPResponse+0x434>
    407e:	89 89       	ldd	r24, Y+17	; 0x11
    4080:	9a 89       	ldd	r25, Y+18	; 0x12
    4082:	ab 89       	ldd	r26, Y+19	; 0x13
    4084:	bc 89       	ldd	r27, Y+20	; 0x14
    4086:	80 93 6e 08 	sts	0x086E, r24
    408a:	90 93 6f 08 	sts	0x086F, r25
    408e:	a0 93 70 08 	sts	0x0870, r26
    4092:	b0 93 71 08 	sts	0x0871, r27
    4096:	0e ec       	ldi	r16, 0xCE	; 206
    4098:	10 e0       	ldi	r17, 0x00	; 0
    409a:	62 dc       	rcall	.-1852   	; 0x3960 <_dhcpUdpSocket_read>
    409c:	01 50       	subi	r16, 0x01	; 1
    409e:	11 09       	sbc	r17, r1
    40a0:	01 15       	cp	r16, r1
    40a2:	11 05       	cpc	r17, r1
    40a4:	d1 f7       	brne	.-12     	; 0x409a <parseDHCPResponse+0x120>
    40a6:	71 2c       	mov	r7, r1
    40a8:	0f 2e       	mov	r0, r31
    40aa:	fd ea       	ldi	r31, 0xAD	; 173
    40ac:	cf 2e       	mov	r12, r31
    40ae:	f8 e0       	ldi	r31, 0x08	; 8
    40b0:	df 2e       	mov	r13, r31
    40b2:	f0 2d       	mov	r31, r0
    40b4:	81 2c       	mov	r8, r1
    40b6:	91 2c       	mov	r9, r1
    40b8:	0f 2e       	mov	r0, r31
    40ba:	f4 ec       	ldi	r31, 0xC4	; 196
    40bc:	af 2e       	mov	r10, r31
    40be:	f7 e0       	ldi	r31, 0x07	; 7
    40c0:	bf 2e       	mov	r11, r31
    40c2:	f0 2d       	mov	r31, r0
    40c4:	0f 2e       	mov	r0, r31
    40c6:	f5 ee       	ldi	r31, 0xE5	; 229
    40c8:	4f 2e       	mov	r4, r31
    40ca:	f0 e1       	ldi	r31, 0x10	; 16
    40cc:	5f 2e       	mov	r5, r31
    40ce:	f0 2d       	mov	r31, r0
    40d0:	0f 2e       	mov	r0, r31
    40d2:	f5 ec       	ldi	r31, 0xC5	; 197
    40d4:	2f 2e       	mov	r2, r31
    40d6:	f7 e0       	ldi	r31, 0x07	; 7
    40d8:	3f 2e       	mov	r3, r31
    40da:	f0 2d       	mov	r31, r0
    40dc:	56 c1       	rjmp	.+684    	; 0x438a <parseDHCPResponse+0x410>
    40de:	40 dc       	rcall	.-1920   	; 0x3960 <_dhcpUdpSocket_read>
    40e0:	83 33       	cpi	r24, 0x33	; 51
    40e2:	91 05       	cpc	r25, r1
    40e4:	09 f4       	brne	.+2      	; 0x40e8 <parseDHCPResponse+0x16e>
    40e6:	05 c1       	rjmp	.+522    	; 0x42f2 <parseDHCPResponse+0x378>
    40e8:	7c f4       	brge	.+30     	; 0x4108 <parseDHCPResponse+0x18e>
    40ea:	81 30       	cpi	r24, 0x01	; 1
    40ec:	91 05       	cpc	r25, r1
    40ee:	29 f1       	breq	.+74     	; 0x413a <parseDHCPResponse+0x1c0>
    40f0:	24 f4       	brge	.+8      	; 0x40fa <parseDHCPResponse+0x180>
    40f2:	89 2b       	or	r24, r25
    40f4:	09 f4       	brne	.+2      	; 0x40f8 <parseDHCPResponse+0x17e>
    40f6:	49 c1       	rjmp	.+658    	; 0x438a <parseDHCPResponse+0x410>
    40f8:	3d c1       	rjmp	.+634    	; 0x4374 <parseDHCPResponse+0x3fa>
    40fa:	83 30       	cpi	r24, 0x03	; 3
    40fc:	91 05       	cpc	r25, r1
    40fe:	21 f1       	breq	.+72     	; 0x4148 <parseDHCPResponse+0x1ce>
    4100:	06 97       	sbiw	r24, 0x06	; 6
    4102:	09 f4       	brne	.+2      	; 0x4106 <parseDHCPResponse+0x18c>
    4104:	39 c0       	rjmp	.+114    	; 0x4178 <parseDHCPResponse+0x1fe>
    4106:	36 c1       	rjmp	.+620    	; 0x4374 <parseDHCPResponse+0x3fa>
    4108:	8a 33       	cpi	r24, 0x3A	; 58
    410a:	91 05       	cpc	r25, r1
    410c:	09 f4       	brne	.+2      	; 0x4110 <parseDHCPResponse+0x196>
    410e:	7f c0       	rjmp	.+254    	; 0x420e <parseDHCPResponse+0x294>
    4110:	3c f4       	brge	.+14     	; 0x4120 <parseDHCPResponse+0x1a6>
    4112:	85 33       	cpi	r24, 0x35	; 53
    4114:	91 05       	cpc	r25, r1
    4116:	69 f0       	breq	.+26     	; 0x4132 <parseDHCPResponse+0x1b8>
    4118:	c6 97       	sbiw	r24, 0x36	; 54
    411a:	09 f4       	brne	.+2      	; 0x411e <parseDHCPResponse+0x1a4>
    411c:	45 c0       	rjmp	.+138    	; 0x41a8 <parseDHCPResponse+0x22e>
    411e:	2a c1       	rjmp	.+596    	; 0x4374 <parseDHCPResponse+0x3fa>
    4120:	8b 33       	cpi	r24, 0x3B	; 59
    4122:	91 05       	cpc	r25, r1
    4124:	09 f4       	brne	.+2      	; 0x4128 <parseDHCPResponse+0x1ae>
    4126:	ac c0       	rjmp	.+344    	; 0x4280 <parseDHCPResponse+0x306>
    4128:	8f 3f       	cpi	r24, 0xFF	; 255
    412a:	91 05       	cpc	r25, r1
    412c:	09 f4       	brne	.+2      	; 0x4130 <parseDHCPResponse+0x1b6>
    412e:	2d c1       	rjmp	.+602    	; 0x438a <parseDHCPResponse+0x410>
    4130:	21 c1       	rjmp	.+578    	; 0x4374 <parseDHCPResponse+0x3fa>
    4132:	16 dc       	rcall	.-2004   	; 0x3960 <_dhcpUdpSocket_read>
    4134:	15 dc       	rcall	.-2006   	; 0x3960 <_dhcpUdpSocket_read>
    4136:	78 2e       	mov	r7, r24
    4138:	28 c1       	rjmp	.+592    	; 0x438a <parseDHCPResponse+0x410>
    413a:	12 dc       	rcall	.-2012   	; 0x3960 <_dhcpUdpSocket_read>
    413c:	64 e0       	ldi	r22, 0x04	; 4
    413e:	70 e0       	ldi	r23, 0x00	; 0
    4140:	8b ed       	ldi	r24, 0xDB	; 219
    4142:	90 e1       	ldi	r25, 0x10	; 16
    4144:	0d dc       	rcall	.-2022   	; 0x3960 <_dhcpUdpSocket_read>
    4146:	21 c1       	rjmp	.+578    	; 0x438a <parseDHCPResponse+0x410>
    4148:	0b dc       	rcall	.-2026   	; 0x3960 <_dhcpUdpSocket_read>
    414a:	7c 01       	movw	r14, r24
    414c:	64 e0       	ldi	r22, 0x04	; 4
    414e:	70 e0       	ldi	r23, 0x00	; 0
    4150:	81 e8       	ldi	r24, 0x81	; 129
    4152:	98 e0       	ldi	r25, 0x08	; 8
    4154:	05 dc       	rcall	.-2038   	; 0x3960 <_dhcpUdpSocket_read>
    4156:	ff 24       	eor	r15, r15
    4158:	f4 e0       	ldi	r31, 0x04	; 4
    415a:	ef 1a       	sub	r14, r31
    415c:	f1 08       	sbc	r15, r1
    415e:	1e 14       	cp	r1, r14
    4160:	1f 04       	cpc	r1, r15
    4162:	0c f0       	brlt	.+2      	; 0x4166 <parseDHCPResponse+0x1ec>
    4164:	12 c1       	rjmp	.+548    	; 0x438a <parseDHCPResponse+0x410>
    4166:	08 2d       	mov	r16, r8
    4168:	19 2d       	mov	r17, r9
    416a:	fa db       	rcall	.-2060   	; 0x3960 <_dhcpUdpSocket_read>
    416c:	0f 5f       	subi	r16, 0xFF	; 255
    416e:	1f 4f       	sbci	r17, 0xFF	; 255
    4170:	0e 15       	cp	r16, r14
    4172:	1f 05       	cpc	r17, r15
    4174:	d4 f3       	brlt	.-12     	; 0x416a <parseDHCPResponse+0x1f0>
    4176:	09 c1       	rjmp	.+530    	; 0x438a <parseDHCPResponse+0x410>
    4178:	f3 db       	rcall	.-2074   	; 0x3960 <_dhcpUdpSocket_read>
    417a:	7c 01       	movw	r14, r24
    417c:	64 e0       	ldi	r22, 0x04	; 4
    417e:	70 e0       	ldi	r23, 0x00	; 0
    4180:	89 e0       	ldi	r24, 0x09	; 9
    4182:	91 e1       	ldi	r25, 0x11	; 17
    4184:	ed db       	rcall	.-2086   	; 0x3960 <_dhcpUdpSocket_read>
    4186:	ff 24       	eor	r15, r15
    4188:	84 e0       	ldi	r24, 0x04	; 4
    418a:	e8 1a       	sub	r14, r24
    418c:	f1 08       	sbc	r15, r1
    418e:	1e 14       	cp	r1, r14
    4190:	1f 04       	cpc	r1, r15
    4192:	0c f0       	brlt	.+2      	; 0x4196 <parseDHCPResponse+0x21c>
    4194:	fa c0       	rjmp	.+500    	; 0x438a <parseDHCPResponse+0x410>
    4196:	08 2d       	mov	r16, r8
    4198:	19 2d       	mov	r17, r9
    419a:	e2 db       	rcall	.-2108   	; 0x3960 <_dhcpUdpSocket_read>
    419c:	0f 5f       	subi	r16, 0xFF	; 255
    419e:	1f 4f       	sbci	r17, 0xFF	; 255
    41a0:	0e 15       	cp	r16, r14
    41a2:	1f 05       	cpc	r17, r15
    41a4:	d4 f3       	brlt	.-12     	; 0x419a <parseDHCPResponse+0x220>
    41a6:	f1 c0       	rjmp	.+482    	; 0x438a <parseDHCPResponse+0x410>
    41a8:	db db       	rcall	.-2122   	; 0x3960 <_dhcpUdpSocket_read>
    41aa:	f5 01       	movw	r30, r10
    41ac:	90 81       	ld	r25, Z
    41ae:	91 11       	cpse	r25, r1
    41b0:	0e c0       	rjmp	.+28     	; 0x41ce <parseDHCPResponse+0x254>
    41b2:	f1 01       	movw	r30, r2
    41b4:	90 81       	ld	r25, Z
    41b6:	91 11       	cpse	r25, r1
    41b8:	0a c0       	rjmp	.+20     	; 0x41ce <parseDHCPResponse+0x254>
    41ba:	e6 ec       	ldi	r30, 0xC6	; 198
    41bc:	f7 e0       	ldi	r31, 0x07	; 7
    41be:	90 81       	ld	r25, Z
    41c0:	91 11       	cpse	r25, r1
    41c2:	05 c0       	rjmp	.+10     	; 0x41ce <parseDHCPResponse+0x254>
    41c4:	e7 ec       	ldi	r30, 0xC7	; 199
    41c6:	f7 e0       	ldi	r31, 0x07	; 7
    41c8:	90 81       	ld	r25, Z
    41ca:	99 23       	and	r25, r25
    41cc:	99 f0       	breq	.+38     	; 0x41f4 <parseDHCPResponse+0x27a>
    41ce:	f5 01       	movw	r30, r10
    41d0:	00 81       	ld	r16, Z
    41d2:	11 81       	ldd	r17, Z+1	; 0x01
    41d4:	22 81       	ldd	r18, Z+2	; 0x02
    41d6:	33 81       	ldd	r19, Z+3	; 0x03
    41d8:	f2 01       	movw	r30, r4
    41da:	40 81       	ld	r20, Z
    41dc:	51 81       	ldd	r21, Z+1	; 0x01
    41de:	62 81       	ldd	r22, Z+2	; 0x02
    41e0:	73 81       	ldd	r23, Z+3	; 0x03
    41e2:	04 17       	cp	r16, r20
    41e4:	15 07       	cpc	r17, r21
    41e6:	26 07       	cpc	r18, r22
    41e8:	37 07       	cpc	r19, r23
    41ea:	21 f0       	breq	.+8      	; 0x41f4 <parseDHCPResponse+0x27a>
    41ec:	f8 2e       	mov	r15, r24
    41ee:	81 11       	cpse	r24, r1
    41f0:	06 c0       	rjmp	.+12     	; 0x41fe <parseDHCPResponse+0x284>
    41f2:	cb c0       	rjmp	.+406    	; 0x438a <parseDHCPResponse+0x410>
    41f4:	64 e0       	ldi	r22, 0x04	; 4
    41f6:	70 e0       	ldi	r23, 0x00	; 0
    41f8:	c5 01       	movw	r24, r10
    41fa:	b2 db       	rcall	.-2204   	; 0x3960 <_dhcpUdpSocket_read>
    41fc:	c6 c0       	rjmp	.+396    	; 0x438a <parseDHCPResponse+0x410>
    41fe:	08 2d       	mov	r16, r8
    4200:	19 2d       	mov	r17, r9
    4202:	ae db       	rcall	.-2212   	; 0x3960 <_dhcpUdpSocket_read>
    4204:	0f 5f       	subi	r16, 0xFF	; 255
    4206:	1f 4f       	sbci	r17, 0xFF	; 255
    4208:	f0 12       	cpse	r15, r16
    420a:	fb cf       	rjmp	.-10     	; 0x4202 <parseDHCPResponse+0x288>
    420c:	be c0       	rjmp	.+380    	; 0x438a <parseDHCPResponse+0x410>
    420e:	a8 db       	rcall	.-2224   	; 0x3960 <_dhcpUdpSocket_read>
    4210:	64 e0       	ldi	r22, 0x04	; 4
    4212:	70 e0       	ldi	r23, 0x00	; 0
    4214:	8c e9       	ldi	r24, 0x9C	; 156
    4216:	98 e0       	ldi	r25, 0x08	; 8
    4218:	a3 db       	rcall	.-2234   	; 0x3960 <_dhcpUdpSocket_read>
    421a:	80 91 9c 08 	lds	r24, 0x089C
    421e:	90 91 9d 08 	lds	r25, 0x089D
    4222:	a0 91 9e 08 	lds	r26, 0x089E
    4226:	b0 91 9f 08 	lds	r27, 0x089F
    422a:	0b 2f       	mov	r16, r27
    422c:	11 27       	eor	r17, r17
    422e:	22 27       	eor	r18, r18
    4230:	33 27       	eor	r19, r19
    4232:	78 2f       	mov	r23, r24
    4234:	66 27       	eor	r22, r22
    4236:	55 27       	eor	r21, r21
    4238:	44 27       	eor	r20, r20
    423a:	04 2b       	or	r16, r20
    423c:	15 2b       	or	r17, r21
    423e:	26 2b       	or	r18, r22
    4240:	37 2b       	or	r19, r23
    4242:	44 27       	eor	r20, r20
    4244:	58 2f       	mov	r21, r24
    4246:	69 2f       	mov	r22, r25
    4248:	7a 2f       	mov	r23, r26
    424a:	44 27       	eor	r20, r20
    424c:	55 27       	eor	r21, r21
    424e:	77 27       	eor	r23, r23
    4250:	04 2b       	or	r16, r20
    4252:	15 2b       	or	r17, r21
    4254:	26 2b       	or	r18, r22
    4256:	37 2b       	or	r19, r23
    4258:	49 2f       	mov	r20, r25
    425a:	5a 2f       	mov	r21, r26
    425c:	6b 2f       	mov	r22, r27
    425e:	77 27       	eor	r23, r23
    4260:	44 27       	eor	r20, r20
    4262:	66 27       	eor	r22, r22
    4264:	77 27       	eor	r23, r23
    4266:	40 2b       	or	r20, r16
    4268:	51 2b       	or	r21, r17
    426a:	62 2b       	or	r22, r18
    426c:	73 2b       	or	r23, r19
    426e:	40 93 9c 08 	sts	0x089C, r20
    4272:	50 93 9d 08 	sts	0x089D, r21
    4276:	60 93 9e 08 	sts	0x089E, r22
    427a:	70 93 9f 08 	sts	0x089F, r23
    427e:	85 c0       	rjmp	.+266    	; 0x438a <parseDHCPResponse+0x410>
    4280:	6f db       	rcall	.-2338   	; 0x3960 <_dhcpUdpSocket_read>
    4282:	64 e0       	ldi	r22, 0x04	; 4
    4284:	70 e0       	ldi	r23, 0x00	; 0
    4286:	8a eb       	ldi	r24, 0xBA	; 186
    4288:	98 e0       	ldi	r25, 0x08	; 8
    428a:	6a db       	rcall	.-2348   	; 0x3960 <_dhcpUdpSocket_read>
    428c:	80 91 ba 08 	lds	r24, 0x08BA
    4290:	90 91 bb 08 	lds	r25, 0x08BB
    4294:	a0 91 bc 08 	lds	r26, 0x08BC
    4298:	b0 91 bd 08 	lds	r27, 0x08BD
    429c:	0b 2f       	mov	r16, r27
    429e:	11 27       	eor	r17, r17
    42a0:	22 27       	eor	r18, r18
    42a2:	33 27       	eor	r19, r19
    42a4:	78 2f       	mov	r23, r24
    42a6:	66 27       	eor	r22, r22
    42a8:	55 27       	eor	r21, r21
    42aa:	44 27       	eor	r20, r20
    42ac:	04 2b       	or	r16, r20
    42ae:	15 2b       	or	r17, r21
    42b0:	26 2b       	or	r18, r22
    42b2:	37 2b       	or	r19, r23
    42b4:	44 27       	eor	r20, r20
    42b6:	58 2f       	mov	r21, r24
    42b8:	69 2f       	mov	r22, r25
    42ba:	7a 2f       	mov	r23, r26
    42bc:	44 27       	eor	r20, r20
    42be:	55 27       	eor	r21, r21
    42c0:	77 27       	eor	r23, r23
    42c2:	04 2b       	or	r16, r20
    42c4:	15 2b       	or	r17, r21
    42c6:	26 2b       	or	r18, r22
    42c8:	37 2b       	or	r19, r23
    42ca:	49 2f       	mov	r20, r25
    42cc:	5a 2f       	mov	r21, r26
    42ce:	6b 2f       	mov	r22, r27
    42d0:	77 27       	eor	r23, r23
    42d2:	44 27       	eor	r20, r20
    42d4:	66 27       	eor	r22, r22
    42d6:	77 27       	eor	r23, r23
    42d8:	40 2b       	or	r20, r16
    42da:	51 2b       	or	r21, r17
    42dc:	62 2b       	or	r22, r18
    42de:	73 2b       	or	r23, r19
    42e0:	40 93 ba 08 	sts	0x08BA, r20
    42e4:	50 93 bb 08 	sts	0x08BB, r21
    42e8:	60 93 bc 08 	sts	0x08BC, r22
    42ec:	70 93 bd 08 	sts	0x08BD, r23
    42f0:	4c c0       	rjmp	.+152    	; 0x438a <parseDHCPResponse+0x410>
    42f2:	36 db       	rcall	.-2452   	; 0x3960 <_dhcpUdpSocket_read>
    42f4:	64 e0       	ldi	r22, 0x04	; 4
    42f6:	70 e0       	ldi	r23, 0x00	; 0
    42f8:	86 e8       	ldi	r24, 0x86	; 134
    42fa:	98 e0       	ldi	r25, 0x08	; 8
    42fc:	31 db       	rcall	.-2462   	; 0x3960 <_dhcpUdpSocket_read>
    42fe:	80 91 86 08 	lds	r24, 0x0886
    4302:	90 91 87 08 	lds	r25, 0x0887
    4306:	a0 91 88 08 	lds	r26, 0x0888
    430a:	b0 91 89 08 	lds	r27, 0x0889
    430e:	0b 2f       	mov	r16, r27
    4310:	11 27       	eor	r17, r17
    4312:	22 27       	eor	r18, r18
    4314:	33 27       	eor	r19, r19
    4316:	78 2f       	mov	r23, r24
    4318:	66 27       	eor	r22, r22
    431a:	55 27       	eor	r21, r21
    431c:	44 27       	eor	r20, r20
    431e:	04 2b       	or	r16, r20
    4320:	15 2b       	or	r17, r21
    4322:	26 2b       	or	r18, r22
    4324:	37 2b       	or	r19, r23
    4326:	44 27       	eor	r20, r20
    4328:	58 2f       	mov	r21, r24
    432a:	69 2f       	mov	r22, r25
    432c:	7a 2f       	mov	r23, r26
    432e:	44 27       	eor	r20, r20
    4330:	55 27       	eor	r21, r21
    4332:	77 27       	eor	r23, r23
    4334:	04 2b       	or	r16, r20
    4336:	15 2b       	or	r17, r21
    4338:	26 2b       	or	r18, r22
    433a:	37 2b       	or	r19, r23
    433c:	49 2f       	mov	r20, r25
    433e:	5a 2f       	mov	r21, r26
    4340:	6b 2f       	mov	r22, r27
    4342:	77 27       	eor	r23, r23
    4344:	44 27       	eor	r20, r20
    4346:	66 27       	eor	r22, r22
    4348:	77 27       	eor	r23, r23
    434a:	40 2b       	or	r20, r16
    434c:	51 2b       	or	r21, r17
    434e:	62 2b       	or	r22, r18
    4350:	73 2b       	or	r23, r19
    4352:	40 93 86 08 	sts	0x0886, r20
    4356:	50 93 87 08 	sts	0x0887, r21
    435a:	60 93 88 08 	sts	0x0888, r22
    435e:	70 93 89 08 	sts	0x0889, r23
    4362:	40 93 0f 11 	sts	0x110F, r20
    4366:	50 93 10 11 	sts	0x1110, r21
    436a:	60 93 11 11 	sts	0x1111, r22
    436e:	70 93 12 11 	sts	0x1112, r23
    4372:	0b c0       	rjmp	.+22     	; 0x438a <parseDHCPResponse+0x410>
    4374:	f5 da       	rcall	.-2582   	; 0x3960 <_dhcpUdpSocket_read>
    4376:	f8 2e       	mov	r15, r24
    4378:	88 23       	and	r24, r24
    437a:	39 f0       	breq	.+14     	; 0x438a <parseDHCPResponse+0x410>
    437c:	08 2d       	mov	r16, r8
    437e:	19 2d       	mov	r17, r9
    4380:	ef da       	rcall	.-2594   	; 0x3960 <_dhcpUdpSocket_read>
    4382:	0f 5f       	subi	r16, 0xFF	; 255
    4384:	1f 4f       	sbci	r17, 0xFF	; 255
    4386:	f0 12       	cpse	r15, r16
    4388:	fb cf       	rjmp	.-10     	; 0x4380 <parseDHCPResponse+0x406>
    438a:	f6 01       	movw	r30, r12
    438c:	80 81       	ld	r24, Z
    438e:	91 81       	ldd	r25, Z+1	; 0x01
    4390:	89 2b       	or	r24, r25
    4392:	09 f0       	breq	.+2      	; 0x4396 <parseDHCPResponse+0x41c>
    4394:	a4 ce       	rjmp	.-696    	; 0x40de <parseDHCPResponse+0x164>
    4396:	87 2d       	mov	r24, r7
    4398:	0b c0       	rjmp	.+22     	; 0x43b0 <parseDHCPResponse+0x436>
    439a:	8f ef       	ldi	r24, 0xFF	; 255
    439c:	09 c0       	rjmp	.+18     	; 0x43b0 <parseDHCPResponse+0x436>
    439e:	80 e0       	ldi	r24, 0x00	; 0
    43a0:	07 c0       	rjmp	.+14     	; 0x43b0 <parseDHCPResponse+0x436>
    43a2:	80 e0       	ldi	r24, 0x00	; 0
    43a4:	05 c0       	rjmp	.+10     	; 0x43b0 <parseDHCPResponse+0x436>
    43a6:	80 e0       	ldi	r24, 0x00	; 0
    43a8:	03 c0       	rjmp	.+6      	; 0x43b0 <parseDHCPResponse+0x436>
    43aa:	80 e0       	ldi	r24, 0x00	; 0
    43ac:	01 c0       	rjmp	.+2      	; 0x43b0 <parseDHCPResponse+0x436>
    43ae:	80 e0       	ldi	r24, 0x00	; 0
    43b0:	a2 96       	adiw	r28, 0x22	; 34
    43b2:	0f b6       	in	r0, 0x3f	; 63
    43b4:	f8 94       	cli
    43b6:	de bf       	out	0x3e, r29	; 62
    43b8:	0f be       	out	0x3f, r0	; 63
    43ba:	cd bf       	out	0x3d, r28	; 61
    43bc:	df 91       	pop	r29
    43be:	cf 91       	pop	r28
    43c0:	1f 91       	pop	r17
    43c2:	0f 91       	pop	r16
    43c4:	ff 90       	pop	r15
    43c6:	ef 90       	pop	r14
    43c8:	df 90       	pop	r13
    43ca:	cf 90       	pop	r12
    43cc:	bf 90       	pop	r11
    43ce:	af 90       	pop	r10
    43d0:	9f 90       	pop	r9
    43d2:	8f 90       	pop	r8
    43d4:	7f 90       	pop	r7
    43d6:	5f 90       	pop	r5
    43d8:	4f 90       	pop	r4
    43da:	3f 90       	pop	r3
    43dc:	2f 90       	pop	r2
    43de:	08 95       	ret

000043e0 <random1>:
    43e0:	cf 92       	push	r12
    43e2:	df 92       	push	r13
    43e4:	ef 92       	push	r14
    43e6:	ff 92       	push	r15
    43e8:	6b 01       	movw	r12, r22
    43ea:	7c 01       	movw	r14, r24
    43ec:	61 15       	cp	r22, r1
    43ee:	71 05       	cpc	r23, r1
    43f0:	81 05       	cpc	r24, r1
    43f2:	91 05       	cpc	r25, r1
    43f4:	39 f0       	breq	.+14     	; 0x4404 <random1+0x24>
    43f6:	0e 94 cd 35 	call	0x6b9a	; 0x6b9a <random>
    43fa:	a7 01       	movw	r20, r14
    43fc:	96 01       	movw	r18, r12
    43fe:	0e 94 61 35 	call	0x6ac2	; 0x6ac2 <__divmodsi4>
    4402:	03 c0       	rjmp	.+6      	; 0x440a <random1+0x2a>
    4404:	60 e0       	ldi	r22, 0x00	; 0
    4406:	70 e0       	ldi	r23, 0x00	; 0
    4408:	cb 01       	movw	r24, r22
    440a:	ff 90       	pop	r15
    440c:	ef 90       	pop	r14
    440e:	df 90       	pop	r13
    4410:	cf 90       	pop	r12
    4412:	08 95       	ret

00004414 <DHCP_automat>:
    4414:	cf 93       	push	r28
    4416:	c0 91 6b 05 	lds	r28, 0x056B
    441a:	81 11       	cpse	r24, r1
    441c:	10 c0       	rjmp	.+32     	; 0x443e <DHCP_automat+0x2a>
    441e:	80 91 86 05 	lds	r24, 0x0586
    4422:	81 11       	cpse	r24, r1
    4424:	1e c0       	rjmp	.+60     	; 0x4462 <DHCP_automat+0x4e>
    4426:	80 91 c7 02 	lds	r24, 0x02C7
    442a:	80 93 86 05 	sts	0x0586, r24
    442e:	92 e0       	ldi	r25, 0x02	; 2
    4430:	98 0f       	add	r25, r24
    4432:	90 93 c7 02 	sts	0x02C7, r25
    4436:	8f 5f       	subi	r24, 0xFF	; 255
    4438:	80 93 85 05 	sts	0x0585, r24
    443c:	12 c0       	rjmp	.+36     	; 0x4462 <DHCP_automat+0x4e>
    443e:	c5 30       	cpi	r28, 0x05	; 5
    4440:	c9 f1       	breq	.+114    	; 0x44b4 <DHCP_automat+0xa0>
    4442:	30 f4       	brcc	.+12     	; 0x4450 <DHCP_automat+0x3c>
    4444:	c1 30       	cpi	r28, 0x01	; 1
    4446:	99 f0       	breq	.+38     	; 0x446e <DHCP_automat+0x5a>
    4448:	60 f0       	brcs	.+24     	; 0x4462 <DHCP_automat+0x4e>
    444a:	c3 30       	cpi	r28, 0x03	; 3
    444c:	e1 f0       	breq	.+56     	; 0x4486 <DHCP_automat+0x72>
    444e:	d9 c0       	rjmp	.+434    	; 0x4602 <DHCP_automat+0x1ee>
    4450:	c7 30       	cpi	r28, 0x07	; 7
    4452:	09 f4       	brne	.+2      	; 0x4456 <DHCP_automat+0x42>
    4454:	75 c0       	rjmp	.+234    	; 0x4540 <DHCP_automat+0x12c>
    4456:	08 f4       	brcc	.+2      	; 0x445a <DHCP_automat+0x46>
    4458:	5c c0       	rjmp	.+184    	; 0x4512 <DHCP_automat+0xfe>
    445a:	cf 3f       	cpi	r28, 0xFF	; 255
    445c:	09 f4       	brne	.+2      	; 0x4460 <DHCP_automat+0x4c>
    445e:	c7 c0       	rjmp	.+398    	; 0x45ee <DHCP_automat+0x1da>
    4460:	d0 c0       	rjmp	.+416    	; 0x4602 <DHCP_automat+0x1ee>
    4462:	81 e0       	ldi	r24, 0x01	; 1
    4464:	80 93 6b 05 	sts	0x056B, r24
    4468:	8c 13       	cpse	r24, r28
    446a:	d9 c0       	rjmp	.+434    	; 0x461e <DHCP_automat+0x20a>
    446c:	2b c1       	rjmp	.+598    	; 0x46c4 <DHCP_automat+0x2b0>
    446e:	64 e4       	ldi	r22, 0x44	; 68
    4470:	70 e0       	ldi	r23, 0x00	; 0
    4472:	81 e0       	ldi	r24, 0x01	; 1
    4474:	0e 94 b9 18 	call	0x3172	; 0x3172 <UDPbegin0_Automat>
    4478:	8f 3f       	cpi	r24, 0xFF	; 255
    447a:	09 f0       	breq	.+2      	; 0x447e <DHCP_automat+0x6a>
    447c:	c2 c0       	rjmp	.+388    	; 0x4602 <DHCP_automat+0x1ee>
    447e:	83 e0       	ldi	r24, 0x03	; 3
    4480:	80 93 6b 05 	sts	0x056B, r24
    4484:	14 c1       	rjmp	.+552    	; 0x46ae <DHCP_automat+0x29a>
    4486:	4a e0       	ldi	r20, 0x0A	; 10
    4488:	50 e0       	ldi	r21, 0x00	; 0
    448a:	61 e0       	ldi	r22, 0x01	; 1
    448c:	81 e0       	ldi	r24, 0x01	; 1
    448e:	47 dd       	rcall	.-1394   	; 0x3f1e <send_DHCP_MESSAGE_Automat>
    4490:	8f 3f       	cpi	r24, 0xFF	; 255
    4492:	09 f0       	breq	.+2      	; 0x4496 <DHCP_automat+0x82>
    4494:	b6 c0       	rjmp	.+364    	; 0x4602 <DHCP_automat+0x1ee>
    4496:	81 e0       	ldi	r24, 0x01	; 1
    4498:	80 93 0e 11 	sts	0x110E, r24
    449c:	48 ee       	ldi	r20, 0xE8	; 232
    449e:	53 e0       	ldi	r21, 0x03	; 3
    44a0:	60 e0       	ldi	r22, 0x00	; 0
    44a2:	70 e0       	ldi	r23, 0x00	; 0
    44a4:	80 91 86 05 	lds	r24, 0x0586
    44a8:	0e 94 4a 09 	call	0x1294	; 0x1294 <StartTimer32>
    44ac:	85 e0       	ldi	r24, 0x05	; 5
    44ae:	80 93 6b 05 	sts	0x056B, r24
    44b2:	08 c1       	rjmp	.+528    	; 0x46c4 <DHCP_automat+0x2b0>
    44b4:	60 91 7b 08 	lds	r22, 0x087B
    44b8:	70 91 7c 08 	lds	r23, 0x087C
    44bc:	80 91 7d 08 	lds	r24, 0x087D
    44c0:	90 91 7e 08 	lds	r25, 0x087E
    44c4:	41 e0       	ldi	r20, 0x01	; 1
    44c6:	51 e1       	ldi	r21, 0x11	; 17
    44c8:	58 dd       	rcall	.-1360   	; 0x3f7a <parseDHCPResponse>
    44ca:	82 30       	cpi	r24, 0x02	; 2
    44cc:	a1 f4       	brne	.+40     	; 0x44f6 <DHCP_automat+0xe2>
    44ce:	80 91 01 11 	lds	r24, 0x1101
    44d2:	90 91 02 11 	lds	r25, 0x1102
    44d6:	a0 91 03 11 	lds	r26, 0x1103
    44da:	b0 91 04 11 	lds	r27, 0x1104
    44de:	80 93 91 08 	sts	0x0891, r24
    44e2:	90 93 92 08 	sts	0x0892, r25
    44e6:	a0 93 93 08 	sts	0x0893, r26
    44ea:	b0 93 94 08 	sts	0x0894, r27
    44ee:	86 e0       	ldi	r24, 0x06	; 6
    44f0:	80 93 6b 05 	sts	0x056B, r24
    44f4:	e2 c0       	rjmp	.+452    	; 0x46ba <DHCP_automat+0x2a6>
    44f6:	80 91 86 05 	lds	r24, 0x0586
    44fa:	0e 94 b9 09 	call	0x1372	; 0x1372 <Timer32Stopp>
    44fe:	88 23       	and	r24, r24
    4500:	21 f0       	breq	.+8      	; 0x450a <DHCP_automat+0xf6>
    4502:	81 e0       	ldi	r24, 0x01	; 1
    4504:	80 93 6b 05 	sts	0x056B, r24
    4508:	8a c0       	rjmp	.+276    	; 0x461e <DHCP_automat+0x20a>
    450a:	85 e0       	ldi	r24, 0x05	; 5
    450c:	80 93 6b 05 	sts	0x056B, r24
    4510:	d9 c0       	rjmp	.+434    	; 0x46c4 <DHCP_automat+0x2b0>
    4512:	44 e6       	ldi	r20, 0x64	; 100
    4514:	50 e0       	ldi	r21, 0x00	; 0
    4516:	63 e0       	ldi	r22, 0x03	; 3
    4518:	81 e0       	ldi	r24, 0x01	; 1
    451a:	01 dd       	rcall	.-1534   	; 0x3f1e <send_DHCP_MESSAGE_Automat>
    451c:	8f 3f       	cpi	r24, 0xFF	; 255
    451e:	09 f0       	breq	.+2      	; 0x4522 <DHCP_automat+0x10e>
    4520:	70 c0       	rjmp	.+224    	; 0x4602 <DHCP_automat+0x1ee>
    4522:	82 e0       	ldi	r24, 0x02	; 2
    4524:	80 93 0e 11 	sts	0x110E, r24
    4528:	44 ef       	ldi	r20, 0xF4	; 244
    452a:	51 e0       	ldi	r21, 0x01	; 1
    452c:	60 e0       	ldi	r22, 0x00	; 0
    452e:	70 e0       	ldi	r23, 0x00	; 0
    4530:	80 91 86 05 	lds	r24, 0x0586
    4534:	0e 94 4a 09 	call	0x1294	; 0x1294 <StartTimer32>
    4538:	87 e0       	ldi	r24, 0x07	; 7
    453a:	80 93 6b 05 	sts	0x056B, r24
    453e:	c2 c0       	rjmp	.+388    	; 0x46c4 <DHCP_automat+0x2b0>
    4540:	60 91 7b 08 	lds	r22, 0x087B
    4544:	70 91 7c 08 	lds	r23, 0x087C
    4548:	80 91 7d 08 	lds	r24, 0x087D
    454c:	90 91 7e 08 	lds	r25, 0x087E
    4550:	41 e0       	ldi	r20, 0x01	; 1
    4552:	51 e1       	ldi	r21, 0x11	; 17
    4554:	12 dd       	rcall	.-1500   	; 0x3f7a <parseDHCPResponse>
    4556:	85 30       	cpi	r24, 0x05	; 5
    4558:	b1 f5       	brne	.+108    	; 0x45c6 <DHCP_automat+0x1b2>
    455a:	20 91 71 08 	lds	r18, 0x0871
    455e:	30 e0       	ldi	r19, 0x00	; 0
    4560:	40 91 70 08 	lds	r20, 0x0870
    4564:	50 e0       	ldi	r21, 0x00	; 0
    4566:	60 91 6f 08 	lds	r22, 0x086F
    456a:	70 e0       	ldi	r23, 0x00	; 0
    456c:	80 91 6e 08 	lds	r24, 0x086E
    4570:	90 e0       	ldi	r25, 0x00	; 0
    4572:	0e 94 3e 05 	call	0xa7c	; 0xa7c <W5100_SetIP>
    4576:	20 91 84 08 	lds	r18, 0x0884
    457a:	30 e0       	ldi	r19, 0x00	; 0
    457c:	40 91 83 08 	lds	r20, 0x0883
    4580:	50 e0       	ldi	r21, 0x00	; 0
    4582:	60 91 82 08 	lds	r22, 0x0882
    4586:	70 e0       	ldi	r23, 0x00	; 0
    4588:	80 91 81 08 	lds	r24, 0x0881
    458c:	90 e0       	ldi	r25, 0x00	; 0
    458e:	0e 94 59 05 	call	0xab2	; 0xab2 <W5100_SetGateway>
    4592:	20 91 de 10 	lds	r18, 0x10DE
    4596:	30 e0       	ldi	r19, 0x00	; 0
    4598:	40 91 dd 10 	lds	r20, 0x10DD
    459c:	50 e0       	ldi	r21, 0x00	; 0
    459e:	60 91 dc 10 	lds	r22, 0x10DC
    45a2:	70 e0       	ldi	r23, 0x00	; 0
    45a4:	80 91 db 10 	lds	r24, 0x10DB
    45a8:	90 e0       	ldi	r25, 0x00	; 0
    45aa:	0e 94 74 05 	call	0xae8	; 0xae8 <W5100_SetMask>
    45ae:	48 eb       	ldi	r20, 0xB8	; 184
    45b0:	5b e0       	ldi	r21, 0x0B	; 11
    45b2:	60 e0       	ldi	r22, 0x00	; 0
    45b4:	70 e0       	ldi	r23, 0x00	; 0
    45b6:	80 91 85 05 	lds	r24, 0x0585
    45ba:	0e 94 4a 09 	call	0x1294	; 0x1294 <StartTimer32>
    45be:	8f ef       	ldi	r24, 0xFF	; 255
    45c0:	80 93 6b 05 	sts	0x056B, r24
    45c4:	7f c0       	rjmp	.+254    	; 0x46c4 <DHCP_automat+0x2b0>
    45c6:	86 30       	cpi	r24, 0x06	; 6
    45c8:	21 f4       	brne	.+8      	; 0x45d2 <DHCP_automat+0x1be>
    45ca:	83 e0       	ldi	r24, 0x03	; 3
    45cc:	80 93 6b 05 	sts	0x056B, r24
    45d0:	6e c0       	rjmp	.+220    	; 0x46ae <DHCP_automat+0x29a>
    45d2:	80 91 86 05 	lds	r24, 0x0586
    45d6:	0e 94 b9 09 	call	0x1372	; 0x1372 <Timer32Stopp>
    45da:	88 23       	and	r24, r24
    45dc:	21 f0       	breq	.+8      	; 0x45e6 <DHCP_automat+0x1d2>
    45de:	81 e0       	ldi	r24, 0x01	; 1
    45e0:	80 93 6b 05 	sts	0x056B, r24
    45e4:	1c c0       	rjmp	.+56     	; 0x461e <DHCP_automat+0x20a>
    45e6:	87 e0       	ldi	r24, 0x07	; 7
    45e8:	80 93 6b 05 	sts	0x056B, r24
    45ec:	6b c0       	rjmp	.+214    	; 0x46c4 <DHCP_automat+0x2b0>
    45ee:	80 91 85 05 	lds	r24, 0x0585
    45f2:	0e 94 b9 09 	call	0x1372	; 0x1372 <Timer32Stopp>
    45f6:	88 23       	and	r24, r24
    45f8:	21 f0       	breq	.+8      	; 0x4602 <DHCP_automat+0x1ee>
    45fa:	86 e0       	ldi	r24, 0x06	; 6
    45fc:	80 93 6b 05 	sts	0x056B, r24
    4600:	5c c0       	rjmp	.+184    	; 0x46ba <DHCP_automat+0x2a6>
    4602:	80 91 6b 05 	lds	r24, 0x056B
    4606:	8c 17       	cp	r24, r28
    4608:	09 f4       	brne	.+2      	; 0x460c <DHCP_automat+0x1f8>
    460a:	5c c0       	rjmp	.+184    	; 0x46c4 <DHCP_automat+0x2b0>
    460c:	83 30       	cpi	r24, 0x03	; 3
    460e:	09 f4       	brne	.+2      	; 0x4612 <DHCP_automat+0x1fe>
    4610:	4e c0       	rjmp	.+156    	; 0x46ae <DHCP_automat+0x29a>
    4612:	86 30       	cpi	r24, 0x06	; 6
    4614:	09 f4       	brne	.+2      	; 0x4618 <DHCP_automat+0x204>
    4616:	51 c0       	rjmp	.+162    	; 0x46ba <DHCP_automat+0x2a6>
    4618:	81 30       	cpi	r24, 0x01	; 1
    461a:	09 f0       	breq	.+2      	; 0x461e <DHCP_automat+0x20a>
    461c:	53 c0       	rjmp	.+166    	; 0x46c4 <DHCP_automat+0x2b0>
    461e:	6f ec       	ldi	r22, 0xCF	; 207
    4620:	77 e0       	ldi	r23, 0x07	; 7
    4622:	80 e0       	ldi	r24, 0x00	; 0
    4624:	90 e0       	ldi	r25, 0x00	; 0
    4626:	dc de       	rcall	.-584    	; 0x43e0 <random1>
    4628:	dc 01       	movw	r26, r24
    462a:	cb 01       	movw	r24, r22
    462c:	01 96       	adiw	r24, 0x01	; 1
    462e:	a1 1d       	adc	r26, r1
    4630:	b1 1d       	adc	r27, r1
    4632:	80 93 91 08 	sts	0x0891, r24
    4636:	90 93 92 08 	sts	0x0892, r25
    463a:	a0 93 93 08 	sts	0x0893, r26
    463e:	b0 93 94 08 	sts	0x0894, r27
    4642:	80 93 cd 0c 	sts	0x0CCD, r24
    4646:	90 93 ce 0c 	sts	0x0CCE, r25
    464a:	a0 93 cf 0c 	sts	0x0CCF, r26
    464e:	b0 93 d0 0c 	sts	0x0CD0, r27
    4652:	10 92 6e 08 	sts	0x086E, r1
    4656:	10 92 6f 08 	sts	0x086F, r1
    465a:	10 92 70 08 	sts	0x0870, r1
    465e:	10 92 71 08 	sts	0x0871, r1
    4662:	10 92 db 10 	sts	0x10DB, r1
    4666:	10 92 dc 10 	sts	0x10DC, r1
    466a:	10 92 dd 10 	sts	0x10DD, r1
    466e:	10 92 de 10 	sts	0x10DE, r1
    4672:	10 92 81 08 	sts	0x0881, r1
    4676:	10 92 82 08 	sts	0x0882, r1
    467a:	10 92 83 08 	sts	0x0883, r1
    467e:	10 92 84 08 	sts	0x0884, r1
    4682:	10 92 c4 07 	sts	0x07C4, r1
    4686:	10 92 c5 07 	sts	0x07C5, r1
    468a:	10 92 c6 07 	sts	0x07C6, r1
    468e:	10 92 c7 07 	sts	0x07C7, r1
    4692:	10 92 09 11 	sts	0x1109, r1
    4696:	10 92 0a 11 	sts	0x110A, r1
    469a:	10 92 0b 11 	sts	0x110B, r1
    469e:	10 92 0c 11 	sts	0x110C, r1
    46a2:	64 e4       	ldi	r22, 0x44	; 68
    46a4:	70 e0       	ldi	r23, 0x00	; 0
    46a6:	80 e0       	ldi	r24, 0x00	; 0
    46a8:	0e 94 b9 18 	call	0x3172	; 0x3172 <UDPbegin0_Automat>
    46ac:	0b c0       	rjmp	.+22     	; 0x46c4 <DHCP_automat+0x2b0>
    46ae:	4a e0       	ldi	r20, 0x0A	; 10
    46b0:	50 e0       	ldi	r21, 0x00	; 0
    46b2:	61 e0       	ldi	r22, 0x01	; 1
    46b4:	80 e0       	ldi	r24, 0x00	; 0
    46b6:	33 dc       	rcall	.-1946   	; 0x3f1e <send_DHCP_MESSAGE_Automat>
    46b8:	05 c0       	rjmp	.+10     	; 0x46c4 <DHCP_automat+0x2b0>
    46ba:	4a e0       	ldi	r20, 0x0A	; 10
    46bc:	50 e0       	ldi	r21, 0x00	; 0
    46be:	63 e0       	ldi	r22, 0x03	; 3
    46c0:	80 e0       	ldi	r24, 0x00	; 0
    46c2:	2d dc       	rcall	.-1958   	; 0x3f1e <send_DHCP_MESSAGE_Automat>
    46c4:	80 91 6b 05 	lds	r24, 0x056B
    46c8:	cf 91       	pop	r28
    46ca:	08 95       	ret

000046cc <SNMP_OID_toString>:
    46cc:	af 92       	push	r10
    46ce:	bf 92       	push	r11
    46d0:	cf 92       	push	r12
    46d2:	df 92       	push	r13
    46d4:	ef 92       	push	r14
    46d6:	ff 92       	push	r15
    46d8:	0f 93       	push	r16
    46da:	1f 93       	push	r17
    46dc:	cf 93       	push	r28
    46de:	df 93       	push	r29
    46e0:	cd b7       	in	r28, 0x3d	; 61
    46e2:	de b7       	in	r29, 0x3e	; 62
    46e4:	60 97       	sbiw	r28, 0x10	; 16
    46e6:	0f b6       	in	r0, 0x3f	; 63
    46e8:	f8 94       	cli
    46ea:	de bf       	out	0x3e, r29	; 62
    46ec:	0f be       	out	0x3f, r0	; 63
    46ee:	cd bf       	out	0x3d, r28	; 61
    46f0:	a2 96       	adiw	r28, 0x22	; 34
    46f2:	0e ad       	ldd	r16, Y+62	; 0x3e
    46f4:	1f ad       	ldd	r17, Y+63	; 0x3f
    46f6:	a2 97       	sbiw	r28, 0x22	; 34
    46f8:	81 e3       	ldi	r24, 0x31	; 49
    46fa:	f8 01       	movw	r30, r16
    46fc:	80 83       	st	Z, r24
    46fe:	8e e2       	ldi	r24, 0x2E	; 46
    4700:	81 83       	std	Z+1, r24	; 0x01
    4702:	83 e3       	ldi	r24, 0x33	; 51
    4704:	82 83       	std	Z+2, r24	; 0x02
    4706:	13 82       	std	Z+3, r1	; 0x03
    4708:	6f 96       	adiw	r28, 0x1f	; 31
    470a:	df ac       	ldd	r13, Y+63	; 0x3f
    470c:	6f 97       	sbiw	r28, 0x1f	; 31
    470e:	da 94       	dec	r13
    4710:	09 f4       	brne	.+2      	; 0x4714 <SNMP_OID_toString+0x48>
    4712:	4e c0       	rjmp	.+156    	; 0x47b0 <SNMP_OID_toString+0xe4>
    4714:	21 e0       	ldi	r18, 0x01	; 1
    4716:	a1 2c       	mov	r10, r1
    4718:	b1 2c       	mov	r11, r1
    471a:	0f 2e       	mov	r0, r31
    471c:	fe e2       	ldi	r31, 0x2E	; 46
    471e:	ef 2e       	mov	r14, r31
    4720:	f1 2c       	mov	r15, r1
    4722:	f0 2d       	mov	r31, r0
    4724:	8a 2d       	mov	r24, r10
    4726:	9b 2d       	mov	r25, r11
    4728:	cc 24       	eor	r12, r12
    472a:	c3 94       	inc	r12
    472c:	c2 0e       	add	r12, r18
    472e:	ee e1       	ldi	r30, 0x1E	; 30
    4730:	f0 e0       	ldi	r31, 0x00	; 0
    4732:	ec 0f       	add	r30, r28
    4734:	fd 1f       	adc	r31, r29
    4736:	e2 0f       	add	r30, r18
    4738:	f1 1d       	adc	r31, r1
    473a:	20 81       	ld	r18, Z
    473c:	96 95       	lsr	r25
    473e:	98 2f       	mov	r25, r24
    4740:	88 27       	eor	r24, r24
    4742:	97 95       	ror	r25
    4744:	87 95       	ror	r24
    4746:	32 2f       	mov	r19, r18
    4748:	3f 77       	andi	r19, 0x7F	; 127
    474a:	83 0f       	add	r24, r19
    474c:	91 1d       	adc	r25, r1
    474e:	da 94       	dec	r13
    4750:	21 f0       	breq	.+8      	; 0x475a <SNMP_OID_toString+0x8e>
    4752:	22 23       	and	r18, r18
    4754:	c4 f4       	brge	.+48     	; 0x4786 <SNMP_OID_toString+0xba>
    4756:	2c 2d       	mov	r18, r12
    4758:	e7 cf       	rjmp	.-50     	; 0x4728 <SNMP_OID_toString+0x5c>
    475a:	4a e0       	ldi	r20, 0x0A	; 10
    475c:	be 01       	movw	r22, r28
    475e:	6f 5f       	subi	r22, 0xFF	; 255
    4760:	7f 4f       	sbci	r23, 0xFF	; 255
    4762:	0e 94 03 36 	call	0x6c06	; 0x6c06 <__utoa_ncheck>
    4766:	f8 01       	movw	r30, r16
    4768:	01 90       	ld	r0, Z+
    476a:	00 20       	and	r0, r0
    476c:	e9 f7       	brne	.-6      	; 0x4768 <SNMP_OID_toString+0x9c>
    476e:	31 97       	sbiw	r30, 0x01	; 1
    4770:	8e e2       	ldi	r24, 0x2E	; 46
    4772:	90 e0       	ldi	r25, 0x00	; 0
    4774:	91 83       	std	Z+1, r25	; 0x01
    4776:	80 83       	st	Z, r24
    4778:	be 01       	movw	r22, r28
    477a:	6f 5f       	subi	r22, 0xFF	; 255
    477c:	7f 4f       	sbci	r23, 0xFF	; 255
    477e:	c8 01       	movw	r24, r16
    4780:	0e 94 ef 35 	call	0x6bde	; 0x6bde <strcat>
    4784:	15 c0       	rjmp	.+42     	; 0x47b0 <SNMP_OID_toString+0xe4>
    4786:	4a e0       	ldi	r20, 0x0A	; 10
    4788:	be 01       	movw	r22, r28
    478a:	6f 5f       	subi	r22, 0xFF	; 255
    478c:	7f 4f       	sbci	r23, 0xFF	; 255
    478e:	0e 94 03 36 	call	0x6c06	; 0x6c06 <__utoa_ncheck>
    4792:	f8 01       	movw	r30, r16
    4794:	01 90       	ld	r0, Z+
    4796:	00 20       	and	r0, r0
    4798:	e9 f7       	brne	.-6      	; 0x4794 <SNMP_OID_toString+0xc8>
    479a:	31 97       	sbiw	r30, 0x01	; 1
    479c:	f1 82       	std	Z+1, r15	; 0x01
    479e:	e0 82       	st	Z, r14
    47a0:	be 01       	movw	r22, r28
    47a2:	6f 5f       	subi	r22, 0xFF	; 255
    47a4:	7f 4f       	sbci	r23, 0xFF	; 255
    47a6:	c8 01       	movw	r24, r16
    47a8:	0e 94 ef 35 	call	0x6bde	; 0x6bde <strcat>
    47ac:	2c 2d       	mov	r18, r12
    47ae:	ba cf       	rjmp	.-140    	; 0x4724 <SNMP_OID_toString+0x58>
    47b0:	60 96       	adiw	r28, 0x10	; 16
    47b2:	0f b6       	in	r0, 0x3f	; 63
    47b4:	f8 94       	cli
    47b6:	de bf       	out	0x3e, r29	; 62
    47b8:	0f be       	out	0x3f, r0	; 63
    47ba:	cd bf       	out	0x3d, r28	; 61
    47bc:	df 91       	pop	r29
    47be:	cf 91       	pop	r28
    47c0:	1f 91       	pop	r17
    47c2:	0f 91       	pop	r16
    47c4:	ff 90       	pop	r15
    47c6:	ef 90       	pop	r14
    47c8:	df 90       	pop	r13
    47ca:	cf 90       	pop	r12
    47cc:	bf 90       	pop	r11
    47ce:	af 90       	pop	r10
    47d0:	08 95       	ret

000047d2 <clear>:
    47d2:	20 e4       	ldi	r18, 0x40	; 64
    47d4:	fc 01       	movw	r30, r24
    47d6:	11 92       	st	Z+, r1
    47d8:	2a 95       	dec	r18
    47da:	e9 f7       	brne	.-6      	; 0x47d6 <clear+0x4>
    47dc:	fc 01       	movw	r30, r24
    47de:	e0 5c       	subi	r30, 0xC0	; 192
    47e0:	ff 4f       	sbci	r31, 0xFF	; 255
    47e2:	11 82       	std	Z+1, r1	; 0x01
    47e4:	10 82       	st	Z, r1
    47e6:	08 95       	ret

000047e8 <decodeOctetStringToString>:
    47e8:	8f 92       	push	r8
    47ea:	9f 92       	push	r9
    47ec:	af 92       	push	r10
    47ee:	bf 92       	push	r11
    47f0:	cf 92       	push	r12
    47f2:	df 92       	push	r13
    47f4:	ef 92       	push	r14
    47f6:	ff 92       	push	r15
    47f8:	0f 93       	push	r16
    47fa:	1f 93       	push	r17
    47fc:	cf 93       	push	r28
    47fe:	df 93       	push	r29
    4800:	cd b7       	in	r28, 0x3d	; 61
    4802:	de b7       	in	r29, 0x3e	; 62
    4804:	60 97       	sbiw	r28, 0x10	; 16
    4806:	0f b6       	in	r0, 0x3f	; 63
    4808:	f8 94       	cli
    480a:	de bf       	out	0x3e, r29	; 62
    480c:	0f be       	out	0x3f, r0	; 63
    480e:	cd bf       	out	0x3d, r28	; 61
    4810:	8c 01       	movw	r16, r24
    4812:	7b 01       	movw	r14, r22
    4814:	fc 01       	movw	r30, r24
    4816:	ee 5b       	subi	r30, 0xBE	; 190
    4818:	ff 4f       	sbci	r31, 0xFF	; 255
    481a:	80 81       	ld	r24, Z
    481c:	84 30       	cpi	r24, 0x04	; 4
    481e:	09 f4       	brne	.+2      	; 0x4822 <decodeOctetStringToString+0x3a>
    4820:	7d c0       	rjmp	.+250    	; 0x491c <decodeOctetStringToString+0x134>
    4822:	86 30       	cpi	r24, 0x06	; 6
    4824:	09 f4       	brne	.+2      	; 0x4828 <decodeOctetStringToString+0x40>
    4826:	6d c0       	rjmp	.+218    	; 0x4902 <decodeOctetStringToString+0x11a>
    4828:	84 34       	cpi	r24, 0x44	; 68
    482a:	09 f0       	breq	.+2      	; 0x482e <decodeOctetStringToString+0x46>
    482c:	66 c0       	rjmp	.+204    	; 0x48fa <decodeOctetStringToString+0x112>
    482e:	76 c0       	rjmp	.+236    	; 0x491c <decodeOctetStringToString+0x134>
    4830:	81 e3       	ldi	r24, 0x31	; 49
    4832:	d7 01       	movw	r26, r14
    4834:	8c 93       	st	X, r24
    4836:	8e e2       	ldi	r24, 0x2E	; 46
    4838:	11 96       	adiw	r26, 0x01	; 1
    483a:	8c 93       	st	X, r24
    483c:	11 97       	sbiw	r26, 0x01	; 1
    483e:	83 e3       	ldi	r24, 0x33	; 51
    4840:	12 96       	adiw	r26, 0x02	; 2
    4842:	8c 93       	st	X, r24
    4844:	12 97       	sbiw	r26, 0x02	; 2
    4846:	13 96       	adiw	r26, 0x03	; 3
    4848:	1c 92       	st	X, r1
    484a:	f8 01       	movw	r30, r16
    484c:	e0 5c       	subi	r30, 0xC0	; 192
    484e:	ff 4f       	sbci	r31, 0xFF	; 255
    4850:	b0 80       	ld	r11, Z
    4852:	ba 94       	dec	r11
    4854:	11 f1       	breq	.+68     	; 0x489a <decodeOctetStringToString+0xb2>
    4856:	81 e0       	ldi	r24, 0x01	; 1
    4858:	81 2c       	mov	r8, r1
    485a:	91 2c       	mov	r9, r1
    485c:	0f 2e       	mov	r0, r31
    485e:	fe e2       	ldi	r31, 0x2E	; 46
    4860:	cf 2e       	mov	r12, r31
    4862:	d1 2c       	mov	r13, r1
    4864:	f0 2d       	mov	r31, r0
    4866:	28 2d       	mov	r18, r8
    4868:	39 2d       	mov	r19, r9
    486a:	aa 24       	eor	r10, r10
    486c:	a3 94       	inc	r10
    486e:	a8 0e       	add	r10, r24
    4870:	f8 01       	movw	r30, r16
    4872:	e8 0f       	add	r30, r24
    4874:	f1 1d       	adc	r31, r1
    4876:	80 81       	ld	r24, Z
    4878:	36 95       	lsr	r19
    487a:	32 2f       	mov	r19, r18
    487c:	22 27       	eor	r18, r18
    487e:	37 95       	ror	r19
    4880:	27 95       	ror	r18
    4882:	98 2f       	mov	r25, r24
    4884:	9f 77       	andi	r25, 0x7F	; 127
    4886:	29 0f       	add	r18, r25
    4888:	31 1d       	adc	r19, r1
    488a:	ba 94       	dec	r11
    488c:	09 f4       	brne	.+2      	; 0x4890 <decodeOctetStringToString+0xa8>
    488e:	53 c0       	rjmp	.+166    	; 0x4936 <decodeOctetStringToString+0x14e>
    4890:	88 23       	and	r24, r24
    4892:	0c f0       	brlt	.+2      	; 0x4896 <decodeOctetStringToString+0xae>
    4894:	67 c0       	rjmp	.+206    	; 0x4964 <decodeOctetStringToString+0x17c>
    4896:	8a 2d       	mov	r24, r10
    4898:	e8 cf       	rjmp	.-48     	; 0x486a <decodeOctetStringToString+0x82>
    489a:	80 e0       	ldi	r24, 0x00	; 0
    489c:	79 c0       	rjmp	.+242    	; 0x4990 <decodeOctetStringToString+0x1a8>
    489e:	f8 01       	movw	r30, r16
    48a0:	ed 5b       	subi	r30, 0xBD	; 189
    48a2:	ff 4f       	sbci	r31, 0xFF	; 255
    48a4:	10 82       	st	Z, r1
    48a6:	33 97       	sbiw	r30, 0x03	; 3
    48a8:	20 81       	ld	r18, Z
    48aa:	31 81       	ldd	r19, Z+1	; 0x01
    48ac:	21 15       	cp	r18, r1
    48ae:	31 05       	cpc	r19, r1
    48b0:	d1 f0       	breq	.+52     	; 0x48e6 <decodeOctetStringToString+0xfe>
    48b2:	80 e0       	ldi	r24, 0x00	; 0
    48b4:	90 e0       	ldi	r25, 0x00	; 0
    48b6:	60 e0       	ldi	r22, 0x00	; 0
    48b8:	33 96       	adiw	r30, 0x03	; 3
    48ba:	a8 01       	movw	r20, r16
    48bc:	40 5c       	subi	r20, 0xC0	; 192
    48be:	5f 4f       	sbci	r21, 0xFF	; 255
    48c0:	d8 01       	movw	r26, r16
    48c2:	a6 0f       	add	r26, r22
    48c4:	b1 1d       	adc	r27, r1
    48c6:	2c 91       	ld	r18, X
    48c8:	d7 01       	movw	r26, r14
    48ca:	a8 0f       	add	r26, r24
    48cc:	b9 1f       	adc	r27, r25
    48ce:	2c 93       	st	X, r18
    48d0:	60 81       	ld	r22, Z
    48d2:	6f 5f       	subi	r22, 0xFF	; 255
    48d4:	60 83       	st	Z, r22
    48d6:	86 2f       	mov	r24, r22
    48d8:	90 e0       	ldi	r25, 0x00	; 0
    48da:	da 01       	movw	r26, r20
    48dc:	2d 91       	ld	r18, X+
    48de:	3c 91       	ld	r19, X
    48e0:	82 17       	cp	r24, r18
    48e2:	93 07       	cpc	r25, r19
    48e4:	68 f3       	brcs	.-38     	; 0x48c0 <decodeOctetStringToString+0xd8>
    48e6:	f7 01       	movw	r30, r14
    48e8:	e2 0f       	add	r30, r18
    48ea:	f3 1f       	adc	r31, r19
    48ec:	10 82       	st	Z, r1
    48ee:	80 e0       	ldi	r24, 0x00	; 0
    48f0:	4f c0       	rjmp	.+158    	; 0x4990 <decodeOctetStringToString+0x1a8>
    48f2:	c8 01       	movw	r24, r16
    48f4:	6e df       	rcall	.-292    	; 0x47d2 <clear>
    48f6:	81 e0       	ldi	r24, 0x01	; 1
    48f8:	4b c0       	rjmp	.+150    	; 0x4990 <decodeOctetStringToString+0x1a8>
    48fa:	c8 01       	movw	r24, r16
    48fc:	6a df       	rcall	.-300    	; 0x47d2 <clear>
    48fe:	87 e0       	ldi	r24, 0x07	; 7
    4900:	47 c0       	rjmp	.+142    	; 0x4990 <decodeOctetStringToString+0x1a8>
    4902:	fb 01       	movw	r30, r22
    4904:	01 90       	ld	r0, Z+
    4906:	00 20       	and	r0, r0
    4908:	e9 f7       	brne	.-6      	; 0x4904 <decodeOctetStringToString+0x11c>
    490a:	cf 01       	movw	r24, r30
    490c:	86 1b       	sub	r24, r22
    490e:	97 0b       	sbc	r25, r23
    4910:	02 97       	sbiw	r24, 0x02	; 2
    4912:	84 17       	cp	r24, r20
    4914:	95 07       	cpc	r25, r21
    4916:	08 f4       	brcc	.+2      	; 0x491a <decodeOctetStringToString+0x132>
    4918:	8b cf       	rjmp	.-234    	; 0x4830 <decodeOctetStringToString+0x48>
    491a:	eb cf       	rjmp	.-42     	; 0x48f2 <decodeOctetStringToString+0x10a>
    491c:	f7 01       	movw	r30, r14
    491e:	01 90       	ld	r0, Z+
    4920:	00 20       	and	r0, r0
    4922:	e9 f7       	brne	.-6      	; 0x491e <decodeOctetStringToString+0x136>
    4924:	cf 01       	movw	r24, r30
    4926:	8e 19       	sub	r24, r14
    4928:	9f 09       	sbc	r25, r15
    492a:	02 97       	sbiw	r24, 0x02	; 2
    492c:	84 17       	cp	r24, r20
    492e:	95 07       	cpc	r25, r21
    4930:	08 f4       	brcc	.+2      	; 0x4934 <decodeOctetStringToString+0x14c>
    4932:	b5 cf       	rjmp	.-150    	; 0x489e <decodeOctetStringToString+0xb6>
    4934:	de cf       	rjmp	.-68     	; 0x48f2 <decodeOctetStringToString+0x10a>
    4936:	4a e0       	ldi	r20, 0x0A	; 10
    4938:	be 01       	movw	r22, r28
    493a:	6f 5f       	subi	r22, 0xFF	; 255
    493c:	7f 4f       	sbci	r23, 0xFF	; 255
    493e:	c9 01       	movw	r24, r18
    4940:	0e 94 03 36 	call	0x6c06	; 0x6c06 <__utoa_ncheck>
    4944:	f7 01       	movw	r30, r14
    4946:	01 90       	ld	r0, Z+
    4948:	00 20       	and	r0, r0
    494a:	e9 f7       	brne	.-6      	; 0x4946 <decodeOctetStringToString+0x15e>
    494c:	31 97       	sbiw	r30, 0x01	; 1
    494e:	8e e2       	ldi	r24, 0x2E	; 46
    4950:	90 e0       	ldi	r25, 0x00	; 0
    4952:	91 83       	std	Z+1, r25	; 0x01
    4954:	80 83       	st	Z, r24
    4956:	be 01       	movw	r22, r28
    4958:	6f 5f       	subi	r22, 0xFF	; 255
    495a:	7f 4f       	sbci	r23, 0xFF	; 255
    495c:	c7 01       	movw	r24, r14
    495e:	0e 94 ef 35 	call	0x6bde	; 0x6bde <strcat>
    4962:	9b cf       	rjmp	.-202    	; 0x489a <decodeOctetStringToString+0xb2>
    4964:	4a e0       	ldi	r20, 0x0A	; 10
    4966:	be 01       	movw	r22, r28
    4968:	6f 5f       	subi	r22, 0xFF	; 255
    496a:	7f 4f       	sbci	r23, 0xFF	; 255
    496c:	c9 01       	movw	r24, r18
    496e:	0e 94 03 36 	call	0x6c06	; 0x6c06 <__utoa_ncheck>
    4972:	f7 01       	movw	r30, r14
    4974:	01 90       	ld	r0, Z+
    4976:	00 20       	and	r0, r0
    4978:	e9 f7       	brne	.-6      	; 0x4974 <decodeOctetStringToString+0x18c>
    497a:	31 97       	sbiw	r30, 0x01	; 1
    497c:	d1 82       	std	Z+1, r13	; 0x01
    497e:	c0 82       	st	Z, r12
    4980:	be 01       	movw	r22, r28
    4982:	6f 5f       	subi	r22, 0xFF	; 255
    4984:	7f 4f       	sbci	r23, 0xFF	; 255
    4986:	c7 01       	movw	r24, r14
    4988:	0e 94 ef 35 	call	0x6bde	; 0x6bde <strcat>
    498c:	8a 2d       	mov	r24, r10
    498e:	6b cf       	rjmp	.-298    	; 0x4866 <decodeOctetStringToString+0x7e>
    4990:	60 96       	adiw	r28, 0x10	; 16
    4992:	0f b6       	in	r0, 0x3f	; 63
    4994:	f8 94       	cli
    4996:	de bf       	out	0x3e, r29	; 62
    4998:	0f be       	out	0x3f, r0	; 63
    499a:	cd bf       	out	0x3d, r28	; 61
    499c:	df 91       	pop	r29
    499e:	cf 91       	pop	r28
    49a0:	1f 91       	pop	r17
    49a2:	0f 91       	pop	r16
    49a4:	ff 90       	pop	r15
    49a6:	ef 90       	pop	r14
    49a8:	df 90       	pop	r13
    49aa:	cf 90       	pop	r12
    49ac:	bf 90       	pop	r11
    49ae:	af 90       	pop	r10
    49b0:	9f 90       	pop	r9
    49b2:	8f 90       	pop	r8
    49b4:	08 95       	ret

000049b6 <decodeInt16toHoldReg>:
    49b6:	1f 93       	push	r17
    49b8:	cf 93       	push	r28
    49ba:	df 93       	push	r29
    49bc:	fc 01       	movw	r30, r24
    49be:	ee 5b       	subi	r30, 0xBE	; 190
    49c0:	ff 4f       	sbci	r31, 0xFF	; 255
    49c2:	20 81       	ld	r18, Z
    49c4:	22 30       	cpi	r18, 0x02	; 2
    49c6:	59 f5       	brne	.+86     	; 0x4a1e <decodeInt16toHoldReg+0x68>
    49c8:	32 97       	sbiw	r30, 0x02	; 2
    49ca:	20 81       	ld	r18, Z
    49cc:	31 81       	ldd	r19, Z+1	; 0x01
    49ce:	23 30       	cpi	r18, 0x03	; 3
    49d0:	31 05       	cpc	r19, r1
    49d2:	40 f5       	brcc	.+80     	; 0x4a24 <decodeInt16toHoldReg+0x6e>
    49d4:	fb 01       	movw	r30, r22
    49d6:	11 82       	std	Z+1, r1	; 0x01
    49d8:	10 82       	st	Z, r1
    49da:	fc 01       	movw	r30, r24
    49dc:	e0 5c       	subi	r30, 0xC0	; 192
    49de:	ff 4f       	sbci	r31, 0xFF	; 255
    49e0:	20 81       	ld	r18, Z
    49e2:	31 81       	ldd	r19, Z+1	; 0x01
    49e4:	21 15       	cp	r18, r1
    49e6:	31 05       	cpc	r19, r1
    49e8:	f9 f0       	breq	.+62     	; 0x4a28 <decodeInt16toHoldReg+0x72>
    49ea:	16 2f       	mov	r17, r22
    49ec:	e6 2f       	mov	r30, r22
    49ee:	f7 2f       	mov	r31, r23
    49f0:	40 e0       	ldi	r20, 0x00	; 0
    49f2:	50 e0       	ldi	r21, 0x00	; 0
    49f4:	ec 01       	movw	r28, r24
    49f6:	c0 5c       	subi	r28, 0xC0	; 192
    49f8:	df 4f       	sbci	r29, 0xFF	; 255
    49fa:	40 95       	com	r20
    49fc:	50 95       	com	r21
    49fe:	28 0f       	add	r18, r24
    4a00:	39 1f       	adc	r19, r25
    4a02:	d9 01       	movw	r26, r18
    4a04:	a4 0f       	add	r26, r20
    4a06:	b5 1f       	adc	r27, r21
    4a08:	2c 91       	ld	r18, X
    4a0a:	21 93       	st	Z+, r18
    4a0c:	4e 2f       	mov	r20, r30
    4a0e:	41 1b       	sub	r20, r17
    4a10:	50 e0       	ldi	r21, 0x00	; 0
    4a12:	28 81       	ld	r18, Y
    4a14:	39 81       	ldd	r19, Y+1	; 0x01
    4a16:	42 17       	cp	r20, r18
    4a18:	53 07       	cpc	r21, r19
    4a1a:	78 f3       	brcs	.-34     	; 0x49fa <decodeInt16toHoldReg+0x44>
    4a1c:	07 c0       	rjmp	.+14     	; 0x4a2c <decodeInt16toHoldReg+0x76>
    4a1e:	d9 de       	rcall	.-590    	; 0x47d2 <clear>
    4a20:	87 e0       	ldi	r24, 0x07	; 7
    4a22:	05 c0       	rjmp	.+10     	; 0x4a2e <decodeInt16toHoldReg+0x78>
    4a24:	81 e0       	ldi	r24, 0x01	; 1
    4a26:	03 c0       	rjmp	.+6      	; 0x4a2e <decodeInt16toHoldReg+0x78>
    4a28:	80 e0       	ldi	r24, 0x00	; 0
    4a2a:	01 c0       	rjmp	.+2      	; 0x4a2e <decodeInt16toHoldReg+0x78>
    4a2c:	80 e0       	ldi	r24, 0x00	; 0
    4a2e:	df 91       	pop	r29
    4a30:	cf 91       	pop	r28
    4a32:	1f 91       	pop	r17
    4a34:	08 95       	ret

00004a36 <decodeInt32ToInt32>:
    4a36:	1f 93       	push	r17
    4a38:	cf 93       	push	r28
    4a3a:	df 93       	push	r29
    4a3c:	fc 01       	movw	r30, r24
    4a3e:	ee 5b       	subi	r30, 0xBE	; 190
    4a40:	ff 4f       	sbci	r31, 0xFF	; 255
    4a42:	20 81       	ld	r18, Z
    4a44:	22 30       	cpi	r18, 0x02	; 2
    4a46:	39 f5       	brne	.+78     	; 0x4a96 <decodeInt32ToInt32+0x60>
    4a48:	fb 01       	movw	r30, r22
    4a4a:	10 82       	st	Z, r1
    4a4c:	11 82       	std	Z+1, r1	; 0x01
    4a4e:	12 82       	std	Z+2, r1	; 0x02
    4a50:	13 82       	std	Z+3, r1	; 0x03
    4a52:	fc 01       	movw	r30, r24
    4a54:	e0 5c       	subi	r30, 0xC0	; 192
    4a56:	ff 4f       	sbci	r31, 0xFF	; 255
    4a58:	20 81       	ld	r18, Z
    4a5a:	31 81       	ldd	r19, Z+1	; 0x01
    4a5c:	21 15       	cp	r18, r1
    4a5e:	31 05       	cpc	r19, r1
    4a60:	e9 f0       	breq	.+58     	; 0x4a9c <decodeInt32ToInt32+0x66>
    4a62:	16 2f       	mov	r17, r22
    4a64:	e6 2f       	mov	r30, r22
    4a66:	f7 2f       	mov	r31, r23
    4a68:	40 e0       	ldi	r20, 0x00	; 0
    4a6a:	50 e0       	ldi	r21, 0x00	; 0
    4a6c:	ec 01       	movw	r28, r24
    4a6e:	c0 5c       	subi	r28, 0xC0	; 192
    4a70:	df 4f       	sbci	r29, 0xFF	; 255
    4a72:	40 95       	com	r20
    4a74:	50 95       	com	r21
    4a76:	28 0f       	add	r18, r24
    4a78:	39 1f       	adc	r19, r25
    4a7a:	d9 01       	movw	r26, r18
    4a7c:	a4 0f       	add	r26, r20
    4a7e:	b5 1f       	adc	r27, r21
    4a80:	2c 91       	ld	r18, X
    4a82:	21 93       	st	Z+, r18
    4a84:	4e 2f       	mov	r20, r30
    4a86:	41 1b       	sub	r20, r17
    4a88:	50 e0       	ldi	r21, 0x00	; 0
    4a8a:	28 81       	ld	r18, Y
    4a8c:	39 81       	ldd	r19, Y+1	; 0x01
    4a8e:	42 17       	cp	r20, r18
    4a90:	53 07       	cpc	r21, r19
    4a92:	78 f3       	brcs	.-34     	; 0x4a72 <decodeInt32ToInt32+0x3c>
    4a94:	05 c0       	rjmp	.+10     	; 0x4aa0 <decodeInt32ToInt32+0x6a>
    4a96:	9d de       	rcall	.-710    	; 0x47d2 <clear>
    4a98:	87 e0       	ldi	r24, 0x07	; 7
    4a9a:	03 c0       	rjmp	.+6      	; 0x4aa2 <decodeInt32ToInt32+0x6c>
    4a9c:	80 e0       	ldi	r24, 0x00	; 0
    4a9e:	01 c0       	rjmp	.+2      	; 0x4aa2 <decodeInt32ToInt32+0x6c>
    4aa0:	80 e0       	ldi	r24, 0x00	; 0
    4aa2:	df 91       	pop	r29
    4aa4:	cf 91       	pop	r28
    4aa6:	1f 91       	pop	r17
    4aa8:	08 95       	ret

00004aaa <decodeUint32CounterTimeticksGaugeToUint32>:
    4aaa:	1f 93       	push	r17
    4aac:	cf 93       	push	r28
    4aae:	df 93       	push	r29
    4ab0:	fc 01       	movw	r30, r24
    4ab2:	ee 5b       	subi	r30, 0xBE	; 190
    4ab4:	ff 4f       	sbci	r31, 0xFF	; 255
    4ab6:	20 81       	ld	r18, Z
    4ab8:	3f eb       	ldi	r19, 0xBF	; 191
    4aba:	32 0f       	add	r19, r18
    4abc:	33 30       	cpi	r19, 0x03	; 3
    4abe:	10 f0       	brcs	.+4      	; 0x4ac4 <decodeUint32CounterTimeticksGaugeToUint32+0x1a>
    4ac0:	27 34       	cpi	r18, 0x47	; 71
    4ac2:	39 f5       	brne	.+78     	; 0x4b12 <decodeUint32CounterTimeticksGaugeToUint32+0x68>
    4ac4:	fb 01       	movw	r30, r22
    4ac6:	10 82       	st	Z, r1
    4ac8:	11 82       	std	Z+1, r1	; 0x01
    4aca:	12 82       	std	Z+2, r1	; 0x02
    4acc:	13 82       	std	Z+3, r1	; 0x03
    4ace:	fc 01       	movw	r30, r24
    4ad0:	e0 5c       	subi	r30, 0xC0	; 192
    4ad2:	ff 4f       	sbci	r31, 0xFF	; 255
    4ad4:	20 81       	ld	r18, Z
    4ad6:	31 81       	ldd	r19, Z+1	; 0x01
    4ad8:	21 15       	cp	r18, r1
    4ada:	31 05       	cpc	r19, r1
    4adc:	e9 f0       	breq	.+58     	; 0x4b18 <decodeUint32CounterTimeticksGaugeToUint32+0x6e>
    4ade:	16 2f       	mov	r17, r22
    4ae0:	e6 2f       	mov	r30, r22
    4ae2:	f7 2f       	mov	r31, r23
    4ae4:	40 e0       	ldi	r20, 0x00	; 0
    4ae6:	50 e0       	ldi	r21, 0x00	; 0
    4ae8:	ec 01       	movw	r28, r24
    4aea:	c0 5c       	subi	r28, 0xC0	; 192
    4aec:	df 4f       	sbci	r29, 0xFF	; 255
    4aee:	40 95       	com	r20
    4af0:	50 95       	com	r21
    4af2:	28 0f       	add	r18, r24
    4af4:	39 1f       	adc	r19, r25
    4af6:	d9 01       	movw	r26, r18
    4af8:	a4 0f       	add	r26, r20
    4afa:	b5 1f       	adc	r27, r21
    4afc:	2c 91       	ld	r18, X
    4afe:	21 93       	st	Z+, r18
    4b00:	4e 2f       	mov	r20, r30
    4b02:	41 1b       	sub	r20, r17
    4b04:	50 e0       	ldi	r21, 0x00	; 0
    4b06:	28 81       	ld	r18, Y
    4b08:	39 81       	ldd	r19, Y+1	; 0x01
    4b0a:	42 17       	cp	r20, r18
    4b0c:	53 07       	cpc	r21, r19
    4b0e:	78 f3       	brcs	.-34     	; 0x4aee <decodeUint32CounterTimeticksGaugeToUint32+0x44>
    4b10:	05 c0       	rjmp	.+10     	; 0x4b1c <decodeUint32CounterTimeticksGaugeToUint32+0x72>
    4b12:	5f de       	rcall	.-834    	; 0x47d2 <clear>
    4b14:	87 e0       	ldi	r24, 0x07	; 7
    4b16:	03 c0       	rjmp	.+6      	; 0x4b1e <decodeUint32CounterTimeticksGaugeToUint32+0x74>
    4b18:	80 e0       	ldi	r24, 0x00	; 0
    4b1a:	01 c0       	rjmp	.+2      	; 0x4b1e <decodeUint32CounterTimeticksGaugeToUint32+0x74>
    4b1c:	80 e0       	ldi	r24, 0x00	; 0
    4b1e:	df 91       	pop	r29
    4b20:	cf 91       	pop	r28
    4b22:	1f 91       	pop	r17
    4b24:	08 95       	ret

00004b26 <decodeIpAddressToByteArray>:
    4b26:	1f 93       	push	r17
    4b28:	cf 93       	push	r28
    4b2a:	df 93       	push	r29
    4b2c:	20 e4       	ldi	r18, 0x40	; 64
    4b2e:	dc 01       	movw	r26, r24
    4b30:	1d 92       	st	X+, r1
    4b32:	2a 95       	dec	r18
    4b34:	e9 f7       	brne	.-6      	; 0x4b30 <decodeIpAddressToByteArray+0xa>
    4b36:	fc 01       	movw	r30, r24
    4b38:	ee 5b       	subi	r30, 0xBE	; 190
    4b3a:	ff 4f       	sbci	r31, 0xFF	; 255
    4b3c:	20 81       	ld	r18, Z
    4b3e:	20 34       	cpi	r18, 0x40	; 64
    4b40:	11 f0       	breq	.+4      	; 0x4b46 <decodeIpAddressToByteArray+0x20>
    4b42:	25 34       	cpi	r18, 0x45	; 69
    4b44:	59 f5       	brne	.+86     	; 0x4b9c <decodeIpAddressToByteArray+0x76>
    4b46:	fb 01       	movw	r30, r22
    4b48:	10 82       	st	Z, r1
    4b4a:	11 82       	std	Z+1, r1	; 0x01
    4b4c:	12 82       	std	Z+2, r1	; 0x02
    4b4e:	13 82       	std	Z+3, r1	; 0x03
    4b50:	fc 01       	movw	r30, r24
    4b52:	e0 5c       	subi	r30, 0xC0	; 192
    4b54:	ff 4f       	sbci	r31, 0xFF	; 255
    4b56:	20 81       	ld	r18, Z
    4b58:	31 81       	ldd	r19, Z+1	; 0x01
    4b5a:	21 15       	cp	r18, r1
    4b5c:	31 05       	cpc	r19, r1
    4b5e:	09 f1       	breq	.+66     	; 0x4ba2 <decodeIpAddressToByteArray+0x7c>
    4b60:	16 2f       	mov	r17, r22
    4b62:	e6 2f       	mov	r30, r22
    4b64:	f7 2f       	mov	r31, r23
    4b66:	40 e0       	ldi	r20, 0x00	; 0
    4b68:	50 e0       	ldi	r21, 0x00	; 0
    4b6a:	6c ef       	ldi	r22, 0xFC	; 252
    4b6c:	7f ef       	ldi	r23, 0xFF	; 255
    4b6e:	ec 01       	movw	r28, r24
    4b70:	c0 5c       	subi	r28, 0xC0	; 192
    4b72:	df 4f       	sbci	r29, 0xFF	; 255
    4b74:	db 01       	movw	r26, r22
    4b76:	a4 1b       	sub	r26, r20
    4b78:	b5 0b       	sbc	r27, r21
    4b7a:	ad 01       	movw	r20, r26
    4b7c:	28 0f       	add	r18, r24
    4b7e:	39 1f       	adc	r19, r25
    4b80:	d9 01       	movw	r26, r18
    4b82:	a4 0f       	add	r26, r20
    4b84:	b5 1f       	adc	r27, r21
    4b86:	2c 91       	ld	r18, X
    4b88:	21 93       	st	Z+, r18
    4b8a:	4e 2f       	mov	r20, r30
    4b8c:	41 1b       	sub	r20, r17
    4b8e:	50 e0       	ldi	r21, 0x00	; 0
    4b90:	28 81       	ld	r18, Y
    4b92:	39 81       	ldd	r19, Y+1	; 0x01
    4b94:	42 17       	cp	r20, r18
    4b96:	53 07       	cpc	r21, r19
    4b98:	68 f3       	brcs	.-38     	; 0x4b74 <decodeIpAddressToByteArray+0x4e>
    4b9a:	05 c0       	rjmp	.+10     	; 0x4ba6 <decodeIpAddressToByteArray+0x80>
    4b9c:	1a de       	rcall	.-972    	; 0x47d2 <clear>
    4b9e:	87 e0       	ldi	r24, 0x07	; 7
    4ba0:	03 c0       	rjmp	.+6      	; 0x4ba8 <decodeIpAddressToByteArray+0x82>
    4ba2:	80 e0       	ldi	r24, 0x00	; 0
    4ba4:	01 c0       	rjmp	.+2      	; 0x4ba8 <decodeIpAddressToByteArray+0x82>
    4ba6:	80 e0       	ldi	r24, 0x00	; 0
    4ba8:	df 91       	pop	r29
    4baa:	cf 91       	pop	r28
    4bac:	1f 91       	pop	r17
    4bae:	08 95       	ret

00004bb0 <decodeBoolToUint8>:
    4bb0:	fc 01       	movw	r30, r24
    4bb2:	ee 5b       	subi	r30, 0xBE	; 190
    4bb4:	ff 4f       	sbci	r31, 0xFF	; 255
    4bb6:	20 81       	ld	r18, Z
    4bb8:	21 30       	cpi	r18, 0x01	; 1
    4bba:	49 f4       	brne	.+18     	; 0x4bce <decodeBoolToUint8+0x1e>
    4bbc:	fc 01       	movw	r30, r24
    4bbe:	80 81       	ld	r24, Z
    4bc0:	81 11       	cpse	r24, r1
    4bc2:	01 c0       	rjmp	.+2      	; 0x4bc6 <decodeBoolToUint8+0x16>
    4bc4:	20 e0       	ldi	r18, 0x00	; 0
    4bc6:	fb 01       	movw	r30, r22
    4bc8:	20 83       	st	Z, r18
    4bca:	80 e0       	ldi	r24, 0x00	; 0
    4bcc:	08 95       	ret
    4bce:	01 de       	rcall	.-1022   	; 0x47d2 <clear>
    4bd0:	87 e0       	ldi	r24, 0x07	; 7
    4bd2:	08 95       	ret

00004bd4 <encodeStringToOctetString>:
    4bd4:	cf 93       	push	r28
    4bd6:	20 e4       	ldi	r18, 0x40	; 64
    4bd8:	fc 01       	movw	r30, r24
    4bda:	11 92       	st	Z+, r1
    4bdc:	2a 95       	dec	r18
    4bde:	e9 f7       	brne	.-6      	; 0x4bda <encodeStringToOctetString+0x6>
    4be0:	26 2f       	mov	r18, r22
    4be2:	2f 7b       	andi	r18, 0xBF	; 191
    4be4:	24 30       	cpi	r18, 0x04	; 4
    4be6:	c9 f5       	brne	.+114    	; 0x4c5a <encodeStringToOctetString+0x86>
    4be8:	fa 01       	movw	r30, r20
    4bea:	01 90       	ld	r0, Z+
    4bec:	00 20       	and	r0, r0
    4bee:	e9 f7       	brne	.-6      	; 0x4bea <encodeStringToOctetString+0x16>
    4bf0:	9f 01       	movw	r18, r30
    4bf2:	24 1b       	sub	r18, r20
    4bf4:	35 0b       	sbc	r19, r21
    4bf6:	22 50       	subi	r18, 0x02	; 2
    4bf8:	31 09       	sbc	r19, r1
    4bfa:	20 34       	cpi	r18, 0x40	; 64
    4bfc:	31 05       	cpc	r19, r1
    4bfe:	50 f5       	brcc	.+84     	; 0x4c54 <encodeStringToOctetString+0x80>
    4c00:	fc 01       	movw	r30, r24
    4c02:	ee 5b       	subi	r30, 0xBE	; 190
    4c04:	ff 4f       	sbci	r31, 0xFF	; 255
    4c06:	60 83       	st	Z, r22
    4c08:	fa 01       	movw	r30, r20
    4c0a:	01 90       	ld	r0, Z+
    4c0c:	00 20       	and	r0, r0
    4c0e:	e9 f7       	brne	.-6      	; 0x4c0a <encodeStringToOctetString+0x36>
    4c10:	31 97       	sbiw	r30, 0x01	; 1
    4c12:	bf 01       	movw	r22, r30
    4c14:	64 1b       	sub	r22, r20
    4c16:	75 0b       	sbc	r23, r21
    4c18:	fc 01       	movw	r30, r24
    4c1a:	e0 5c       	subi	r30, 0xC0	; 192
    4c1c:	ff 4f       	sbci	r31, 0xFF	; 255
    4c1e:	71 83       	std	Z+1, r23	; 0x01
    4c20:	60 83       	st	Z, r22
    4c22:	33 96       	adiw	r30, 0x03	; 3
    4c24:	10 82       	st	Z, r1
    4c26:	61 15       	cp	r22, r1
    4c28:	71 05       	cpc	r23, r1
    4c2a:	d1 f0       	breq	.+52     	; 0x4c60 <encodeStringToOctetString+0x8c>
    4c2c:	20 e0       	ldi	r18, 0x00	; 0
    4c2e:	30 e0       	ldi	r19, 0x00	; 0
    4c30:	c0 e0       	ldi	r28, 0x00	; 0
    4c32:	df 01       	movw	r26, r30
    4c34:	fa 01       	movw	r30, r20
    4c36:	e2 0f       	add	r30, r18
    4c38:	f3 1f       	adc	r31, r19
    4c3a:	20 81       	ld	r18, Z
    4c3c:	fc 01       	movw	r30, r24
    4c3e:	ec 0f       	add	r30, r28
    4c40:	f1 1d       	adc	r31, r1
    4c42:	20 83       	st	Z, r18
    4c44:	cf 5f       	subi	r28, 0xFF	; 255
    4c46:	cc 93       	st	X, r28
    4c48:	2c 2f       	mov	r18, r28
    4c4a:	30 e0       	ldi	r19, 0x00	; 0
    4c4c:	26 17       	cp	r18, r22
    4c4e:	37 07       	cpc	r19, r23
    4c50:	88 f3       	brcs	.-30     	; 0x4c34 <encodeStringToOctetString+0x60>
    4c52:	08 c0       	rjmp	.+16     	; 0x4c64 <encodeStringToOctetString+0x90>
    4c54:	be dd       	rcall	.-1156   	; 0x47d2 <clear>
    4c56:	81 e0       	ldi	r24, 0x01	; 1
    4c58:	06 c0       	rjmp	.+12     	; 0x4c66 <encodeStringToOctetString+0x92>
    4c5a:	bb dd       	rcall	.-1162   	; 0x47d2 <clear>
    4c5c:	87 e0       	ldi	r24, 0x07	; 7
    4c5e:	03 c0       	rjmp	.+6      	; 0x4c66 <encodeStringToOctetString+0x92>
    4c60:	80 e0       	ldi	r24, 0x00	; 0
    4c62:	01 c0       	rjmp	.+2      	; 0x4c66 <encodeStringToOctetString+0x92>
    4c64:	80 e0       	ldi	r24, 0x00	; 0
    4c66:	cf 91       	pop	r28
    4c68:	08 95       	ret

00004c6a <encodeInt16ToInt>:
    4c6a:	20 e4       	ldi	r18, 0x40	; 64
    4c6c:	fc 01       	movw	r30, r24
    4c6e:	11 92       	st	Z+, r1
    4c70:	2a 95       	dec	r18
    4c72:	e9 f7       	brne	.-6      	; 0x4c6e <encodeInt16ToInt+0x4>
    4c74:	62 30       	cpi	r22, 0x02	; 2
    4c76:	11 f0       	breq	.+4      	; 0x4c7c <encodeInt16ToInt+0x12>
    4c78:	64 34       	cpi	r22, 0x44	; 68
    4c7a:	71 f4       	brne	.+28     	; 0x4c98 <encodeInt16ToInt+0x2e>
    4c7c:	fc 01       	movw	r30, r24
    4c7e:	e0 5c       	subi	r30, 0xC0	; 192
    4c80:	ff 4f       	sbci	r31, 0xFF	; 255
    4c82:	22 e0       	ldi	r18, 0x02	; 2
    4c84:	30 e0       	ldi	r19, 0x00	; 0
    4c86:	31 83       	std	Z+1, r19	; 0x01
    4c88:	20 83       	st	Z, r18
    4c8a:	32 96       	adiw	r30, 0x02	; 2
    4c8c:	60 83       	st	Z, r22
    4c8e:	fc 01       	movw	r30, r24
    4c90:	50 83       	st	Z, r21
    4c92:	41 83       	std	Z+1, r20	; 0x01
    4c94:	80 e0       	ldi	r24, 0x00	; 0
    4c96:	08 95       	ret
    4c98:	9c dd       	rcall	.-1224   	; 0x47d2 <clear>
    4c9a:	87 e0       	ldi	r24, 0x07	; 7
    4c9c:	08 95       	ret

00004c9e <encodeInt32ToInt32>:
    4c9e:	70 e4       	ldi	r23, 0x40	; 64
    4ca0:	fc 01       	movw	r30, r24
    4ca2:	11 92       	st	Z+, r1
    4ca4:	7a 95       	dec	r23
    4ca6:	e9 f7       	brne	.-6      	; 0x4ca2 <encodeInt32ToInt32+0x4>
    4ca8:	62 30       	cpi	r22, 0x02	; 2
    4caa:	11 f0       	breq	.+4      	; 0x4cb0 <encodeInt32ToInt32+0x12>
    4cac:	64 34       	cpi	r22, 0x44	; 68
    4cae:	81 f4       	brne	.+32     	; 0x4cd0 <encodeInt32ToInt32+0x32>
    4cb0:	fc 01       	movw	r30, r24
    4cb2:	e0 5c       	subi	r30, 0xC0	; 192
    4cb4:	ff 4f       	sbci	r31, 0xFF	; 255
    4cb6:	a4 e0       	ldi	r26, 0x04	; 4
    4cb8:	b0 e0       	ldi	r27, 0x00	; 0
    4cba:	b1 83       	std	Z+1, r27	; 0x01
    4cbc:	a0 83       	st	Z, r26
    4cbe:	32 96       	adiw	r30, 0x02	; 2
    4cc0:	60 83       	st	Z, r22
    4cc2:	fc 01       	movw	r30, r24
    4cc4:	50 83       	st	Z, r21
    4cc6:	41 83       	std	Z+1, r20	; 0x01
    4cc8:	32 83       	std	Z+2, r19	; 0x02
    4cca:	23 83       	std	Z+3, r18	; 0x03
    4ccc:	80 e0       	ldi	r24, 0x00	; 0
    4cce:	08 95       	ret
    4cd0:	80 dd       	rcall	.-1280   	; 0x47d2 <clear>
    4cd2:	87 e0       	ldi	r24, 0x07	; 7
    4cd4:	08 95       	ret

00004cd6 <encodeUint32ToUint32>:
    4cd6:	fc 01       	movw	r30, r24
    4cd8:	80 e4       	ldi	r24, 0x40	; 64
    4cda:	df 01       	movw	r26, r30
    4cdc:	1d 92       	st	X+, r1
    4cde:	8a 95       	dec	r24
    4ce0:	e9 f7       	brne	.-6      	; 0x4cdc <encodeUint32ToUint32+0x6>
    4ce2:	8f eb       	ldi	r24, 0xBF	; 191
    4ce4:	86 0f       	add	r24, r22
    4ce6:	84 30       	cpi	r24, 0x04	; 4
    4ce8:	10 f0       	brcs	.+4      	; 0x4cee <encodeUint32ToUint32+0x18>
    4cea:	67 34       	cpi	r22, 0x47	; 71
    4cec:	81 f4       	brne	.+32     	; 0x4d0e <encodeUint32ToUint32+0x38>
    4cee:	df 01       	movw	r26, r30
    4cf0:	a0 5c       	subi	r26, 0xC0	; 192
    4cf2:	bf 4f       	sbci	r27, 0xFF	; 255
    4cf4:	84 e0       	ldi	r24, 0x04	; 4
    4cf6:	90 e0       	ldi	r25, 0x00	; 0
    4cf8:	11 96       	adiw	r26, 0x01	; 1
    4cfa:	9c 93       	st	X, r25
    4cfc:	8e 93       	st	-X, r24
    4cfe:	12 96       	adiw	r26, 0x02	; 2
    4d00:	6c 93       	st	X, r22
    4d02:	50 83       	st	Z, r21
    4d04:	41 83       	std	Z+1, r20	; 0x01
    4d06:	32 83       	std	Z+2, r19	; 0x02
    4d08:	23 83       	std	Z+3, r18	; 0x03
    4d0a:	80 e0       	ldi	r24, 0x00	; 0
    4d0c:	08 95       	ret
    4d0e:	cf 01       	movw	r24, r30
    4d10:	60 dd       	rcall	.-1344   	; 0x47d2 <clear>
    4d12:	87 e0       	ldi	r24, 0x07	; 7
    4d14:	08 95       	ret

00004d16 <encodeByteArrayToIpAddress>:
    4d16:	cf 93       	push	r28
    4d18:	df 93       	push	r29
    4d1a:	fc 01       	movw	r30, r24
    4d1c:	da 01       	movw	r26, r20
    4d1e:	80 e4       	ldi	r24, 0x40	; 64
    4d20:	ef 01       	movw	r28, r30
    4d22:	19 92       	st	Y+, r1
    4d24:	8a 95       	dec	r24
    4d26:	e9 f7       	brne	.-6      	; 0x4d22 <encodeByteArrayToIpAddress+0xc>
    4d28:	60 34       	cpi	r22, 0x40	; 64
    4d2a:	21 f0       	breq	.+8      	; 0x4d34 <encodeByteArrayToIpAddress+0x1e>
    4d2c:	8c eb       	ldi	r24, 0xBC	; 188
    4d2e:	86 0f       	add	r24, r22
    4d30:	82 30       	cpi	r24, 0x02	; 2
    4d32:	c8 f4       	brcc	.+50     	; 0x4d66 <encodeByteArrayToIpAddress+0x50>
    4d34:	ef 01       	movw	r28, r30
    4d36:	c0 5c       	subi	r28, 0xC0	; 192
    4d38:	df 4f       	sbci	r29, 0xFF	; 255
    4d3a:	84 e0       	ldi	r24, 0x04	; 4
    4d3c:	90 e0       	ldi	r25, 0x00	; 0
    4d3e:	99 83       	std	Y+1, r25	; 0x01
    4d40:	88 83       	st	Y, r24
    4d42:	22 96       	adiw	r28, 0x02	; 2
    4d44:	68 83       	st	Y, r22
    4d46:	13 96       	adiw	r26, 0x03	; 3
    4d48:	8c 91       	ld	r24, X
    4d4a:	13 97       	sbiw	r26, 0x03	; 3
    4d4c:	80 83       	st	Z, r24
    4d4e:	12 96       	adiw	r26, 0x02	; 2
    4d50:	8c 91       	ld	r24, X
    4d52:	12 97       	sbiw	r26, 0x02	; 2
    4d54:	81 83       	std	Z+1, r24	; 0x01
    4d56:	11 96       	adiw	r26, 0x01	; 1
    4d58:	8c 91       	ld	r24, X
    4d5a:	11 97       	sbiw	r26, 0x01	; 1
    4d5c:	82 83       	std	Z+2, r24	; 0x02
    4d5e:	8c 91       	ld	r24, X
    4d60:	83 83       	std	Z+3, r24	; 0x03
    4d62:	80 e0       	ldi	r24, 0x00	; 0
    4d64:	03 c0       	rjmp	.+6      	; 0x4d6c <encodeByteArrayToIpAddress+0x56>
    4d66:	cf 01       	movw	r24, r30
    4d68:	34 dd       	rcall	.-1432   	; 0x47d2 <clear>
    4d6a:	87 e0       	ldi	r24, 0x07	; 7
    4d6c:	df 91       	pop	r29
    4d6e:	cf 91       	pop	r28
    4d70:	08 95       	ret

00004d72 <encodeUint8ToBool>:
    4d72:	20 e4       	ldi	r18, 0x40	; 64
    4d74:	fc 01       	movw	r30, r24
    4d76:	11 92       	st	Z+, r1
    4d78:	2a 95       	dec	r18
    4d7a:	e9 f7       	brne	.-6      	; 0x4d76 <encodeUint8ToBool+0x4>
    4d7c:	61 30       	cpi	r22, 0x01	; 1
    4d7e:	11 f0       	breq	.+4      	; 0x4d84 <encodeUint8ToBool+0x12>
    4d80:	64 34       	cpi	r22, 0x44	; 68
    4d82:	99 f4       	brne	.+38     	; 0x4daa <encodeUint8ToBool+0x38>
    4d84:	21 e0       	ldi	r18, 0x01	; 1
    4d86:	30 e0       	ldi	r19, 0x00	; 0
    4d88:	fc 01       	movw	r30, r24
    4d8a:	e0 5c       	subi	r30, 0xC0	; 192
    4d8c:	ff 4f       	sbci	r31, 0xFF	; 255
    4d8e:	31 83       	std	Z+1, r19	; 0x01
    4d90:	20 83       	st	Z, r18
    4d92:	32 96       	adiw	r30, 0x02	; 2
    4d94:	60 83       	st	Z, r22
    4d96:	44 23       	and	r20, r20
    4d98:	21 f0       	breq	.+8      	; 0x4da2 <encodeUint8ToBool+0x30>
    4d9a:	fc 01       	movw	r30, r24
    4d9c:	20 83       	st	Z, r18
    4d9e:	80 e0       	ldi	r24, 0x00	; 0
    4da0:	08 95       	ret
    4da2:	fc 01       	movw	r30, r24
    4da4:	10 82       	st	Z, r1
    4da6:	80 e0       	ldi	r24, 0x00	; 0
    4da8:	08 95       	ret
    4daa:	13 dd       	rcall	.-1498   	; 0x47d2 <clear>
    4dac:	87 e0       	ldi	r24, 0x07	; 7
    4dae:	08 95       	ret

00004db0 <SNMP_requestPdu>:
    4db0:	2f 92       	push	r2
    4db2:	3f 92       	push	r3
    4db4:	4f 92       	push	r4
    4db6:	5f 92       	push	r5
    4db8:	6f 92       	push	r6
    4dba:	7f 92       	push	r7
    4dbc:	8f 92       	push	r8
    4dbe:	9f 92       	push	r9
    4dc0:	af 92       	push	r10
    4dc2:	bf 92       	push	r11
    4dc4:	cf 92       	push	r12
    4dc6:	df 92       	push	r13
    4dc8:	ef 92       	push	r14
    4dca:	ff 92       	push	r15
    4dcc:	0f 93       	push	r16
    4dce:	1f 93       	push	r17
    4dd0:	cf 93       	push	r28
    4dd2:	df 93       	push	r29
    4dd4:	cd b7       	in	r28, 0x3d	; 61
    4dd6:	de b7       	in	r29, 0x3e	; 62
    4dd8:	2b 97       	sbiw	r28, 0x0b	; 11
    4dda:	0f b6       	in	r0, 0x3f	; 63
    4ddc:	f8 94       	cli
    4dde:	de bf       	out	0x3e, r29	; 62
    4de0:	0f be       	out	0x3f, r0	; 63
    4de2:	cd bf       	out	0x3d, r28	; 61
    4de4:	99 87       	std	Y+9, r25	; 0x09
    4de6:	88 87       	std	Y+8, r24	; 0x08
    4de8:	60 91 af 08 	lds	r22, 0x08AF
    4dec:	70 91 b0 08 	lds	r23, 0x08B0
    4df0:	70 93 7a 08 	sts	0x087A, r23
    4df4:	60 93 79 08 	sts	0x0879, r22
    4df8:	89 e9       	ldi	r24, 0x99	; 153
    4dfa:	e8 ec       	ldi	r30, 0xC8	; 200
    4dfc:	f7 e0       	ldi	r31, 0x07	; 7
    4dfe:	df 01       	movw	r26, r30
    4e00:	1d 92       	st	X+, r1
    4e02:	8a 95       	dec	r24
    4e04:	e9 f7       	brne	.-6      	; 0x4e00 <SNMP_requestPdu+0x50>
    4e06:	6a 39       	cpi	r22, 0x9A	; 154
    4e08:	71 05       	cpc	r23, r1
    4e0a:	08 f0       	brcs	.+2      	; 0x4e0e <SNMP_requestPdu+0x5e>
    4e0c:	c7 c1       	rjmp	.+910    	; 0x519c <SNMP_requestPdu+0x3ec>
    4e0e:	cf 01       	movw	r24, r30
    4e10:	0e 94 88 1c 	call	0x3910	; 0x3910 <_SNMPSocket_read>
    4e14:	80 91 c8 07 	lds	r24, 0x07C8
    4e18:	80 33       	cpi	r24, 0x30	; 48
    4e1a:	09 f0       	breq	.+2      	; 0x4e1e <SNMP_requestPdu+0x6e>
    4e1c:	c1 c1       	rjmp	.+898    	; 0x51a0 <SNMP_requestPdu+0x3f0>
    4e1e:	80 91 cb 07 	lds	r24, 0x07CB
    4e22:	23 e0       	ldi	r18, 0x03	; 3
    4e24:	28 0f       	add	r18, r24
    4e26:	30 e0       	ldi	r19, 0x00	; 0
    4e28:	f9 01       	movw	r30, r18
    4e2a:	e8 53       	subi	r30, 0x38	; 56
    4e2c:	f8 4f       	sbci	r31, 0xF8	; 248
    4e2e:	d2 80       	ldd	r13, Z+2	; 0x02
    4e30:	95 e0       	ldi	r25, 0x05	; 5
    4e32:	98 0f       	add	r25, r24
    4e34:	79 2e       	mov	r7, r25
    4e36:	7d 0c       	add	r7, r13
    4e38:	e7 2c       	mov	r14, r7
    4e3a:	f1 2c       	mov	r15, r1
    4e3c:	f7 01       	movw	r30, r14
    4e3e:	e8 53       	subi	r30, 0x38	; 56
    4e40:	f8 4f       	sbci	r31, 0xF8	; 248
    4e42:	81 80       	ldd	r8, Z+1	; 0x01
    4e44:	b4 81       	ldd	r27, Z+4	; 0x04
    4e46:	b9 83       	std	Y+1, r27	; 0x01
    4e48:	94 e0       	ldi	r25, 0x04	; 4
    4e4a:	97 0d       	add	r25, r7
    4e4c:	ab 2e       	mov	r10, r27
    4e4e:	a9 0e       	add	r10, r25
    4e50:	0a 2d       	mov	r16, r10
    4e52:	10 e0       	ldi	r17, 0x00	; 0
    4e54:	f8 01       	movw	r30, r16
    4e56:	e8 53       	subi	r30, 0x38	; 56
    4e58:	f8 4f       	sbci	r31, 0xF8	; 248
    4e5a:	92 81       	ldd	r25, Z+2	; 0x02
    4e5c:	9c 83       	std	Y+4, r25	; 0x04
    4e5e:	68 94       	set
    4e60:	bb 24       	eor	r11, r11
    4e62:	b1 f8       	bld	r11, 1
    4e64:	ba 0c       	add	r11, r10
    4e66:	b9 0e       	add	r11, r25
    4e68:	ab 2d       	mov	r26, r11
    4e6a:	b0 e0       	ldi	r27, 0x00	; 0
    4e6c:	fd 01       	movw	r30, r26
    4e6e:	e8 53       	subi	r30, 0x38	; 56
    4e70:	f8 4f       	sbci	r31, 0xF8	; 248
    4e72:	92 80       	ldd	r9, Z+2	; 0x02
    4e74:	68 94       	set
    4e76:	cc 24       	eor	r12, r12
    4e78:	c1 f8       	bld	r12, 1
    4e7a:	cb 0c       	add	r12, r11
    4e7c:	c9 0c       	add	r12, r9
    4e7e:	4c 2c       	mov	r4, r12
    4e80:	51 2c       	mov	r5, r1
    4e82:	f2 01       	movw	r30, r4
    4e84:	e8 53       	subi	r30, 0x38	; 56
    4e86:	f8 4f       	sbci	r31, 0xF8	; 248
    4e88:	66 80       	ldd	r6, Z+6	; 0x06
    4e8a:	96 e0       	ldi	r25, 0x06	; 6
    4e8c:	9c 0d       	add	r25, r12
    4e8e:	96 0d       	add	r25, r6
    4e90:	9d 83       	std	Y+5, r25	; 0x05
    4e92:	29 2e       	mov	r2, r25
    4e94:	31 2c       	mov	r3, r1
    4e96:	a1 01       	movw	r20, r2
    4e98:	48 53       	subi	r20, 0x38	; 56
    4e9a:	58 4f       	sbci	r21, 0xF8	; 248
    4e9c:	fa 01       	movw	r30, r20
    4e9e:	f1 81       	ldd	r31, Z+1	; 0x01
    4ea0:	ff 83       	std	Y+7, r31	; 0x07
    4ea2:	fa 01       	movw	r30, r20
    4ea4:	f2 81       	ldd	r31, Z+2	; 0x02
    4ea6:	fe 83       	std	Y+6, r31	; 0x06
    4ea8:	e8 85       	ldd	r30, Y+8	; 0x08
    4eaa:	f9 85       	ldd	r31, Y+9	; 0x09
    4eac:	11 82       	std	Z+1, r1	; 0x01
    4eae:	12 82       	std	Z+2, r1	; 0x02
    4eb0:	13 82       	std	Z+3, r1	; 0x03
    4eb2:	14 82       	std	Z+4, r1	; 0x04
    4eb4:	88 23       	and	r24, r24
    4eb6:	31 f1       	breq	.+76     	; 0x4f04 <SNMP_requestPdu+0x154>
    4eb8:	4d ec       	ldi	r20, 0xCD	; 205
    4eba:	57 e0       	ldi	r21, 0x07	; 7
    4ebc:	81 50       	subi	r24, 0x01	; 1
    4ebe:	90 e0       	ldi	r25, 0x00	; 0
    4ec0:	82 53       	subi	r24, 0x32	; 50
    4ec2:	98 4f       	sbci	r25, 0xF8	; 248
    4ec4:	3b 83       	std	Y+3, r19	; 0x03
    4ec6:	2a 83       	std	Y+2, r18	; 0x02
    4ec8:	bb 87       	std	Y+11, r27	; 0x0b
    4eca:	aa 87       	std	Y+10, r26	; 0x0a
    4ecc:	fa 01       	movw	r30, r20
    4ece:	21 91       	ld	r18, Z+
    4ed0:	a8 85       	ldd	r26, Y+8	; 0x08
    4ed2:	b9 85       	ldd	r27, Y+9	; 0x09
    4ed4:	11 96       	adiw	r26, 0x01	; 1
    4ed6:	4d 91       	ld	r20, X+
    4ed8:	5d 91       	ld	r21, X+
    4eda:	6d 91       	ld	r22, X+
    4edc:	7c 91       	ld	r23, X
    4ede:	14 97       	sbiw	r26, 0x04	; 4
    4ee0:	76 2f       	mov	r23, r22
    4ee2:	65 2f       	mov	r22, r21
    4ee4:	54 2f       	mov	r21, r20
    4ee6:	44 27       	eor	r20, r20
    4ee8:	42 2b       	or	r20, r18
    4eea:	11 96       	adiw	r26, 0x01	; 1
    4eec:	4d 93       	st	X+, r20
    4eee:	5d 93       	st	X+, r21
    4ef0:	6d 93       	st	X+, r22
    4ef2:	7c 93       	st	X, r23
    4ef4:	14 97       	sbiw	r26, 0x04	; 4
    4ef6:	e8 17       	cp	r30, r24
    4ef8:	f9 07       	cpc	r31, r25
    4efa:	49 f7       	brne	.-46     	; 0x4ece <SNMP_requestPdu+0x11e>
    4efc:	2a 81       	ldd	r18, Y+2	; 0x02
    4efe:	3b 81       	ldd	r19, Y+3	; 0x03
    4f00:	aa 85       	ldd	r26, Y+10	; 0x0a
    4f02:	bb 85       	ldd	r27, Y+11	; 0x0b
    4f04:	e8 85       	ldd	r30, Y+8	; 0x08
    4f06:	f9 85       	ldd	r31, Y+9	; 0x09
    4f08:	80 82       	st	Z, r8
    4f0a:	80 92 ef 09 	sts	0x09EF, r8
    4f0e:	f4 e1       	ldi	r31, 0x14	; 20
    4f10:	fd 15       	cp	r31, r13
    4f12:	38 f4       	brcc	.+14     	; 0x4f22 <SNMP_requestPdu+0x172>
    4f14:	81 e0       	ldi	r24, 0x01	; 1
    4f16:	a8 85       	ldd	r26, Y+8	; 0x08
    4f18:	b9 85       	ldd	r27, Y+9	; 0x09
    4f1a:	19 96       	adiw	r26, 0x09	; 9
    4f1c:	8c 93       	st	X, r24
    4f1e:	82 e0       	ldi	r24, 0x02	; 2
    4f20:	6f c1       	rjmp	.+734    	; 0x5200 <SNMP_requestPdu+0x450>
    4f22:	e8 85       	ldd	r30, Y+8	; 0x08
    4f24:	f9 85       	ldd	r31, Y+9	; 0x09
    4f26:	80 81       	ld	r24, Z
    4f28:	83 3a       	cpi	r24, 0xA3	; 163
    4f2a:	09 f0       	breq	.+2      	; 0x4f2e <SNMP_requestPdu+0x17e>
    4f2c:	3f c0       	rjmp	.+126    	; 0x4fac <SNMP_requestPdu+0x1fc>
    4f2e:	6d 2d       	mov	r22, r13
    4f30:	70 e0       	ldi	r23, 0x00	; 0
    4f32:	80 91 b5 08 	lds	r24, 0x08B5
    4f36:	90 91 b6 08 	lds	r25, 0x08B6
    4f3a:	68 17       	cp	r22, r24
    4f3c:	79 07       	cpc	r23, r25
    4f3e:	09 f0       	breq	.+2      	; 0x4f42 <SNMP_requestPdu+0x192>
    4f40:	6e c0       	rjmp	.+220    	; 0x501e <SNMP_requestPdu+0x26e>
    4f42:	61 15       	cp	r22, r1
    4f44:	71 05       	cpc	r23, r1
    4f46:	09 f4       	brne	.+2      	; 0x4f4a <SNMP_requestPdu+0x19a>
    4f48:	71 c0       	rjmp	.+226    	; 0x502c <SNMP_requestPdu+0x27c>
    4f4a:	c9 01       	movw	r24, r18
    4f4c:	03 96       	adiw	r24, 0x03	; 3
    4f4e:	40 91 d1 0b 	lds	r20, 0x0BD1
    4f52:	50 91 d2 0b 	lds	r21, 0x0BD2
    4f56:	fc 01       	movw	r30, r24
    4f58:	e8 53       	subi	r30, 0x38	; 56
    4f5a:	f8 4f       	sbci	r31, 0xF8	; 248
    4f5c:	30 81       	ld	r19, Z
    4f5e:	fa 01       	movw	r30, r20
    4f60:	20 81       	ld	r18, Z
    4f62:	32 17       	cp	r19, r18
    4f64:	91 f0       	breq	.+36     	; 0x4f8a <SNMP_requestPdu+0x1da>
    4f66:	0a c0       	rjmp	.+20     	; 0x4f7c <SNMP_requestPdu+0x1cc>
    4f68:	e4 0f       	add	r30, r20
    4f6a:	f5 1f       	adc	r31, r21
    4f6c:	c4 01       	movw	r24, r8
    4f6e:	82 0f       	add	r24, r18
    4f70:	91 1d       	adc	r25, r1
    4f72:	dc 01       	movw	r26, r24
    4f74:	9c 91       	ld	r25, X
    4f76:	80 81       	ld	r24, Z
    4f78:	98 17       	cp	r25, r24
    4f7a:	71 f0       	breq	.+28     	; 0x4f98 <SNMP_requestPdu+0x1e8>
    4f7c:	82 e0       	ldi	r24, 0x02	; 2
    4f7e:	a8 85       	ldd	r26, Y+8	; 0x08
    4f80:	b9 85       	ldd	r27, Y+9	; 0x09
    4f82:	19 96       	adiw	r26, 0x09	; 9
    4f84:	8c 93       	st	X, r24
    4f86:	87 e0       	ldi	r24, 0x07	; 7
    4f88:	3b c1       	rjmp	.+630    	; 0x5200 <SNMP_requestPdu+0x450>
    4f8a:	20 e0       	ldi	r18, 0x00	; 0
    4f8c:	88 53       	subi	r24, 0x38	; 56
    4f8e:	98 4f       	sbci	r25, 0xF8	; 248
    4f90:	bb 83       	std	Y+3, r27	; 0x03
    4f92:	aa 83       	std	Y+2, r26	; 0x02
    4f94:	39 2d       	mov	r19, r9
    4f96:	4c 01       	movw	r8, r24
    4f98:	2f 5f       	subi	r18, 0xFF	; 255
    4f9a:	e2 2f       	mov	r30, r18
    4f9c:	f0 e0       	ldi	r31, 0x00	; 0
    4f9e:	e6 17       	cp	r30, r22
    4fa0:	f7 07       	cpc	r31, r23
    4fa2:	10 f3       	brcs	.-60     	; 0x4f68 <SNMP_requestPdu+0x1b8>
    4fa4:	aa 81       	ldd	r26, Y+2	; 0x02
    4fa6:	bb 81       	ldd	r27, Y+3	; 0x03
    4fa8:	93 2e       	mov	r9, r19
    4faa:	40 c0       	rjmp	.+128    	; 0x502c <SNMP_requestPdu+0x27c>
    4fac:	80 3a       	cpi	r24, 0xA0	; 160
    4fae:	b9 f5       	brne	.+110    	; 0x501e <SNMP_requestPdu+0x26e>
    4fb0:	4d 2d       	mov	r20, r13
    4fb2:	50 e0       	ldi	r21, 0x00	; 0
    4fb4:	80 91 7f 08 	lds	r24, 0x087F
    4fb8:	90 91 80 08 	lds	r25, 0x0880
    4fbc:	48 17       	cp	r20, r24
    4fbe:	59 07       	cpc	r21, r25
    4fc0:	71 f5       	brne	.+92     	; 0x501e <SNMP_requestPdu+0x26e>
    4fc2:	41 15       	cp	r20, r1
    4fc4:	51 05       	cpc	r21, r1
    4fc6:	91 f1       	breq	.+100    	; 0x502c <SNMP_requestPdu+0x27c>
    4fc8:	b9 01       	movw	r22, r18
    4fca:	6d 5f       	subi	r22, 0xFD	; 253
    4fcc:	7f 4f       	sbci	r23, 0xFF	; 255
    4fce:	20 91 c0 07 	lds	r18, 0x07C0
    4fd2:	30 91 c1 07 	lds	r19, 0x07C1
    4fd6:	fb 01       	movw	r30, r22
    4fd8:	e8 53       	subi	r30, 0x38	; 56
    4fda:	f8 4f       	sbci	r31, 0xF8	; 248
    4fdc:	90 81       	ld	r25, Z
    4fde:	f9 01       	movw	r30, r18
    4fe0:	80 81       	ld	r24, Z
    4fe2:	98 17       	cp	r25, r24
    4fe4:	91 f0       	breq	.+36     	; 0x500a <SNMP_requestPdu+0x25a>
    4fe6:	0a c0       	rjmp	.+20     	; 0x4ffc <SNMP_requestPdu+0x24c>
    4fe8:	82 0f       	add	r24, r18
    4fea:	93 1f       	adc	r25, r19
    4fec:	fb 01       	movw	r30, r22
    4fee:	ed 0d       	add	r30, r13
    4ff0:	f1 1d       	adc	r31, r1
    4ff2:	80 80       	ld	r8, Z
    4ff4:	fc 01       	movw	r30, r24
    4ff6:	80 81       	ld	r24, Z
    4ff8:	88 16       	cp	r8, r24
    4ffa:	51 f0       	breq	.+20     	; 0x5010 <SNMP_requestPdu+0x260>
    4ffc:	82 e0       	ldi	r24, 0x02	; 2
    4ffe:	a8 85       	ldd	r26, Y+8	; 0x08
    5000:	b9 85       	ldd	r27, Y+9	; 0x09
    5002:	19 96       	adiw	r26, 0x09	; 9
    5004:	8c 93       	st	X, r24
    5006:	87 e0       	ldi	r24, 0x07	; 7
    5008:	fb c0       	rjmp	.+502    	; 0x5200 <SNMP_requestPdu+0x450>
    500a:	d1 2c       	mov	r13, r1
    500c:	68 53       	subi	r22, 0x38	; 56
    500e:	78 4f       	sbci	r23, 0xF8	; 248
    5010:	d3 94       	inc	r13
    5012:	8d 2d       	mov	r24, r13
    5014:	90 e0       	ldi	r25, 0x00	; 0
    5016:	84 17       	cp	r24, r20
    5018:	95 07       	cpc	r25, r21
    501a:	30 f3       	brcs	.-52     	; 0x4fe8 <SNMP_requestPdu+0x238>
    501c:	07 c0       	rjmp	.+14     	; 0x502c <SNMP_requestPdu+0x27c>
    501e:	82 e0       	ldi	r24, 0x02	; 2
    5020:	a8 85       	ldd	r26, Y+8	; 0x08
    5022:	b9 85       	ldd	r27, Y+9	; 0x09
    5024:	19 96       	adiw	r26, 0x09	; 9
    5026:	8c 93       	st	X, r24
    5028:	87 e0       	ldi	r24, 0x07	; 7
    502a:	ea c0       	rjmp	.+468    	; 0x5200 <SNMP_requestPdu+0x450>
    502c:	e8 85       	ldd	r30, Y+8	; 0x08
    502e:	f9 85       	ldd	r31, Y+9	; 0x09
    5030:	15 82       	std	Z+5, r1	; 0x05
    5032:	16 82       	std	Z+6, r1	; 0x06
    5034:	17 82       	std	Z+7, r1	; 0x07
    5036:	10 86       	std	Z+8, r1	; 0x08
    5038:	f9 81       	ldd	r31, Y+1	; 0x01
    503a:	ff 23       	and	r31, r31
    503c:	51 f1       	breq	.+84     	; 0x5092 <SNMP_requestPdu+0x2e2>
    503e:	a7 01       	movw	r20, r14
    5040:	43 53       	subi	r20, 0x33	; 51
    5042:	58 4f       	sbci	r21, 0xF8	; 248
    5044:	87 2d       	mov	r24, r7
    5046:	90 e0       	ldi	r25, 0x00	; 0
    5048:	82 53       	subi	r24, 0x32	; 50
    504a:	98 4f       	sbci	r25, 0xF8	; 248
    504c:	2f 2f       	mov	r18, r31
    504e:	21 50       	subi	r18, 0x01	; 1
    5050:	82 0f       	add	r24, r18
    5052:	91 1d       	adc	r25, r1
    5054:	bb 83       	std	Y+3, r27	; 0x03
    5056:	aa 83       	std	Y+2, r26	; 0x02
    5058:	fa 01       	movw	r30, r20
    505a:	e8 84       	ldd	r14, Y+8	; 0x08
    505c:	f9 84       	ldd	r15, Y+9	; 0x09
    505e:	21 91       	ld	r18, Z+
    5060:	d7 01       	movw	r26, r14
    5062:	15 96       	adiw	r26, 0x05	; 5
    5064:	4d 91       	ld	r20, X+
    5066:	5d 91       	ld	r21, X+
    5068:	6d 91       	ld	r22, X+
    506a:	7c 91       	ld	r23, X
    506c:	18 97       	sbiw	r26, 0x08	; 8
    506e:	76 2f       	mov	r23, r22
    5070:	65 2f       	mov	r22, r21
    5072:	54 2f       	mov	r21, r20
    5074:	44 27       	eor	r20, r20
    5076:	42 2b       	or	r20, r18
    5078:	15 96       	adiw	r26, 0x05	; 5
    507a:	4d 93       	st	X+, r20
    507c:	5d 93       	st	X+, r21
    507e:	6d 93       	st	X+, r22
    5080:	7c 93       	st	X, r23
    5082:	18 97       	sbiw	r26, 0x08	; 8
    5084:	e8 17       	cp	r30, r24
    5086:	f9 07       	cpc	r31, r25
    5088:	51 f7       	brne	.-44     	; 0x505e <SNMP_requestPdu+0x2ae>
    508a:	aa 81       	ldd	r26, Y+2	; 0x02
    508c:	bb 81       	ldd	r27, Y+3	; 0x03
    508e:	f9 86       	std	Y+9, r15	; 0x09
    5090:	e8 86       	std	Y+8, r14	; 0x08
    5092:	e8 85       	ldd	r30, Y+8	; 0x08
    5094:	f9 85       	ldd	r31, Y+9	; 0x09
    5096:	11 86       	std	Z+9, r1	; 0x09
    5098:	fc 81       	ldd	r31, Y+4	; 0x04
    509a:	ff 23       	and	r31, r31
    509c:	e1 f0       	breq	.+56     	; 0x50d6 <SNMP_requestPdu+0x326>
    509e:	05 53       	subi	r16, 0x35	; 53
    50a0:	18 4f       	sbci	r17, 0xF8	; 248
    50a2:	8a 2d       	mov	r24, r10
    50a4:	90 e0       	ldi	r25, 0x00	; 0
    50a6:	84 53       	subi	r24, 0x34	; 52
    50a8:	98 4f       	sbci	r25, 0xF8	; 248
    50aa:	2f 2f       	mov	r18, r31
    50ac:	21 50       	subi	r18, 0x01	; 1
    50ae:	82 0f       	add	r24, r18
    50b0:	91 1d       	adc	r25, r1
    50b2:	40 e0       	ldi	r20, 0x00	; 0
    50b4:	50 e0       	ldi	r21, 0x00	; 0
    50b6:	ba 01       	movw	r22, r20
    50b8:	f8 01       	movw	r30, r16
    50ba:	08 85       	ldd	r16, Y+8	; 0x08
    50bc:	19 85       	ldd	r17, Y+9	; 0x09
    50be:	76 2f       	mov	r23, r22
    50c0:	65 2f       	mov	r22, r21
    50c2:	54 2f       	mov	r21, r20
    50c4:	44 27       	eor	r20, r20
    50c6:	21 91       	ld	r18, Z+
    50c8:	42 2b       	or	r20, r18
    50ca:	e8 17       	cp	r30, r24
    50cc:	f9 07       	cpc	r31, r25
    50ce:	b9 f7       	brne	.-18     	; 0x50be <SNMP_requestPdu+0x30e>
    50d0:	19 87       	std	Y+9, r17	; 0x09
    50d2:	08 87       	std	Y+8, r16	; 0x08
    50d4:	03 c0       	rjmp	.+6      	; 0x50dc <SNMP_requestPdu+0x32c>
    50d6:	40 e0       	ldi	r20, 0x00	; 0
    50d8:	50 e0       	ldi	r21, 0x00	; 0
    50da:	ba 01       	movw	r22, r20
    50dc:	e8 85       	ldd	r30, Y+8	; 0x08
    50de:	f9 85       	ldd	r31, Y+9	; 0x09
    50e0:	41 87       	std	Z+9, r20	; 0x09
    50e2:	12 86       	std	Z+10, r1	; 0x0a
    50e4:	13 86       	std	Z+11, r1	; 0x0b
    50e6:	14 86       	std	Z+12, r1	; 0x0c
    50e8:	15 86       	std	Z+13, r1	; 0x0d
    50ea:	99 20       	and	r9, r9
    50ec:	e9 f0       	breq	.+58     	; 0x5128 <SNMP_requestPdu+0x378>
    50ee:	a5 53       	subi	r26, 0x35	; 53
    50f0:	b8 4f       	sbci	r27, 0xF8	; 248
    50f2:	8b 2d       	mov	r24, r11
    50f4:	90 e0       	ldi	r25, 0x00	; 0
    50f6:	84 53       	subi	r24, 0x34	; 52
    50f8:	98 4f       	sbci	r25, 0xF8	; 248
    50fa:	2f ef       	ldi	r18, 0xFF	; 255
    50fc:	29 0d       	add	r18, r9
    50fe:	82 0f       	add	r24, r18
    5100:	91 1d       	adc	r25, r1
    5102:	2d 91       	ld	r18, X+
    5104:	42 85       	ldd	r20, Z+10	; 0x0a
    5106:	53 85       	ldd	r21, Z+11	; 0x0b
    5108:	64 85       	ldd	r22, Z+12	; 0x0c
    510a:	75 85       	ldd	r23, Z+13	; 0x0d
    510c:	76 2f       	mov	r23, r22
    510e:	65 2f       	mov	r22, r21
    5110:	54 2f       	mov	r21, r20
    5112:	44 27       	eor	r20, r20
    5114:	42 2b       	or	r20, r18
    5116:	42 87       	std	Z+10, r20	; 0x0a
    5118:	53 87       	std	Z+11, r21	; 0x0b
    511a:	64 87       	std	Z+12, r22	; 0x0c
    511c:	75 87       	std	Z+13, r23	; 0x0d
    511e:	a8 17       	cp	r26, r24
    5120:	b9 07       	cpc	r27, r25
    5122:	79 f7       	brne	.-34     	; 0x5102 <SNMP_requestPdu+0x352>
    5124:	f9 87       	std	Y+9, r31	; 0x09
    5126:	e8 87       	std	Y+8, r30	; 0x08
    5128:	f0 e4       	ldi	r31, 0x40	; 64
    512a:	f6 15       	cp	r31, r6
    512c:	38 f4       	brcc	.+14     	; 0x513c <SNMP_requestPdu+0x38c>
    512e:	81 e0       	ldi	r24, 0x01	; 1
    5130:	a8 85       	ldd	r26, Y+8	; 0x08
    5132:	b9 85       	ldd	r27, Y+9	; 0x09
    5134:	19 96       	adiw	r26, 0x09	; 9
    5136:	8c 93       	st	X, r24
    5138:	83 e0       	ldi	r24, 0x03	; 3
    513a:	62 c0       	rjmp	.+196    	; 0x5200 <SNMP_requestPdu+0x450>
    513c:	80 e4       	ldi	r24, 0x40	; 64
    513e:	e8 85       	ldd	r30, Y+8	; 0x08
    5140:	f9 85       	ldd	r31, Y+9	; 0x09
    5142:	3e 96       	adiw	r30, 0x0e	; 14
    5144:	df 01       	movw	r26, r30
    5146:	1d 92       	st	X+, r1
    5148:	8a 95       	dec	r24
    514a:	e9 f7       	brne	.-6      	; 0x5146 <SNMP_requestPdu+0x396>
    514c:	e8 85       	ldd	r30, Y+8	; 0x08
    514e:	f9 85       	ldd	r31, Y+9	; 0x09
    5150:	e2 5b       	subi	r30, 0xB2	; 178
    5152:	ff 4f       	sbci	r31, 0xFF	; 255
    5154:	86 2d       	mov	r24, r6
    5156:	90 e0       	ldi	r25, 0x00	; 0
    5158:	91 83       	std	Z+1, r25	; 0x01
    515a:	80 83       	st	Z, r24
    515c:	66 20       	and	r6, r6
    515e:	21 f1       	breq	.+72     	; 0x51a8 <SNMP_requestPdu+0x3f8>
    5160:	f2 01       	movw	r30, r4
    5162:	e1 53       	subi	r30, 0x31	; 49
    5164:	f8 4f       	sbci	r31, 0xF8	; 248
    5166:	a8 85       	ldd	r26, Y+8	; 0x08
    5168:	b9 85       	ldd	r27, Y+9	; 0x09
    516a:	1e 96       	adiw	r26, 0x0e	; 14
    516c:	8c 2d       	mov	r24, r12
    516e:	90 e0       	ldi	r25, 0x00	; 0
    5170:	80 53       	subi	r24, 0x30	; 48
    5172:	98 4f       	sbci	r25, 0xF8	; 248
    5174:	6a 94       	dec	r6
    5176:	86 0d       	add	r24, r6
    5178:	91 1d       	adc	r25, r1
    517a:	48 85       	ldd	r20, Y+8	; 0x08
    517c:	59 85       	ldd	r21, Y+9	; 0x09
    517e:	21 91       	ld	r18, Z+
    5180:	2d 93       	st	X+, r18
    5182:	e8 17       	cp	r30, r24
    5184:	f9 07       	cpc	r31, r25
    5186:	d9 f7       	brne	.-10     	; 0x517e <SNMP_requestPdu+0x3ce>
    5188:	59 87       	std	Y+9, r21	; 0x09
    518a:	48 87       	std	Y+8, r20	; 0x08
    518c:	0d c0       	rjmp	.+26     	; 0x51a8 <SNMP_requestPdu+0x3f8>
    518e:	21 91       	ld	r18, Z+
    5190:	2d 93       	st	X+, r18
    5192:	e8 17       	cp	r30, r24
    5194:	f9 07       	cpc	r31, r25
    5196:	d9 f7       	brne	.-10     	; 0x518e <SNMP_requestPdu+0x3de>
    5198:	80 e0       	ldi	r24, 0x00	; 0
    519a:	32 c0       	rjmp	.+100    	; 0x5200 <SNMP_requestPdu+0x450>
    519c:	86 e0       	ldi	r24, 0x06	; 6
    519e:	30 c0       	rjmp	.+96     	; 0x5200 <SNMP_requestPdu+0x450>
    51a0:	85 e0       	ldi	r24, 0x05	; 5
    51a2:	2e c0       	rjmp	.+92     	; 0x5200 <SNMP_requestPdu+0x450>
    51a4:	80 e0       	ldi	r24, 0x00	; 0
    51a6:	2c c0       	rjmp	.+88     	; 0x5200 <SNMP_requestPdu+0x450>
    51a8:	e8 85       	ldd	r30, Y+8	; 0x08
    51aa:	f9 85       	ldd	r31, Y+9	; 0x09
    51ac:	ee 56       	subi	r30, 0x6E	; 110
    51ae:	ff 4f       	sbci	r31, 0xFF	; 255
    51b0:	bf 81       	ldd	r27, Y+7	; 0x07
    51b2:	b0 83       	st	Z, r27
    51b4:	e8 85       	ldd	r30, Y+8	; 0x08
    51b6:	f9 85       	ldd	r31, Y+9	; 0x09
    51b8:	e0 57       	subi	r30, 0x70	; 112
    51ba:	ff 4f       	sbci	r31, 0xFF	; 255
    51bc:	2e 81       	ldd	r18, Y+6	; 0x06
    51be:	82 2f       	mov	r24, r18
    51c0:	90 e0       	ldi	r25, 0x00	; 0
    51c2:	91 83       	std	Z+1, r25	; 0x01
    51c4:	80 83       	st	Z, r24
    51c6:	80 e4       	ldi	r24, 0x40	; 64
    51c8:	e8 85       	ldd	r30, Y+8	; 0x08
    51ca:	f9 85       	ldd	r31, Y+9	; 0x09
    51cc:	e0 5b       	subi	r30, 0xB0	; 176
    51ce:	ff 4f       	sbci	r31, 0xFF	; 255
    51d0:	df 01       	movw	r26, r30
    51d2:	1d 92       	st	X+, r1
    51d4:	8a 95       	dec	r24
    51d6:	e9 f7       	brne	.-6      	; 0x51d2 <SNMP_requestPdu+0x422>
    51d8:	22 23       	and	r18, r18
    51da:	21 f3       	breq	.-56     	; 0x51a4 <SNMP_requestPdu+0x3f4>
    51dc:	f1 01       	movw	r30, r2
    51de:	e5 53       	subi	r30, 0x35	; 53
    51e0:	f8 4f       	sbci	r31, 0xF8	; 248
    51e2:	48 85       	ldd	r20, Y+8	; 0x08
    51e4:	59 85       	ldd	r21, Y+9	; 0x09
    51e6:	40 5b       	subi	r20, 0xB0	; 176
    51e8:	5f 4f       	sbci	r21, 0xFF	; 255
    51ea:	bd 81       	ldd	r27, Y+5	; 0x05
    51ec:	8b 2f       	mov	r24, r27
    51ee:	90 e0       	ldi	r25, 0x00	; 0
    51f0:	84 53       	subi	r24, 0x34	; 52
    51f2:	98 4f       	sbci	r25, 0xF8	; 248
    51f4:	2e 81       	ldd	r18, Y+6	; 0x06
    51f6:	21 50       	subi	r18, 0x01	; 1
    51f8:	82 0f       	add	r24, r18
    51fa:	91 1d       	adc	r25, r1
    51fc:	da 01       	movw	r26, r20
    51fe:	c7 cf       	rjmp	.-114    	; 0x518e <SNMP_requestPdu+0x3de>
    5200:	2b 96       	adiw	r28, 0x0b	; 11
    5202:	0f b6       	in	r0, 0x3f	; 63
    5204:	f8 94       	cli
    5206:	de bf       	out	0x3e, r29	; 62
    5208:	0f be       	out	0x3f, r0	; 63
    520a:	cd bf       	out	0x3d, r28	; 61
    520c:	df 91       	pop	r29
    520e:	cf 91       	pop	r28
    5210:	1f 91       	pop	r17
    5212:	0f 91       	pop	r16
    5214:	ff 90       	pop	r15
    5216:	ef 90       	pop	r14
    5218:	df 90       	pop	r13
    521a:	cf 90       	pop	r12
    521c:	bf 90       	pop	r11
    521e:	af 90       	pop	r10
    5220:	9f 90       	pop	r9
    5222:	8f 90       	pop	r8
    5224:	7f 90       	pop	r7
    5226:	6f 90       	pop	r6
    5228:	5f 90       	pop	r5
    522a:	4f 90       	pop	r4
    522c:	3f 90       	pop	r3
    522e:	2f 90       	pop	r2
    5230:	08 95       	ret

00005232 <SNMP_responsePdu>:
    5232:	cf 92       	push	r12
    5234:	df 92       	push	r13
    5236:	ef 92       	push	r14
    5238:	ff 92       	push	r15
    523a:	0f 93       	push	r16
    523c:	1f 93       	push	r17
    523e:	cf 93       	push	r28
    5240:	df 93       	push	r29
    5242:	dc 01       	movw	r26, r24
    5244:	10 92 62 08 	sts	0x0862, r1
    5248:	10 92 61 08 	sts	0x0861, r1
    524c:	ec 01       	movw	r28, r24
    524e:	c2 5b       	subi	r28, 0xB2	; 178
    5250:	df 4f       	sbci	r29, 0xFF	; 255
    5252:	fc 01       	movw	r30, r24
    5254:	e0 57       	subi	r30, 0x70	; 112
    5256:	ff 4f       	sbci	r31, 0xFF	; 255
    5258:	28 81       	ld	r18, Y
    525a:	39 81       	ldd	r19, Y+1	; 0x01
    525c:	80 81       	ld	r24, Z
    525e:	91 81       	ldd	r25, Z+1	; 0x01
    5260:	28 0f       	add	r18, r24
    5262:	39 1f       	adc	r19, r25
    5264:	2b 5d       	subi	r18, 0xDB	; 219
    5266:	3f 4f       	sbci	r19, 0xFF	; 255
    5268:	89 e9       	ldi	r24, 0x99	; 153
    526a:	e8 ec       	ldi	r30, 0xC8	; 200
    526c:	f7 e0       	ldi	r31, 0x07	; 7
    526e:	ef 01       	movw	r28, r30
    5270:	19 92       	st	Y+, r1
    5272:	8a 95       	dec	r24
    5274:	e9 f7       	brne	.-6      	; 0x5270 <SNMP_responsePdu+0x3e>
    5276:	80 91 ef 09 	lds	r24, 0x09EF
    527a:	83 3a       	cpi	r24, 0xA3	; 163
    527c:	29 f5       	brne	.+74     	; 0x52c8 <SNMP_responsePdu+0x96>
    527e:	80 91 b5 08 	lds	r24, 0x08B5
    5282:	90 91 b6 08 	lds	r25, 0x08B6
    5286:	28 0f       	add	r18, r24
    5288:	39 1f       	adc	r19, r25
    528a:	30 93 7a 08 	sts	0x087A, r19
    528e:	20 93 79 08 	sts	0x0879, r18
    5292:	30 e3       	ldi	r19, 0x30	; 48
    5294:	30 93 c8 07 	sts	0x07C8, r19
    5298:	22 50       	subi	r18, 0x02	; 2
    529a:	20 93 c9 07 	sts	0x07C9, r18
    529e:	22 e0       	ldi	r18, 0x02	; 2
    52a0:	20 93 ca 07 	sts	0x07CA, r18
    52a4:	21 e0       	ldi	r18, 0x01	; 1
    52a6:	20 93 cb 07 	sts	0x07CB, r18
    52aa:	24 e0       	ldi	r18, 0x04	; 4
    52ac:	20 93 cd 07 	sts	0x07CD, r18
    52b0:	27 e0       	ldi	r18, 0x07	; 7
    52b2:	30 e0       	ldi	r19, 0x00	; 0
    52b4:	30 93 62 08 	sts	0x0862, r19
    52b8:	20 93 61 08 	sts	0x0861, r18
    52bc:	bc 01       	movw	r22, r24
    52be:	80 93 ce 07 	sts	0x07CE, r24
    52c2:	00 97       	sbiw	r24, 0x00	; 0
    52c4:	31 f5       	brne	.+76     	; 0x5312 <SNMP_responsePdu+0xe0>
    52c6:	66 c0       	rjmp	.+204    	; 0x5394 <SNMP_responsePdu+0x162>
    52c8:	80 91 7f 08 	lds	r24, 0x087F
    52cc:	90 91 80 08 	lds	r25, 0x0880
    52d0:	28 0f       	add	r18, r24
    52d2:	39 1f       	adc	r19, r25
    52d4:	30 93 7a 08 	sts	0x087A, r19
    52d8:	20 93 79 08 	sts	0x0879, r18
    52dc:	30 e3       	ldi	r19, 0x30	; 48
    52de:	30 93 c8 07 	sts	0x07C8, r19
    52e2:	22 50       	subi	r18, 0x02	; 2
    52e4:	20 93 c9 07 	sts	0x07C9, r18
    52e8:	22 e0       	ldi	r18, 0x02	; 2
    52ea:	20 93 ca 07 	sts	0x07CA, r18
    52ee:	21 e0       	ldi	r18, 0x01	; 1
    52f0:	20 93 cb 07 	sts	0x07CB, r18
    52f4:	24 e0       	ldi	r18, 0x04	; 4
    52f6:	20 93 cd 07 	sts	0x07CD, r18
    52fa:	27 e0       	ldi	r18, 0x07	; 7
    52fc:	30 e0       	ldi	r19, 0x00	; 0
    52fe:	30 93 62 08 	sts	0x0862, r19
    5302:	20 93 61 08 	sts	0x0861, r18
    5306:	bc 01       	movw	r22, r24
    5308:	80 93 ce 07 	sts	0x07CE, r24
    530c:	00 97       	sbiw	r24, 0x00	; 0
    530e:	11 f5       	brne	.+68     	; 0x5354 <SNMP_responsePdu+0x122>
    5310:	41 c0       	rjmp	.+130    	; 0x5394 <SNMP_responsePdu+0x162>
    5312:	00 91 d1 0b 	lds	r16, 0x0BD1
    5316:	10 91 d2 0b 	lds	r17, 0x0BD2
    531a:	80 e0       	ldi	r24, 0x00	; 0
    531c:	90 e0       	ldi	r25, 0x00	; 0
    531e:	c0 e0       	ldi	r28, 0x00	; 0
    5320:	20 91 61 08 	lds	r18, 0x0861
    5324:	30 91 62 08 	lds	r19, 0x0862
    5328:	a9 01       	movw	r20, r18
    532a:	4f 5f       	subi	r20, 0xFF	; 255
    532c:	5f 4f       	sbci	r21, 0xFF	; 255
    532e:	50 93 62 08 	sts	0x0862, r21
    5332:	40 93 61 08 	sts	0x0861, r20
    5336:	80 0f       	add	r24, r16
    5338:	91 1f       	adc	r25, r17
    533a:	fc 01       	movw	r30, r24
    533c:	80 81       	ld	r24, Z
    533e:	28 53       	subi	r18, 0x38	; 56
    5340:	38 4f       	sbci	r19, 0xF8	; 248
    5342:	f9 01       	movw	r30, r18
    5344:	80 83       	st	Z, r24
    5346:	cf 5f       	subi	r28, 0xFF	; 255
    5348:	8c 2f       	mov	r24, r28
    534a:	90 e0       	ldi	r25, 0x00	; 0
    534c:	86 17       	cp	r24, r22
    534e:	97 07       	cpc	r25, r23
    5350:	38 f3       	brcs	.-50     	; 0x5320 <SNMP_responsePdu+0xee>
    5352:	20 c0       	rjmp	.+64     	; 0x5394 <SNMP_responsePdu+0x162>
    5354:	00 91 c0 07 	lds	r16, 0x07C0
    5358:	10 91 c1 07 	lds	r17, 0x07C1
    535c:	80 e0       	ldi	r24, 0x00	; 0
    535e:	90 e0       	ldi	r25, 0x00	; 0
    5360:	c0 e0       	ldi	r28, 0x00	; 0
    5362:	20 91 61 08 	lds	r18, 0x0861
    5366:	30 91 62 08 	lds	r19, 0x0862
    536a:	a9 01       	movw	r20, r18
    536c:	4f 5f       	subi	r20, 0xFF	; 255
    536e:	5f 4f       	sbci	r21, 0xFF	; 255
    5370:	50 93 62 08 	sts	0x0862, r21
    5374:	40 93 61 08 	sts	0x0861, r20
    5378:	80 0f       	add	r24, r16
    537a:	91 1f       	adc	r25, r17
    537c:	fc 01       	movw	r30, r24
    537e:	80 81       	ld	r24, Z
    5380:	28 53       	subi	r18, 0x38	; 56
    5382:	38 4f       	sbci	r19, 0xF8	; 248
    5384:	f9 01       	movw	r30, r18
    5386:	80 83       	st	Z, r24
    5388:	cf 5f       	subi	r28, 0xFF	; 255
    538a:	8c 2f       	mov	r24, r28
    538c:	90 e0       	ldi	r25, 0x00	; 0
    538e:	86 17       	cp	r24, r22
    5390:	97 07       	cpc	r25, r23
    5392:	38 f3       	brcs	.-50     	; 0x5362 <SNMP_responsePdu+0x130>
    5394:	80 91 61 08 	lds	r24, 0x0861
    5398:	90 91 62 08 	lds	r25, 0x0862
    539c:	9c 01       	movw	r18, r24
    539e:	2f 5f       	subi	r18, 0xFF	; 255
    53a0:	3f 4f       	sbci	r19, 0xFF	; 255
    53a2:	30 93 62 08 	sts	0x0862, r19
    53a6:	20 93 61 08 	sts	0x0861, r18
    53aa:	4c 91       	ld	r20, X
    53ac:	fc 01       	movw	r30, r24
    53ae:	e8 53       	subi	r30, 0x38	; 56
    53b0:	f8 4f       	sbci	r31, 0xF8	; 248
    53b2:	40 83       	st	Z, r20
    53b4:	a9 01       	movw	r20, r18
    53b6:	48 53       	subi	r20, 0x38	; 56
    53b8:	58 4f       	sbci	r21, 0xF8	; 248
    53ba:	7d 01       	movw	r14, r26
    53bc:	2e e4       	ldi	r18, 0x4E	; 78
    53be:	e2 0e       	add	r14, r18
    53c0:	f1 1c       	adc	r15, r1
    53c2:	e7 01       	movw	r28, r14
    53c4:	78 81       	ld	r23, Y
    53c6:	9d 01       	movw	r18, r26
    53c8:	20 57       	subi	r18, 0x70	; 112
    53ca:	3f 4f       	sbci	r19, 0xFF	; 255
    53cc:	e9 01       	movw	r28, r18
    53ce:	68 81       	ld	r22, Y
    53d0:	67 0f       	add	r22, r23
    53d2:	66 5e       	subi	r22, 0xE6	; 230
    53d4:	ea 01       	movw	r28, r20
    53d6:	68 83       	st	Y, r22
    53d8:	02 e0       	ldi	r16, 0x02	; 2
    53da:	02 83       	std	Z+2, r16	; 0x02
    53dc:	14 e0       	ldi	r17, 0x04	; 4
    53de:	13 83       	std	Z+3, r17	; 0x03
    53e0:	15 96       	adiw	r26, 0x05	; 5
    53e2:	4c 91       	ld	r20, X
    53e4:	15 97       	sbiw	r26, 0x05	; 5
    53e6:	16 96       	adiw	r26, 0x06	; 6
    53e8:	5c 91       	ld	r21, X
    53ea:	16 97       	sbiw	r26, 0x06	; 6
    53ec:	17 96       	adiw	r26, 0x07	; 7
    53ee:	6c 91       	ld	r22, X
    53f0:	17 97       	sbiw	r26, 0x07	; 7
    53f2:	18 96       	adiw	r26, 0x08	; 8
    53f4:	7c 91       	ld	r23, X
    53f6:	18 97       	sbiw	r26, 0x08	; 8
    53f8:	74 83       	std	Z+4, r23	; 0x04
    53fa:	65 83       	std	Z+5, r22	; 0x05
    53fc:	56 83       	std	Z+6, r21	; 0x06
    53fe:	47 83       	std	Z+7, r20	; 0x07
    5400:	00 87       	std	Z+8, r16	; 0x08
    5402:	11 87       	std	Z+9, r17	; 0x09
    5404:	19 96       	adiw	r26, 0x09	; 9
    5406:	4c 91       	ld	r20, X
    5408:	19 97       	sbiw	r26, 0x09	; 9
    540a:	12 86       	std	Z+10, r1	; 0x0a
    540c:	13 86       	std	Z+11, r1	; 0x0b
    540e:	14 86       	std	Z+12, r1	; 0x0c
    5410:	45 87       	std	Z+13, r20	; 0x0d
    5412:	06 87       	std	Z+14, r16	; 0x0e
    5414:	17 87       	std	Z+15, r17	; 0x0f
    5416:	1a 96       	adiw	r26, 0x0a	; 10
    5418:	4c 91       	ld	r20, X
    541a:	1a 97       	sbiw	r26, 0x0a	; 10
    541c:	1b 96       	adiw	r26, 0x0b	; 11
    541e:	5c 91       	ld	r21, X
    5420:	1b 97       	sbiw	r26, 0x0b	; 11
    5422:	1c 96       	adiw	r26, 0x0c	; 12
    5424:	6c 91       	ld	r22, X
    5426:	1c 97       	sbiw	r26, 0x0c	; 12
    5428:	1d 96       	adiw	r26, 0x0d	; 13
    542a:	7c 91       	ld	r23, X
    542c:	1d 97       	sbiw	r26, 0x0d	; 13
    542e:	70 8b       	std	Z+16, r23	; 0x10
    5430:	61 8b       	std	Z+17, r22	; 0x11
    5432:	52 8b       	std	Z+18, r21	; 0x12
    5434:	43 8b       	std	Z+19, r20	; 0x13
    5436:	40 e3       	ldi	r20, 0x30	; 48
    5438:	44 8b       	std	Z+20, r20	; 0x14
    543a:	e7 01       	movw	r28, r14
    543c:	68 81       	ld	r22, Y
    543e:	e9 01       	movw	r28, r18
    5440:	58 81       	ld	r21, Y
    5442:	56 0f       	add	r21, r22
    5444:	5a 5f       	subi	r21, 0xFA	; 250
    5446:	55 8b       	std	Z+21, r21	; 0x15
    5448:	46 8b       	std	Z+22, r20	; 0x16
    544a:	e7 01       	movw	r28, r14
    544c:	48 81       	ld	r20, Y
    544e:	e9 01       	movw	r28, r18
    5450:	28 81       	ld	r18, Y
    5452:	24 0f       	add	r18, r20
    5454:	2c 5f       	subi	r18, 0xFC	; 252
    5456:	27 8b       	std	Z+23, r18	; 0x17
    5458:	26 e0       	ldi	r18, 0x06	; 6
    545a:	20 8f       	std	Z+24, r18	; 0x18
    545c:	4a 96       	adiw	r24, 0x1a	; 26
    545e:	90 93 62 08 	sts	0x0862, r25
    5462:	80 93 61 08 	sts	0x0861, r24
    5466:	e7 01       	movw	r28, r14
    5468:	88 81       	ld	r24, Y
    546a:	81 8f       	std	Z+25, r24	; 0x19
    546c:	88 81       	ld	r24, Y
    546e:	99 81       	ldd	r25, Y+1	; 0x01
    5470:	89 2b       	or	r24, r25
    5472:	49 f1       	breq	.+82     	; 0x54c6 <SNMP_responsePdu+0x294>
    5474:	80 91 61 08 	lds	r24, 0x0861
    5478:	90 91 62 08 	lds	r25, 0x0862
    547c:	fd 01       	movw	r30, r26
    547e:	3e 96       	adiw	r30, 0x0e	; 14
    5480:	9c 01       	movw	r18, r24
    5482:	28 53       	subi	r18, 0x38	; 56
    5484:	38 4f       	sbci	r19, 0xF8	; 248
    5486:	69 01       	movw	r12, r18
    5488:	7c 01       	movw	r14, r24
    548a:	3d e0       	ldi	r19, 0x0D	; 13
    548c:	e3 1a       	sub	r14, r19
    548e:	f1 08       	sbc	r15, r1
    5490:	ea 1a       	sub	r14, r26
    5492:	fb 0a       	sbc	r15, r27
    5494:	02 ef       	ldi	r16, 0xF2	; 242
    5496:	1f ef       	ldi	r17, 0xFF	; 255
    5498:	0a 1b       	sub	r16, r26
    549a:	1b 0b       	sbc	r17, r27
    549c:	be 01       	movw	r22, r28
    549e:	a7 01       	movw	r20, r14
    54a0:	4e 0f       	add	r20, r30
    54a2:	5f 1f       	adc	r21, r31
    54a4:	81 91       	ld	r24, Z+
    54a6:	e6 01       	movw	r28, r12
    54a8:	89 93       	st	Y+, r24
    54aa:	6e 01       	movw	r12, r28
    54ac:	98 01       	movw	r18, r16
    54ae:	2e 0f       	add	r18, r30
    54b0:	3f 1f       	adc	r19, r31
    54b2:	eb 01       	movw	r28, r22
    54b4:	88 81       	ld	r24, Y
    54b6:	99 81       	ldd	r25, Y+1	; 0x01
    54b8:	28 17       	cp	r18, r24
    54ba:	39 07       	cpc	r19, r25
    54bc:	80 f3       	brcs	.-32     	; 0x549e <SNMP_responsePdu+0x26c>
    54be:	50 93 62 08 	sts	0x0862, r21
    54c2:	40 93 61 08 	sts	0x0861, r20
    54c6:	80 91 61 08 	lds	r24, 0x0861
    54ca:	90 91 62 08 	lds	r25, 0x0862
    54ce:	fd 01       	movw	r30, r26
    54d0:	ee 56       	subi	r30, 0x6E	; 110
    54d2:	ff 4f       	sbci	r31, 0xFF	; 255
    54d4:	20 81       	ld	r18, Z
    54d6:	ec 01       	movw	r28, r24
    54d8:	c8 53       	subi	r28, 0x38	; 56
    54da:	d8 4f       	sbci	r29, 0xF8	; 248
    54dc:	28 83       	st	Y, r18
    54de:	02 96       	adiw	r24, 0x02	; 2
    54e0:	90 93 62 08 	sts	0x0862, r25
    54e4:	80 93 61 08 	sts	0x0861, r24
    54e8:	32 97       	sbiw	r30, 0x02	; 2
    54ea:	80 81       	ld	r24, Z
    54ec:	89 83       	std	Y+1, r24	; 0x01
    54ee:	80 81       	ld	r24, Z
    54f0:	91 81       	ldd	r25, Z+1	; 0x01
    54f2:	89 2b       	or	r24, r25
    54f4:	29 f1       	breq	.+74     	; 0x5540 <SNMP_responsePdu+0x30e>
    54f6:	00 91 61 08 	lds	r16, 0x0861
    54fa:	10 91 62 08 	lds	r17, 0x0862
    54fe:	e0 54       	subi	r30, 0x40	; 64
    5500:	f1 09       	sbc	r31, r1
    5502:	e8 01       	movw	r28, r16
    5504:	c8 53       	subi	r28, 0x38	; 56
    5506:	d8 4f       	sbci	r29, 0xF8	; 248
    5508:	0f 54       	subi	r16, 0x4F	; 79
    550a:	11 09       	sbc	r17, r1
    550c:	0a 1b       	sub	r16, r26
    550e:	1b 0b       	sbc	r17, r27
    5510:	60 eb       	ldi	r22, 0xB0	; 176
    5512:	7f ef       	ldi	r23, 0xFF	; 255
    5514:	6a 1b       	sub	r22, r26
    5516:	7b 0b       	sbc	r23, r27
    5518:	a0 57       	subi	r26, 0x70	; 112
    551a:	bf 4f       	sbci	r27, 0xFF	; 255
    551c:	a8 01       	movw	r20, r16
    551e:	4e 0f       	add	r20, r30
    5520:	5f 1f       	adc	r21, r31
    5522:	81 91       	ld	r24, Z+
    5524:	89 93       	st	Y+, r24
    5526:	9b 01       	movw	r18, r22
    5528:	2e 0f       	add	r18, r30
    552a:	3f 1f       	adc	r19, r31
    552c:	8d 91       	ld	r24, X+
    552e:	9c 91       	ld	r25, X
    5530:	11 97       	sbiw	r26, 0x01	; 1
    5532:	28 17       	cp	r18, r24
    5534:	39 07       	cpc	r19, r25
    5536:	90 f3       	brcs	.-28     	; 0x551c <SNMP_responsePdu+0x2ea>
    5538:	50 93 62 08 	sts	0x0862, r21
    553c:	40 93 61 08 	sts	0x0861, r20
    5540:	60 91 e7 10 	lds	r22, 0x10E7
    5544:	70 91 e8 10 	lds	r23, 0x10E8
    5548:	8d ee       	ldi	r24, 0xED	; 237
    554a:	90 e1       	ldi	r25, 0x10	; 16
    554c:	0e 94 a8 19 	call	0x3350	; 0x3350 <_UDPtoSerialSocket_beginPacket>
    5550:	60 91 79 08 	lds	r22, 0x0879
    5554:	70 91 7a 08 	lds	r23, 0x087A
    5558:	88 ec       	ldi	r24, 0xC8	; 200
    555a:	97 e0       	ldi	r25, 0x07	; 7
    555c:	0e 94 c5 19 	call	0x338a	; 0x338a <_UDPtoSerialSocket_write>
    5560:	80 e0       	ldi	r24, 0x00	; 0
    5562:	df 91       	pop	r29
    5564:	cf 91       	pop	r28
    5566:	1f 91       	pop	r17
    5568:	0f 91       	pop	r16
    556a:	ff 90       	pop	r15
    556c:	ef 90       	pop	r14
    556e:	df 90       	pop	r13
    5570:	cf 90       	pop	r12
    5572:	08 95       	ret

00005574 <SNMP_VARS_Processing>:
    5574:	df 92       	push	r13
    5576:	ef 92       	push	r14
    5578:	ff 92       	push	r15
    557a:	0f 93       	push	r16
    557c:	1f 93       	push	r17
    557e:	cf 93       	push	r28
    5580:	df 93       	push	r29
    5582:	7c 01       	movw	r14, r24
    5584:	eb 01       	movw	r28, r22
    5586:	d1 2c       	mov	r13, r1
    5588:	0d 2d       	mov	r16, r13
    558a:	10 e0       	ldi	r17, 0x00	; 0
    558c:	f8 01       	movw	r30, r16
    558e:	ee 0f       	add	r30, r30
    5590:	ff 1f       	adc	r31, r31
    5592:	e0 0f       	add	r30, r16
    5594:	f1 1f       	adc	r31, r17
    5596:	ee 0f       	add	r30, r30
    5598:	ff 1f       	adc	r31, r31
    559a:	e7 5f       	subi	r30, 0xF7	; 247
    559c:	fd 4f       	sbci	r31, 0xFD	; 253
    559e:	60 81       	ld	r22, Z
    55a0:	71 81       	ldd	r23, Z+1	; 0x01
    55a2:	c7 01       	movw	r24, r14
    55a4:	0e 94 fa 35 	call	0x6bf4	; 0x6bf4 <strcmp>
    55a8:	89 2b       	or	r24, r25
    55aa:	09 f0       	breq	.+2      	; 0x55ae <SNMP_VARS_Processing+0x3a>
    55ac:	50 c1       	rjmp	.+672    	; 0x584e <SNMP_VARS_Processing+0x2da>
    55ae:	f8 01       	movw	r30, r16
    55b0:	ee 0f       	add	r30, r30
    55b2:	ff 1f       	adc	r31, r31
    55b4:	e0 0f       	add	r30, r16
    55b6:	f1 1f       	adc	r31, r17
    55b8:	ee 0f       	add	r30, r30
    55ba:	ff 1f       	adc	r31, r31
    55bc:	e7 5f       	subi	r30, 0xF7	; 247
    55be:	fd 4f       	sbci	r31, 0xFD	; 253
    55c0:	42 81       	ldd	r20, Z+2	; 0x02
    55c2:	50 e0       	ldi	r21, 0x00	; 0
    55c4:	fa 01       	movw	r30, r20
    55c6:	31 97       	sbiw	r30, 0x01	; 1
    55c8:	e7 34       	cpi	r30, 0x47	; 71
    55ca:	f1 05       	cpc	r31, r1
    55cc:	08 f0       	brcs	.+2      	; 0x55d0 <SNMP_VARS_Processing+0x5c>
    55ce:	3f c1       	rjmp	.+638    	; 0x584e <SNMP_VARS_Processing+0x2da>
    55d0:	ea 57       	subi	r30, 0x7A	; 122
    55d2:	ff 4f       	sbci	r31, 0xFF	; 255
    55d4:	0c 94 7d 35 	jmp	0x6afa	; 0x6afa <__tablejump2__>
    55d8:	88 81       	ld	r24, Y
    55da:	83 3a       	cpi	r24, 0xA3	; 163
    55dc:	21 f5       	brne	.+72     	; 0x5626 <SNMP_VARS_Processing+0xb2>
    55de:	f8 01       	movw	r30, r16
    55e0:	ee 0f       	add	r30, r30
    55e2:	ff 1f       	adc	r31, r31
    55e4:	0e 0f       	add	r16, r30
    55e6:	1f 1f       	adc	r17, r31
    55e8:	f8 01       	movw	r30, r16
    55ea:	ee 0f       	add	r30, r30
    55ec:	ff 1f       	adc	r31, r31
    55ee:	e7 5f       	subi	r30, 0xF7	; 247
    55f0:	fd 4f       	sbci	r31, 0xFD	; 253
    55f2:	03 80       	ldd	r0, Z+3	; 0x03
    55f4:	f4 81       	ldd	r31, Z+4	; 0x04
    55f6:	e0 2d       	mov	r30, r0
    55f8:	df 01       	movw	r26, r30
    55fa:	0d 90       	ld	r0, X+
    55fc:	00 20       	and	r0, r0
    55fe:	e9 f7       	brne	.-6      	; 0x55fa <SNMP_VARS_Processing+0x86>
    5600:	11 97       	sbiw	r26, 0x01	; 1
    5602:	ad 01       	movw	r20, r26
    5604:	4e 1b       	sub	r20, r30
    5606:	5f 0b       	sbc	r21, r31
    5608:	60 81       	ld	r22, Z
    560a:	70 e0       	ldi	r23, 0x00	; 0
    560c:	ce 01       	movw	r24, r28
    560e:	80 5b       	subi	r24, 0xB0	; 176
    5610:	9f 4f       	sbci	r25, 0xFF	; 255
    5612:	ea d8       	rcall	.-3628   	; 0x47e8 <decodeOctetStringToString>
    5614:	80 93 8d 11 	sts	0x118D, r24
    5618:	82 ea       	ldi	r24, 0xA2	; 162
    561a:	88 83       	st	Y, r24
    561c:	80 91 8d 11 	lds	r24, 0x118D
    5620:	89 87       	std	Y+9, r24	; 0x09
    5622:	81 e0       	ldi	r24, 0x01	; 1
    5624:	19 c1       	rjmp	.+562    	; 0x5858 <SNMP_VARS_Processing+0x2e4>
    5626:	f8 01       	movw	r30, r16
    5628:	ee 0f       	add	r30, r30
    562a:	ff 1f       	adc	r31, r31
    562c:	0e 0f       	add	r16, r30
    562e:	1f 1f       	adc	r17, r31
    5630:	f8 01       	movw	r30, r16
    5632:	ee 0f       	add	r30, r30
    5634:	ff 1f       	adc	r31, r31
    5636:	e7 5f       	subi	r30, 0xF7	; 247
    5638:	fd 4f       	sbci	r31, 0xFD	; 253
    563a:	03 80       	ldd	r0, Z+3	; 0x03
    563c:	f4 81       	ldd	r31, Z+4	; 0x04
    563e:	e0 2d       	mov	r30, r0
    5640:	40 81       	ld	r20, Z
    5642:	50 e0       	ldi	r21, 0x00	; 0
    5644:	64 e0       	ldi	r22, 0x04	; 4
    5646:	ce 01       	movw	r24, r28
    5648:	80 5b       	subi	r24, 0xB0	; 176
    564a:	9f 4f       	sbci	r25, 0xFF	; 255
    564c:	c3 da       	rcall	.-2682   	; 0x4bd4 <encodeStringToOctetString>
    564e:	80 93 8d 11 	sts	0x118D, r24
    5652:	82 ea       	ldi	r24, 0xA2	; 162
    5654:	88 83       	st	Y, r24
    5656:	80 91 8d 11 	lds	r24, 0x118D
    565a:	89 87       	std	Y+9, r24	; 0x09
    565c:	81 e0       	ldi	r24, 0x01	; 1
    565e:	fc c0       	rjmp	.+504    	; 0x5858 <SNMP_VARS_Processing+0x2e4>
    5660:	88 81       	ld	r24, Y
    5662:	83 3a       	cpi	r24, 0xA3	; 163
    5664:	59 f5       	brne	.+86     	; 0x56bc <SNMP_VARS_Processing+0x148>
    5666:	f8 01       	movw	r30, r16
    5668:	ee 0f       	add	r30, r30
    566a:	ff 1f       	adc	r31, r31
    566c:	e0 0f       	add	r30, r16
    566e:	f1 1f       	adc	r31, r17
    5670:	ee 0f       	add	r30, r30
    5672:	ff 1f       	adc	r31, r31
    5674:	e7 5f       	subi	r30, 0xF7	; 247
    5676:	fd 4f       	sbci	r31, 0xFD	; 253
    5678:	85 81       	ldd	r24, Z+5	; 0x05
    567a:	81 30       	cpi	r24, 0x01	; 1
    567c:	c9 f4       	brne	.+50     	; 0x56b0 <SNMP_VARS_Processing+0x13c>
    567e:	f8 01       	movw	r30, r16
    5680:	ee 0f       	add	r30, r30
    5682:	ff 1f       	adc	r31, r31
    5684:	0e 0f       	add	r16, r30
    5686:	1f 1f       	adc	r17, r31
    5688:	f8 01       	movw	r30, r16
    568a:	ee 0f       	add	r30, r30
    568c:	ff 1f       	adc	r31, r31
    568e:	e7 5f       	subi	r30, 0xF7	; 247
    5690:	fd 4f       	sbci	r31, 0xFD	; 253
    5692:	63 81       	ldd	r22, Z+3	; 0x03
    5694:	74 81       	ldd	r23, Z+4	; 0x04
    5696:	ce 01       	movw	r24, r28
    5698:	80 5b       	subi	r24, 0xB0	; 176
    569a:	9f 4f       	sbci	r25, 0xFF	; 255
    569c:	8c d9       	rcall	.-3304   	; 0x49b6 <decodeInt16toHoldReg>
    569e:	80 93 8d 11 	sts	0x118D, r24
    56a2:	82 ea       	ldi	r24, 0xA2	; 162
    56a4:	88 83       	st	Y, r24
    56a6:	80 91 8d 11 	lds	r24, 0x118D
    56aa:	89 87       	std	Y+9, r24	; 0x09
    56ac:	81 e0       	ldi	r24, 0x01	; 1
    56ae:	d4 c0       	rjmp	.+424    	; 0x5858 <SNMP_VARS_Processing+0x2e4>
    56b0:	82 ea       	ldi	r24, 0xA2	; 162
    56b2:	88 83       	st	Y, r24
    56b4:	84 e0       	ldi	r24, 0x04	; 4
    56b6:	89 87       	std	Y+9, r24	; 0x09
    56b8:	81 e0       	ldi	r24, 0x01	; 1
    56ba:	ce c0       	rjmp	.+412    	; 0x5858 <SNMP_VARS_Processing+0x2e4>
    56bc:	f8 01       	movw	r30, r16
    56be:	ee 0f       	add	r30, r30
    56c0:	ff 1f       	adc	r31, r31
    56c2:	0e 0f       	add	r16, r30
    56c4:	1f 1f       	adc	r17, r31
    56c6:	f8 01       	movw	r30, r16
    56c8:	ee 0f       	add	r30, r30
    56ca:	ff 1f       	adc	r31, r31
    56cc:	e7 5f       	subi	r30, 0xF7	; 247
    56ce:	fd 4f       	sbci	r31, 0xFD	; 253
    56d0:	03 80       	ldd	r0, Z+3	; 0x03
    56d2:	f4 81       	ldd	r31, Z+4	; 0x04
    56d4:	e0 2d       	mov	r30, r0
    56d6:	40 81       	ld	r20, Z
    56d8:	51 81       	ldd	r21, Z+1	; 0x01
    56da:	62 e0       	ldi	r22, 0x02	; 2
    56dc:	ce 01       	movw	r24, r28
    56de:	80 5b       	subi	r24, 0xB0	; 176
    56e0:	9f 4f       	sbci	r25, 0xFF	; 255
    56e2:	c3 da       	rcall	.-2682   	; 0x4c6a <encodeInt16ToInt>
    56e4:	80 93 8d 11 	sts	0x118D, r24
    56e8:	82 ea       	ldi	r24, 0xA2	; 162
    56ea:	88 83       	st	Y, r24
    56ec:	80 91 8d 11 	lds	r24, 0x118D
    56f0:	89 87       	std	Y+9, r24	; 0x09
    56f2:	81 e0       	ldi	r24, 0x01	; 1
    56f4:	b1 c0       	rjmp	.+354    	; 0x5858 <SNMP_VARS_Processing+0x2e4>
    56f6:	88 81       	ld	r24, Y
    56f8:	83 3a       	cpi	r24, 0xA3	; 163
    56fa:	c9 f4       	brne	.+50     	; 0x572e <SNMP_VARS_Processing+0x1ba>
    56fc:	f8 01       	movw	r30, r16
    56fe:	ee 0f       	add	r30, r30
    5700:	ff 1f       	adc	r31, r31
    5702:	0e 0f       	add	r16, r30
    5704:	1f 1f       	adc	r17, r31
    5706:	f8 01       	movw	r30, r16
    5708:	ee 0f       	add	r30, r30
    570a:	ff 1f       	adc	r31, r31
    570c:	e7 5f       	subi	r30, 0xF7	; 247
    570e:	fd 4f       	sbci	r31, 0xFD	; 253
    5710:	63 81       	ldd	r22, Z+3	; 0x03
    5712:	74 81       	ldd	r23, Z+4	; 0x04
    5714:	ce 01       	movw	r24, r28
    5716:	80 5b       	subi	r24, 0xB0	; 176
    5718:	9f 4f       	sbci	r25, 0xFF	; 255
    571a:	c7 d9       	rcall	.-3186   	; 0x4aaa <decodeUint32CounterTimeticksGaugeToUint32>
    571c:	80 93 8d 11 	sts	0x118D, r24
    5720:	82 ea       	ldi	r24, 0xA2	; 162
    5722:	88 83       	st	Y, r24
    5724:	80 91 8d 11 	lds	r24, 0x118D
    5728:	89 87       	std	Y+9, r24	; 0x09
    572a:	81 e0       	ldi	r24, 0x01	; 1
    572c:	95 c0       	rjmp	.+298    	; 0x5858 <SNMP_VARS_Processing+0x2e4>
    572e:	f8 01       	movw	r30, r16
    5730:	ee 0f       	add	r30, r30
    5732:	ff 1f       	adc	r31, r31
    5734:	0e 0f       	add	r16, r30
    5736:	1f 1f       	adc	r17, r31
    5738:	f8 01       	movw	r30, r16
    573a:	ee 0f       	add	r30, r30
    573c:	ff 1f       	adc	r31, r31
    573e:	e7 5f       	subi	r30, 0xF7	; 247
    5740:	fd 4f       	sbci	r31, 0xFD	; 253
    5742:	03 80       	ldd	r0, Z+3	; 0x03
    5744:	f4 81       	ldd	r31, Z+4	; 0x04
    5746:	e0 2d       	mov	r30, r0
    5748:	20 81       	ld	r18, Z
    574a:	31 81       	ldd	r19, Z+1	; 0x01
    574c:	42 81       	ldd	r20, Z+2	; 0x02
    574e:	53 81       	ldd	r21, Z+3	; 0x03
    5750:	67 e4       	ldi	r22, 0x47	; 71
    5752:	ce 01       	movw	r24, r28
    5754:	80 5b       	subi	r24, 0xB0	; 176
    5756:	9f 4f       	sbci	r25, 0xFF	; 255
    5758:	be da       	rcall	.-2692   	; 0x4cd6 <encodeUint32ToUint32>
    575a:	80 93 8d 11 	sts	0x118D, r24
    575e:	82 ea       	ldi	r24, 0xA2	; 162
    5760:	88 83       	st	Y, r24
    5762:	80 91 8d 11 	lds	r24, 0x118D
    5766:	89 87       	std	Y+9, r24	; 0x09
    5768:	81 e0       	ldi	r24, 0x01	; 1
    576a:	76 c0       	rjmp	.+236    	; 0x5858 <SNMP_VARS_Processing+0x2e4>
    576c:	88 81       	ld	r24, Y
    576e:	83 3a       	cpi	r24, 0xA3	; 163
    5770:	c9 f4       	brne	.+50     	; 0x57a4 <SNMP_VARS_Processing+0x230>
    5772:	f8 01       	movw	r30, r16
    5774:	ee 0f       	add	r30, r30
    5776:	ff 1f       	adc	r31, r31
    5778:	0e 0f       	add	r16, r30
    577a:	1f 1f       	adc	r17, r31
    577c:	f8 01       	movw	r30, r16
    577e:	ee 0f       	add	r30, r30
    5780:	ff 1f       	adc	r31, r31
    5782:	e7 5f       	subi	r30, 0xF7	; 247
    5784:	fd 4f       	sbci	r31, 0xFD	; 253
    5786:	63 81       	ldd	r22, Z+3	; 0x03
    5788:	74 81       	ldd	r23, Z+4	; 0x04
    578a:	ce 01       	movw	r24, r28
    578c:	80 5b       	subi	r24, 0xB0	; 176
    578e:	9f 4f       	sbci	r25, 0xFF	; 255
    5790:	ca d9       	rcall	.-3180   	; 0x4b26 <decodeIpAddressToByteArray>
    5792:	80 93 8d 11 	sts	0x118D, r24
    5796:	82 ea       	ldi	r24, 0xA2	; 162
    5798:	88 83       	st	Y, r24
    579a:	80 91 8d 11 	lds	r24, 0x118D
    579e:	89 87       	std	Y+9, r24	; 0x09
    57a0:	81 e0       	ldi	r24, 0x01	; 1
    57a2:	5a c0       	rjmp	.+180    	; 0x5858 <SNMP_VARS_Processing+0x2e4>
    57a4:	f8 01       	movw	r30, r16
    57a6:	ee 0f       	add	r30, r30
    57a8:	ff 1f       	adc	r31, r31
    57aa:	0e 0f       	add	r16, r30
    57ac:	1f 1f       	adc	r17, r31
    57ae:	f8 01       	movw	r30, r16
    57b0:	ee 0f       	add	r30, r30
    57b2:	ff 1f       	adc	r31, r31
    57b4:	e7 5f       	subi	r30, 0xF7	; 247
    57b6:	fd 4f       	sbci	r31, 0xFD	; 253
    57b8:	03 80       	ldd	r0, Z+3	; 0x03
    57ba:	f4 81       	ldd	r31, Z+4	; 0x04
    57bc:	e0 2d       	mov	r30, r0
    57be:	40 81       	ld	r20, Z
    57c0:	50 e0       	ldi	r21, 0x00	; 0
    57c2:	60 e4       	ldi	r22, 0x40	; 64
    57c4:	ce 01       	movw	r24, r28
    57c6:	80 5b       	subi	r24, 0xB0	; 176
    57c8:	9f 4f       	sbci	r25, 0xFF	; 255
    57ca:	a5 da       	rcall	.-2742   	; 0x4d16 <encodeByteArrayToIpAddress>
    57cc:	80 93 8d 11 	sts	0x118D, r24
    57d0:	82 ea       	ldi	r24, 0xA2	; 162
    57d2:	88 83       	st	Y, r24
    57d4:	80 91 8d 11 	lds	r24, 0x118D
    57d8:	89 87       	std	Y+9, r24	; 0x09
    57da:	81 e0       	ldi	r24, 0x01	; 1
    57dc:	3d c0       	rjmp	.+122    	; 0x5858 <SNMP_VARS_Processing+0x2e4>
    57de:	88 81       	ld	r24, Y
    57e0:	83 3a       	cpi	r24, 0xA3	; 163
    57e2:	c9 f4       	brne	.+50     	; 0x5816 <SNMP_VARS_Processing+0x2a2>
    57e4:	f8 01       	movw	r30, r16
    57e6:	ee 0f       	add	r30, r30
    57e8:	ff 1f       	adc	r31, r31
    57ea:	0e 0f       	add	r16, r30
    57ec:	1f 1f       	adc	r17, r31
    57ee:	f8 01       	movw	r30, r16
    57f0:	ee 0f       	add	r30, r30
    57f2:	ff 1f       	adc	r31, r31
    57f4:	e7 5f       	subi	r30, 0xF7	; 247
    57f6:	fd 4f       	sbci	r31, 0xFD	; 253
    57f8:	63 81       	ldd	r22, Z+3	; 0x03
    57fa:	74 81       	ldd	r23, Z+4	; 0x04
    57fc:	ce 01       	movw	r24, r28
    57fe:	80 5b       	subi	r24, 0xB0	; 176
    5800:	9f 4f       	sbci	r25, 0xFF	; 255
    5802:	d6 d9       	rcall	.-3156   	; 0x4bb0 <decodeBoolToUint8>
    5804:	80 93 8d 11 	sts	0x118D, r24
    5808:	82 ea       	ldi	r24, 0xA2	; 162
    580a:	88 83       	st	Y, r24
    580c:	80 91 8d 11 	lds	r24, 0x118D
    5810:	89 87       	std	Y+9, r24	; 0x09
    5812:	81 e0       	ldi	r24, 0x01	; 1
    5814:	21 c0       	rjmp	.+66     	; 0x5858 <SNMP_VARS_Processing+0x2e4>
    5816:	f8 01       	movw	r30, r16
    5818:	ee 0f       	add	r30, r30
    581a:	ff 1f       	adc	r31, r31
    581c:	0e 0f       	add	r16, r30
    581e:	1f 1f       	adc	r17, r31
    5820:	f8 01       	movw	r30, r16
    5822:	ee 0f       	add	r30, r30
    5824:	ff 1f       	adc	r31, r31
    5826:	e7 5f       	subi	r30, 0xF7	; 247
    5828:	fd 4f       	sbci	r31, 0xFD	; 253
    582a:	03 80       	ldd	r0, Z+3	; 0x03
    582c:	f4 81       	ldd	r31, Z+4	; 0x04
    582e:	e0 2d       	mov	r30, r0
    5830:	40 81       	ld	r20, Z
    5832:	60 e4       	ldi	r22, 0x40	; 64
    5834:	ce 01       	movw	r24, r28
    5836:	80 5b       	subi	r24, 0xB0	; 176
    5838:	9f 4f       	sbci	r25, 0xFF	; 255
    583a:	9b da       	rcall	.-2762   	; 0x4d72 <encodeUint8ToBool>
    583c:	80 93 8d 11 	sts	0x118D, r24
    5840:	82 ea       	ldi	r24, 0xA2	; 162
    5842:	88 83       	st	Y, r24
    5844:	80 91 8d 11 	lds	r24, 0x118D
    5848:	89 87       	std	Y+9, r24	; 0x09
    584a:	81 e0       	ldi	r24, 0x01	; 1
    584c:	05 c0       	rjmp	.+10     	; 0x5858 <SNMP_VARS_Processing+0x2e4>
    584e:	d3 94       	inc	r13
    5850:	8c e0       	ldi	r24, 0x0C	; 12
    5852:	d8 12       	cpse	r13, r24
    5854:	99 ce       	rjmp	.-718    	; 0x5588 <SNMP_VARS_Processing+0x14>
    5856:	80 e0       	ldi	r24, 0x00	; 0
    5858:	df 91       	pop	r29
    585a:	cf 91       	pop	r28
    585c:	1f 91       	pop	r17
    585e:	0f 91       	pop	r16
    5860:	ff 90       	pop	r15
    5862:	ef 90       	pop	r14
    5864:	df 90       	pop	r13
    5866:	08 95       	ret

00005868 <pduReceived>:
    5868:	cf 93       	push	r28
    586a:	df 93       	push	r29
    586c:	cd b7       	in	r28, 0x3d	; 61
    586e:	de b7       	in	r29, 0x3e	; 62
    5870:	c4 59       	subi	r28, 0x94	; 148
    5872:	d1 09       	sbc	r29, r1
    5874:	0f b6       	in	r0, 0x3f	; 63
    5876:	f8 94       	cli
    5878:	de bf       	out	0x3e, r29	; 62
    587a:	0f be       	out	0x3f, r0	; 63
    587c:	cd bf       	out	0x3d, r28	; 61
    587e:	ce 01       	movw	r24, r28
    5880:	01 96       	adiw	r24, 0x01	; 1
    5882:	96 da       	rcall	.-2772   	; 0x4db0 <SNMP_requestPdu>
    5884:	80 93 92 12 	sts	0x1292, r24
    5888:	99 81       	ldd	r25, Y+1	; 0x01
    588a:	20 e6       	ldi	r18, 0x60	; 96
    588c:	29 0f       	add	r18, r25
    588e:	22 30       	cpi	r18, 0x02	; 2
    5890:	18 f0       	brcs	.+6      	; 0x5898 <pduReceived+0x30>
    5892:	93 3a       	cpi	r25, 0xA3	; 163
    5894:	09 f0       	breq	.+2      	; 0x5898 <pduReceived+0x30>
    5896:	29 c2       	rjmp	.+1106   	; 0x5cea <pduReceived+0x482>
    5898:	9a 85       	ldd	r25, Y+10	; 0x0a
    589a:	91 11       	cpse	r25, r1
    589c:	26 c2       	rjmp	.+1100   	; 0x5cea <pduReceived+0x482>
    589e:	81 11       	cpse	r24, r1
    58a0:	24 c2       	rjmp	.+1096   	; 0x5cea <pduReceived+0x482>
    58a2:	89 ea       	ldi	r24, 0xA9	; 169
    58a4:	99 e0       	ldi	r25, 0x09	; 9
    58a6:	9f 93       	push	r25
    58a8:	8f 93       	push	r24
    58aa:	8d b7       	in	r24, 0x3d	; 61
    58ac:	9e b7       	in	r25, 0x3e	; 62
    58ae:	82 54       	subi	r24, 0x42	; 66
    58b0:	91 09       	sbc	r25, r1
    58b2:	0f b6       	in	r0, 0x3f	; 63
    58b4:	f8 94       	cli
    58b6:	9e bf       	out	0x3e, r25	; 62
    58b8:	0f be       	out	0x3f, r0	; 63
    58ba:	8d bf       	out	0x3d, r24	; 61
    58bc:	ad b7       	in	r26, 0x3d	; 61
    58be:	be b7       	in	r27, 0x3e	; 62
    58c0:	11 96       	adiw	r26, 0x01	; 1
    58c2:	82 e4       	ldi	r24, 0x42	; 66
    58c4:	fe 01       	movw	r30, r28
    58c6:	3f 96       	adiw	r30, 0x0f	; 15
    58c8:	01 90       	ld	r0, Z+
    58ca:	0d 92       	st	X+, r0
    58cc:	8a 95       	dec	r24
    58ce:	e1 f7       	brne	.-8      	; 0x58c8 <pduReceived+0x60>
    58d0:	0e 94 66 23 	call	0x46cc	; 0x46cc <SNMP_OID_toString>
    58d4:	0f b6       	in	r0, 0x3f	; 63
    58d6:	f8 94       	cli
    58d8:	de bf       	out	0x3e, r29	; 62
    58da:	0f be       	out	0x3f, r0	; 63
    58dc:	cd bf       	out	0x3d, r28	; 61
    58de:	63 eb       	ldi	r22, 0xB3	; 179
    58e0:	74 e0       	ldi	r23, 0x04	; 4
    58e2:	89 ea       	ldi	r24, 0xA9	; 169
    58e4:	99 e0       	ldi	r25, 0x09	; 9
    58e6:	0e 94 d9 35 	call	0x6bb2	; 0x6bb2 <strcmp_P>
    58ea:	89 2b       	or	r24, r25
    58ec:	31 f5       	brne	.+76     	; 0x593a <pduReceived+0xd2>
    58ee:	89 81       	ldd	r24, Y+1	; 0x01
    58f0:	83 3a       	cpi	r24, 0xA3	; 163
    58f2:	b1 f4       	brne	.+44     	; 0x5920 <pduReceived+0xb8>
    58f4:	ce 01       	movw	r24, r28
    58f6:	8f 5a       	subi	r24, 0xAF	; 175
    58f8:	9f 4f       	sbci	r25, 0xFF	; 255
    58fa:	0e 94 e9 23 	call	0x47d2	; 0x47d2 <clear>
    58fe:	cf 56       	subi	r28, 0x6F	; 111
    5900:	df 4f       	sbci	r29, 0xFF	; 255
    5902:	19 82       	std	Y+1, r1	; 0x01
    5904:	18 82       	st	Y, r1
    5906:	c1 59       	subi	r28, 0x91	; 145
    5908:	d0 40       	sbci	r29, 0x00	; 0
    590a:	85 e0       	ldi	r24, 0x05	; 5
    590c:	cd 56       	subi	r28, 0x6D	; 109
    590e:	df 4f       	sbci	r29, 0xFF	; 255
    5910:	88 83       	st	Y, r24
    5912:	c3 59       	subi	r28, 0x93	; 147
    5914:	d0 40       	sbci	r29, 0x00	; 0
    5916:	82 ea       	ldi	r24, 0xA2	; 162
    5918:	89 83       	std	Y+1, r24	; 0x01
    591a:	84 e0       	ldi	r24, 0x04	; 4
    591c:	8a 87       	std	Y+10, r24	; 0x0a
    591e:	dc c1       	rjmp	.+952    	; 0x5cd8 <pduReceived+0x470>
    5920:	4e e9       	ldi	r20, 0x9E	; 158
    5922:	52 e0       	ldi	r21, 0x02	; 2
    5924:	64 e0       	ldi	r22, 0x04	; 4
    5926:	ce 01       	movw	r24, r28
    5928:	8f 5a       	subi	r24, 0xAF	; 175
    592a:	9f 4f       	sbci	r25, 0xFF	; 255
    592c:	53 d9       	rcall	.-3418   	; 0x4bd4 <encodeStringToOctetString>
    592e:	80 93 8d 11 	sts	0x118D, r24
    5932:	92 ea       	ldi	r25, 0xA2	; 162
    5934:	99 83       	std	Y+1, r25	; 0x01
    5936:	8a 87       	std	Y+10, r24	; 0x0a
    5938:	cf c1       	rjmp	.+926    	; 0x5cd8 <pduReceived+0x470>
    593a:	61 ea       	ldi	r22, 0xA1	; 161
    593c:	74 e0       	ldi	r23, 0x04	; 4
    593e:	89 ea       	ldi	r24, 0xA9	; 169
    5940:	99 e0       	ldi	r25, 0x09	; 9
    5942:	0e 94 d9 35 	call	0x6bb2	; 0x6bb2 <strcmp_P>
    5946:	89 2b       	or	r24, r25
    5948:	a9 f4       	brne	.+42     	; 0x5974 <pduReceived+0x10c>
    594a:	89 81       	ldd	r24, Y+1	; 0x01
    594c:	83 3a       	cpi	r24, 0xA3	; 163
    594e:	29 f4       	brne	.+10     	; 0x595a <pduReceived+0xf2>
    5950:	82 ea       	ldi	r24, 0xA2	; 162
    5952:	89 83       	std	Y+1, r24	; 0x01
    5954:	84 e0       	ldi	r24, 0x04	; 4
    5956:	8a 87       	std	Y+10, r24	; 0x0a
    5958:	bf c1       	rjmp	.+894    	; 0x5cd8 <pduReceived+0x470>
    595a:	4d e8       	ldi	r20, 0x8D	; 141
    595c:	52 e0       	ldi	r21, 0x02	; 2
    595e:	64 e0       	ldi	r22, 0x04	; 4
    5960:	ce 01       	movw	r24, r28
    5962:	8f 5a       	subi	r24, 0xAF	; 175
    5964:	9f 4f       	sbci	r25, 0xFF	; 255
    5966:	36 d9       	rcall	.-3476   	; 0x4bd4 <encodeStringToOctetString>
    5968:	80 93 8d 11 	sts	0x118D, r24
    596c:	92 ea       	ldi	r25, 0xA2	; 162
    596e:	99 83       	std	Y+1, r25	; 0x01
    5970:	8a 87       	std	Y+10, r24	; 0x0a
    5972:	b2 c1       	rjmp	.+868    	; 0x5cd8 <pduReceived+0x470>
    5974:	6f e8       	ldi	r22, 0x8F	; 143
    5976:	74 e0       	ldi	r23, 0x04	; 4
    5978:	89 ea       	ldi	r24, 0xA9	; 169
    597a:	99 e0       	ldi	r25, 0x09	; 9
    597c:	0e 94 d9 35 	call	0x6bb2	; 0x6bb2 <strcmp_P>
    5980:	89 2b       	or	r24, r25
    5982:	d9 f4       	brne	.+54     	; 0x59ba <pduReceived+0x152>
    5984:	89 81       	ldd	r24, Y+1	; 0x01
    5986:	83 3a       	cpi	r24, 0xA3	; 163
    5988:	29 f4       	brne	.+10     	; 0x5994 <pduReceived+0x12c>
    598a:	82 ea       	ldi	r24, 0xA2	; 162
    598c:	89 83       	std	Y+1, r24	; 0x01
    598e:	84 e0       	ldi	r24, 0x04	; 4
    5990:	8a 87       	std	Y+10, r24	; 0x0a
    5992:	a2 c1       	rjmp	.+836    	; 0x5cd8 <pduReceived+0x470>
    5994:	20 91 7c 05 	lds	r18, 0x057C
    5998:	30 91 7d 05 	lds	r19, 0x057D
    599c:	40 91 7e 05 	lds	r20, 0x057E
    59a0:	50 91 7f 05 	lds	r21, 0x057F
    59a4:	63 e4       	ldi	r22, 0x43	; 67
    59a6:	ce 01       	movw	r24, r28
    59a8:	8f 5a       	subi	r24, 0xAF	; 175
    59aa:	9f 4f       	sbci	r25, 0xFF	; 255
    59ac:	94 d9       	rcall	.-3288   	; 0x4cd6 <encodeUint32ToUint32>
    59ae:	80 93 8d 11 	sts	0x118D, r24
    59b2:	92 ea       	ldi	r25, 0xA2	; 162
    59b4:	99 83       	std	Y+1, r25	; 0x01
    59b6:	8a 87       	std	Y+10, r24	; 0x0a
    59b8:	8f c1       	rjmp	.+798    	; 0x5cd8 <pduReceived+0x470>
    59ba:	6b e6       	ldi	r22, 0x6B	; 107
    59bc:	74 e0       	ldi	r23, 0x04	; 4
    59be:	89 ea       	ldi	r24, 0xA9	; 169
    59c0:	99 e0       	ldi	r25, 0x09	; 9
    59c2:	0e 94 d9 35 	call	0x6bb2	; 0x6bb2 <strcmp_P>
    59c6:	89 2b       	or	r24, r25
    59c8:	31 f5       	brne	.+76     	; 0x5a16 <pduReceived+0x1ae>
    59ca:	89 81       	ldd	r24, Y+1	; 0x01
    59cc:	83 3a       	cpi	r24, 0xA3	; 163
    59ce:	b1 f4       	brne	.+44     	; 0x59fc <pduReceived+0x194>
    59d0:	e5 e6       	ldi	r30, 0x65	; 101
    59d2:	f2 e0       	ldi	r31, 0x02	; 2
    59d4:	01 90       	ld	r0, Z+
    59d6:	00 20       	and	r0, r0
    59d8:	e9 f7       	brne	.-6      	; 0x59d4 <pduReceived+0x16c>
    59da:	31 97       	sbiw	r30, 0x01	; 1
    59dc:	af 01       	movw	r20, r30
    59de:	45 56       	subi	r20, 0x65	; 101
    59e0:	52 40       	sbci	r21, 0x02	; 2
    59e2:	65 e6       	ldi	r22, 0x65	; 101
    59e4:	72 e0       	ldi	r23, 0x02	; 2
    59e6:	ce 01       	movw	r24, r28
    59e8:	8f 5a       	subi	r24, 0xAF	; 175
    59ea:	9f 4f       	sbci	r25, 0xFF	; 255
    59ec:	0e 94 f4 23 	call	0x47e8	; 0x47e8 <decodeOctetStringToString>
    59f0:	80 93 8d 11 	sts	0x118D, r24
    59f4:	92 ea       	ldi	r25, 0xA2	; 162
    59f6:	99 83       	std	Y+1, r25	; 0x01
    59f8:	8a 87       	std	Y+10, r24	; 0x0a
    59fa:	6e c1       	rjmp	.+732    	; 0x5cd8 <pduReceived+0x470>
    59fc:	45 e6       	ldi	r20, 0x65	; 101
    59fe:	52 e0       	ldi	r21, 0x02	; 2
    5a00:	64 e0       	ldi	r22, 0x04	; 4
    5a02:	ce 01       	movw	r24, r28
    5a04:	8f 5a       	subi	r24, 0xAF	; 175
    5a06:	9f 4f       	sbci	r25, 0xFF	; 255
    5a08:	e5 d8       	rcall	.-3638   	; 0x4bd4 <encodeStringToOctetString>
    5a0a:	80 93 8d 11 	sts	0x118D, r24
    5a0e:	92 ea       	ldi	r25, 0xA2	; 162
    5a10:	99 83       	std	Y+1, r25	; 0x01
    5a12:	8a 87       	std	Y+10, r24	; 0x0a
    5a14:	61 c1       	rjmp	.+706    	; 0x5cd8 <pduReceived+0x470>
    5a16:	6d e7       	ldi	r22, 0x7D	; 125
    5a18:	74 e0       	ldi	r23, 0x04	; 4
    5a1a:	89 ea       	ldi	r24, 0xA9	; 169
    5a1c:	99 e0       	ldi	r25, 0x09	; 9
    5a1e:	0e 94 d9 35 	call	0x6bb2	; 0x6bb2 <strcmp_P>
    5a22:	89 2b       	or	r24, r25
    5a24:	31 f5       	brne	.+76     	; 0x5a72 <pduReceived+0x20a>
    5a26:	89 81       	ldd	r24, Y+1	; 0x01
    5a28:	83 3a       	cpi	r24, 0xA3	; 163
    5a2a:	b1 f4       	brne	.+44     	; 0x5a58 <pduReceived+0x1f0>
    5a2c:	e9 e7       	ldi	r30, 0x79	; 121
    5a2e:	f2 e0       	ldi	r31, 0x02	; 2
    5a30:	01 90       	ld	r0, Z+
    5a32:	00 20       	and	r0, r0
    5a34:	e9 f7       	brne	.-6      	; 0x5a30 <pduReceived+0x1c8>
    5a36:	31 97       	sbiw	r30, 0x01	; 1
    5a38:	af 01       	movw	r20, r30
    5a3a:	49 57       	subi	r20, 0x79	; 121
    5a3c:	52 40       	sbci	r21, 0x02	; 2
    5a3e:	69 e7       	ldi	r22, 0x79	; 121
    5a40:	72 e0       	ldi	r23, 0x02	; 2
    5a42:	ce 01       	movw	r24, r28
    5a44:	8f 5a       	subi	r24, 0xAF	; 175
    5a46:	9f 4f       	sbci	r25, 0xFF	; 255
    5a48:	0e 94 f4 23 	call	0x47e8	; 0x47e8 <decodeOctetStringToString>
    5a4c:	80 93 8d 11 	sts	0x118D, r24
    5a50:	92 ea       	ldi	r25, 0xA2	; 162
    5a52:	99 83       	std	Y+1, r25	; 0x01
    5a54:	8a 87       	std	Y+10, r24	; 0x0a
    5a56:	40 c1       	rjmp	.+640    	; 0x5cd8 <pduReceived+0x470>
    5a58:	49 e7       	ldi	r20, 0x79	; 121
    5a5a:	52 e0       	ldi	r21, 0x02	; 2
    5a5c:	64 e0       	ldi	r22, 0x04	; 4
    5a5e:	ce 01       	movw	r24, r28
    5a60:	8f 5a       	subi	r24, 0xAF	; 175
    5a62:	9f 4f       	sbci	r25, 0xFF	; 255
    5a64:	b7 d8       	rcall	.-3730   	; 0x4bd4 <encodeStringToOctetString>
    5a66:	80 93 8d 11 	sts	0x118D, r24
    5a6a:	92 ea       	ldi	r25, 0xA2	; 162
    5a6c:	99 83       	std	Y+1, r25	; 0x01
    5a6e:	8a 87       	std	Y+10, r24	; 0x0a
    5a70:	33 c1       	rjmp	.+614    	; 0x5cd8 <pduReceived+0x470>
    5a72:	69 e5       	ldi	r22, 0x59	; 89
    5a74:	74 e0       	ldi	r23, 0x04	; 4
    5a76:	89 ea       	ldi	r24, 0xA9	; 169
    5a78:	99 e0       	ldi	r25, 0x09	; 9
    5a7a:	0e 94 d9 35 	call	0x6bb2	; 0x6bb2 <strcmp_P>
    5a7e:	89 2b       	or	r24, r25
    5a80:	31 f5       	brne	.+76     	; 0x5ace <pduReceived+0x266>
    5a82:	89 81       	ldd	r24, Y+1	; 0x01
    5a84:	83 3a       	cpi	r24, 0xA3	; 163
    5a86:	b1 f4       	brne	.+44     	; 0x5ab4 <pduReceived+0x24c>
    5a88:	e1 e5       	ldi	r30, 0x51	; 81
    5a8a:	f2 e0       	ldi	r31, 0x02	; 2
    5a8c:	01 90       	ld	r0, Z+
    5a8e:	00 20       	and	r0, r0
    5a90:	e9 f7       	brne	.-6      	; 0x5a8c <pduReceived+0x224>
    5a92:	31 97       	sbiw	r30, 0x01	; 1
    5a94:	af 01       	movw	r20, r30
    5a96:	41 55       	subi	r20, 0x51	; 81
    5a98:	52 40       	sbci	r21, 0x02	; 2
    5a9a:	61 e5       	ldi	r22, 0x51	; 81
    5a9c:	72 e0       	ldi	r23, 0x02	; 2
    5a9e:	ce 01       	movw	r24, r28
    5aa0:	8f 5a       	subi	r24, 0xAF	; 175
    5aa2:	9f 4f       	sbci	r25, 0xFF	; 255
    5aa4:	0e 94 f4 23 	call	0x47e8	; 0x47e8 <decodeOctetStringToString>
    5aa8:	80 93 8d 11 	sts	0x118D, r24
    5aac:	92 ea       	ldi	r25, 0xA2	; 162
    5aae:	99 83       	std	Y+1, r25	; 0x01
    5ab0:	8a 87       	std	Y+10, r24	; 0x0a
    5ab2:	12 c1       	rjmp	.+548    	; 0x5cd8 <pduReceived+0x470>
    5ab4:	41 e5       	ldi	r20, 0x51	; 81
    5ab6:	52 e0       	ldi	r21, 0x02	; 2
    5ab8:	64 e0       	ldi	r22, 0x04	; 4
    5aba:	ce 01       	movw	r24, r28
    5abc:	8f 5a       	subi	r24, 0xAF	; 175
    5abe:	9f 4f       	sbci	r25, 0xFF	; 255
    5ac0:	89 d8       	rcall	.-3822   	; 0x4bd4 <encodeStringToOctetString>
    5ac2:	80 93 8d 11 	sts	0x118D, r24
    5ac6:	92 ea       	ldi	r25, 0xA2	; 162
    5ac8:	99 83       	std	Y+1, r25	; 0x01
    5aca:	8a 87       	std	Y+10, r24	; 0x0a
    5acc:	05 c1       	rjmp	.+522    	; 0x5cd8 <pduReceived+0x470>
    5ace:	67 e4       	ldi	r22, 0x47	; 71
    5ad0:	74 e0       	ldi	r23, 0x04	; 4
    5ad2:	89 ea       	ldi	r24, 0xA9	; 169
    5ad4:	99 e0       	ldi	r25, 0x09	; 9
    5ad6:	0e 94 d9 35 	call	0x6bb2	; 0x6bb2 <strcmp_P>
    5ada:	89 2b       	or	r24, r25
    5adc:	a9 f4       	brne	.+42     	; 0x5b08 <pduReceived+0x2a0>
    5ade:	89 81       	ldd	r24, Y+1	; 0x01
    5ae0:	83 3a       	cpi	r24, 0xA3	; 163
    5ae2:	29 f4       	brne	.+10     	; 0x5aee <pduReceived+0x286>
    5ae4:	82 ea       	ldi	r24, 0xA2	; 162
    5ae6:	89 83       	std	Y+1, r24	; 0x01
    5ae8:	84 e0       	ldi	r24, 0x04	; 4
    5aea:	8a 87       	std	Y+10, r24	; 0x0a
    5aec:	f5 c0       	rjmp	.+490    	; 0x5cd8 <pduReceived+0x470>
    5aee:	47 e0       	ldi	r20, 0x07	; 7
    5af0:	50 e0       	ldi	r21, 0x00	; 0
    5af2:	62 e0       	ldi	r22, 0x02	; 2
    5af4:	ce 01       	movw	r24, r28
    5af6:	8f 5a       	subi	r24, 0xAF	; 175
    5af8:	9f 4f       	sbci	r25, 0xFF	; 255
    5afa:	b7 d8       	rcall	.-3730   	; 0x4c6a <encodeInt16ToInt>
    5afc:	80 93 8d 11 	sts	0x118D, r24
    5b00:	92 ea       	ldi	r25, 0xA2	; 162
    5b02:	99 83       	std	Y+1, r25	; 0x01
    5b04:	8a 87       	std	Y+10, r24	; 0x0a
    5b06:	e8 c0       	rjmp	.+464    	; 0x5cd8 <pduReceived+0x470>
    5b08:	62 e3       	ldi	r22, 0x32	; 50
    5b0a:	74 e0       	ldi	r23, 0x04	; 4
    5b0c:	89 ea       	ldi	r24, 0xA9	; 169
    5b0e:	99 e0       	ldi	r25, 0x09	; 9
    5b10:	0e 94 d9 35 	call	0x6bb2	; 0x6bb2 <strcmp_P>
    5b14:	89 2b       	or	r24, r25
    5b16:	b9 f4       	brne	.+46     	; 0x5b46 <pduReceived+0x2de>
    5b18:	89 81       	ldd	r24, Y+1	; 0x01
    5b1a:	83 3a       	cpi	r24, 0xA3	; 163
    5b1c:	29 f4       	brne	.+10     	; 0x5b28 <pduReceived+0x2c0>
    5b1e:	82 ea       	ldi	r24, 0xA2	; 162
    5b20:	89 83       	std	Y+1, r24	; 0x01
    5b22:	84 e0       	ldi	r24, 0x04	; 4
    5b24:	8a 87       	std	Y+10, r24	; 0x0a
    5b26:	d8 c0       	rjmp	.+432    	; 0x5cd8 <pduReceived+0x470>
    5b28:	29 e0       	ldi	r18, 0x09	; 9
    5b2a:	33 e0       	ldi	r19, 0x03	; 3
    5b2c:	40 e0       	ldi	r20, 0x00	; 0
    5b2e:	50 e0       	ldi	r21, 0x00	; 0
    5b30:	62 e0       	ldi	r22, 0x02	; 2
    5b32:	ce 01       	movw	r24, r28
    5b34:	8f 5a       	subi	r24, 0xAF	; 175
    5b36:	9f 4f       	sbci	r25, 0xFF	; 255
    5b38:	b2 d8       	rcall	.-3740   	; 0x4c9e <encodeInt32ToInt32>
    5b3a:	80 93 8d 11 	sts	0x118D, r24
    5b3e:	92 ea       	ldi	r25, 0xA2	; 162
    5b40:	99 83       	std	Y+1, r25	; 0x01
    5b42:	8a 87       	std	Y+10, r24	; 0x0a
    5b44:	c9 c0       	rjmp	.+402    	; 0x5cd8 <pduReceived+0x470>
    5b46:	6a e1       	ldi	r22, 0x1A	; 26
    5b48:	74 e0       	ldi	r23, 0x04	; 4
    5b4a:	89 ea       	ldi	r24, 0xA9	; 169
    5b4c:	99 e0       	ldi	r25, 0x09	; 9
    5b4e:	0e 94 d9 35 	call	0x6bb2	; 0x6bb2 <strcmp_P>
    5b52:	89 2b       	or	r24, r25
    5b54:	19 f5       	brne	.+70     	; 0x5b9c <pduReceived+0x334>
    5b56:	89 81       	ldd	r24, Y+1	; 0x01
    5b58:	83 3a       	cpi	r24, 0xA3	; 163
    5b5a:	69 f4       	brne	.+26     	; 0x5b76 <pduReceived+0x30e>
    5b5c:	60 e8       	ldi	r22, 0x80	; 128
    5b5e:	75 e0       	ldi	r23, 0x05	; 5
    5b60:	ce 01       	movw	r24, r28
    5b62:	8f 5a       	subi	r24, 0xAF	; 175
    5b64:	9f 4f       	sbci	r25, 0xFF	; 255
    5b66:	0e 94 1b 25 	call	0x4a36	; 0x4a36 <decodeInt32ToInt32>
    5b6a:	80 93 8d 11 	sts	0x118D, r24
    5b6e:	92 ea       	ldi	r25, 0xA2	; 162
    5b70:	99 83       	std	Y+1, r25	; 0x01
    5b72:	8a 87       	std	Y+10, r24	; 0x0a
    5b74:	b1 c0       	rjmp	.+354    	; 0x5cd8 <pduReceived+0x470>
    5b76:	20 91 80 05 	lds	r18, 0x0580
    5b7a:	30 91 81 05 	lds	r19, 0x0581
    5b7e:	40 91 82 05 	lds	r20, 0x0582
    5b82:	50 91 83 05 	lds	r21, 0x0583
    5b86:	62 e0       	ldi	r22, 0x02	; 2
    5b88:	ce 01       	movw	r24, r28
    5b8a:	8f 5a       	subi	r24, 0xAF	; 175
    5b8c:	9f 4f       	sbci	r25, 0xFF	; 255
    5b8e:	87 d8       	rcall	.-3826   	; 0x4c9e <encodeInt32ToInt32>
    5b90:	80 93 8d 11 	sts	0x118D, r24
    5b94:	92 ea       	ldi	r25, 0xA2	; 162
    5b96:	99 83       	std	Y+1, r25	; 0x01
    5b98:	8a 87       	std	Y+10, r24	; 0x0a
    5b9a:	9e c0       	rjmp	.+316    	; 0x5cd8 <pduReceived+0x470>
    5b9c:	62 e0       	ldi	r22, 0x02	; 2
    5b9e:	74 e0       	ldi	r23, 0x04	; 4
    5ba0:	89 ea       	ldi	r24, 0xA9	; 169
    5ba2:	99 e0       	ldi	r25, 0x09	; 9
    5ba4:	0e 94 d9 35 	call	0x6bb2	; 0x6bb2 <strcmp_P>
    5ba8:	89 2b       	or	r24, r25
    5baa:	19 f5       	brne	.+70     	; 0x5bf2 <pduReceived+0x38a>
    5bac:	89 81       	ldd	r24, Y+1	; 0x01
    5bae:	83 3a       	cpi	r24, 0xA3	; 163
    5bb0:	69 f4       	brne	.+26     	; 0x5bcc <pduReceived+0x364>
    5bb2:	6b eb       	ldi	r22, 0xBB	; 187
    5bb4:	72 e0       	ldi	r23, 0x02	; 2
    5bb6:	ce 01       	movw	r24, r28
    5bb8:	8f 5a       	subi	r24, 0xAF	; 175
    5bba:	9f 4f       	sbci	r25, 0xFF	; 255
    5bbc:	0e 94 1b 25 	call	0x4a36	; 0x4a36 <decodeInt32ToInt32>
    5bc0:	80 93 8d 11 	sts	0x118D, r24
    5bc4:	92 ea       	ldi	r25, 0xA2	; 162
    5bc6:	99 83       	std	Y+1, r25	; 0x01
    5bc8:	8a 87       	std	Y+10, r24	; 0x0a
    5bca:	86 c0       	rjmp	.+268    	; 0x5cd8 <pduReceived+0x470>
    5bcc:	20 91 bb 02 	lds	r18, 0x02BB
    5bd0:	30 91 bc 02 	lds	r19, 0x02BC
    5bd4:	40 91 bd 02 	lds	r20, 0x02BD
    5bd8:	50 91 be 02 	lds	r21, 0x02BE
    5bdc:	62 e0       	ldi	r22, 0x02	; 2
    5bde:	ce 01       	movw	r24, r28
    5be0:	8f 5a       	subi	r24, 0xAF	; 175
    5be2:	9f 4f       	sbci	r25, 0xFF	; 255
    5be4:	5c d8       	rcall	.-3912   	; 0x4c9e <encodeInt32ToInt32>
    5be6:	80 93 8d 11 	sts	0x118D, r24
    5bea:	92 ea       	ldi	r25, 0xA2	; 162
    5bec:	99 83       	std	Y+1, r25	; 0x01
    5bee:	8a 87       	std	Y+10, r24	; 0x0a
    5bf0:	73 c0       	rjmp	.+230    	; 0x5cd8 <pduReceived+0x470>
    5bf2:	62 ed       	ldi	r22, 0xD2	; 210
    5bf4:	73 e0       	ldi	r23, 0x03	; 3
    5bf6:	89 ea       	ldi	r24, 0xA9	; 169
    5bf8:	99 e0       	ldi	r25, 0x09	; 9
    5bfa:	db d7       	rcall	.+4022   	; 0x6bb2 <strcmp_P>
    5bfc:	89 2b       	or	r24, r25
    5bfe:	d9 f4       	brne	.+54     	; 0x5c36 <pduReceived+0x3ce>
    5c00:	89 81       	ldd	r24, Y+1	; 0x01
    5c02:	83 3a       	cpi	r24, 0xA3	; 163
    5c04:	29 f4       	brne	.+10     	; 0x5c10 <pduReceived+0x3a8>
    5c06:	82 ea       	ldi	r24, 0xA2	; 162
    5c08:	89 83       	std	Y+1, r24	; 0x01
    5c0a:	84 e0       	ldi	r24, 0x04	; 4
    5c0c:	8a 87       	std	Y+10, r24	; 0x0a
    5c0e:	64 c0       	rjmp	.+200    	; 0x5cd8 <pduReceived+0x470>
    5c10:	20 91 b3 02 	lds	r18, 0x02B3
    5c14:	30 91 b4 02 	lds	r19, 0x02B4
    5c18:	40 91 b5 02 	lds	r20, 0x02B5
    5c1c:	50 91 b6 02 	lds	r21, 0x02B6
    5c20:	62 e0       	ldi	r22, 0x02	; 2
    5c22:	ce 01       	movw	r24, r28
    5c24:	8f 5a       	subi	r24, 0xAF	; 175
    5c26:	9f 4f       	sbci	r25, 0xFF	; 255
    5c28:	3a d8       	rcall	.-3980   	; 0x4c9e <encodeInt32ToInt32>
    5c2a:	80 93 8d 11 	sts	0x118D, r24
    5c2e:	92 ea       	ldi	r25, 0xA2	; 162
    5c30:	99 83       	std	Y+1, r25	; 0x01
    5c32:	8a 87       	std	Y+10, r24	; 0x0a
    5c34:	51 c0       	rjmp	.+162    	; 0x5cd8 <pduReceived+0x470>
    5c36:	6a ee       	ldi	r22, 0xEA	; 234
    5c38:	73 e0       	ldi	r23, 0x03	; 3
    5c3a:	89 ea       	ldi	r24, 0xA9	; 169
    5c3c:	99 e0       	ldi	r25, 0x09	; 9
    5c3e:	b9 d7       	rcall	.+3954   	; 0x6bb2 <strcmp_P>
    5c40:	89 2b       	or	r24, r25
    5c42:	d9 f4       	brne	.+54     	; 0x5c7a <pduReceived+0x412>
    5c44:	89 81       	ldd	r24, Y+1	; 0x01
    5c46:	83 3a       	cpi	r24, 0xA3	; 163
    5c48:	29 f4       	brne	.+10     	; 0x5c54 <pduReceived+0x3ec>
    5c4a:	82 ea       	ldi	r24, 0xA2	; 162
    5c4c:	89 83       	std	Y+1, r24	; 0x01
    5c4e:	84 e0       	ldi	r24, 0x04	; 4
    5c50:	8a 87       	std	Y+10, r24	; 0x0a
    5c52:	42 c0       	rjmp	.+132    	; 0x5cd8 <pduReceived+0x470>
    5c54:	20 91 b7 02 	lds	r18, 0x02B7
    5c58:	30 91 b8 02 	lds	r19, 0x02B8
    5c5c:	40 91 b9 02 	lds	r20, 0x02B9
    5c60:	50 91 ba 02 	lds	r21, 0x02BA
    5c64:	62 e0       	ldi	r22, 0x02	; 2
    5c66:	ce 01       	movw	r24, r28
    5c68:	8f 5a       	subi	r24, 0xAF	; 175
    5c6a:	9f 4f       	sbci	r25, 0xFF	; 255
    5c6c:	18 d8       	rcall	.-4048   	; 0x4c9e <encodeInt32ToInt32>
    5c6e:	80 93 8d 11 	sts	0x118D, r24
    5c72:	92 ea       	ldi	r25, 0xA2	; 162
    5c74:	99 83       	std	Y+1, r25	; 0x01
    5c76:	8a 87       	std	Y+10, r24	; 0x0a
    5c78:	2f c0       	rjmp	.+94     	; 0x5cd8 <pduReceived+0x470>
    5c7a:	6a eb       	ldi	r22, 0xBA	; 186
    5c7c:	73 e0       	ldi	r23, 0x03	; 3
    5c7e:	89 ea       	ldi	r24, 0xA9	; 169
    5c80:	99 e0       	ldi	r25, 0x09	; 9
    5c82:	97 d7       	rcall	.+3886   	; 0x6bb2 <strcmp_P>
    5c84:	89 2b       	or	r24, r25
    5c86:	e1 f4       	brne	.+56     	; 0x5cc0 <pduReceived+0x458>
    5c88:	89 81       	ldd	r24, Y+1	; 0x01
    5c8a:	83 3a       	cpi	r24, 0xA3	; 163
    5c8c:	29 f4       	brne	.+10     	; 0x5c98 <pduReceived+0x430>
    5c8e:	82 ea       	ldi	r24, 0xA2	; 162
    5c90:	89 83       	std	Y+1, r24	; 0x01
    5c92:	84 e0       	ldi	r24, 0x04	; 4
    5c94:	8a 87       	std	Y+10, r24	; 0x0a
    5c96:	20 c0       	rjmp	.+64     	; 0x5cd8 <pduReceived+0x470>
    5c98:	20 91 b7 02 	lds	r18, 0x02B7
    5c9c:	30 91 b8 02 	lds	r19, 0x02B8
    5ca0:	40 91 b9 02 	lds	r20, 0x02B9
    5ca4:	50 91 ba 02 	lds	r21, 0x02BA
    5ca8:	62 e0       	ldi	r22, 0x02	; 2
    5caa:	ce 01       	movw	r24, r28
    5cac:	8f 5a       	subi	r24, 0xAF	; 175
    5cae:	9f 4f       	sbci	r25, 0xFF	; 255
    5cb0:	0e 94 4f 26 	call	0x4c9e	; 0x4c9e <encodeInt32ToInt32>
    5cb4:	80 93 8d 11 	sts	0x118D, r24
    5cb8:	92 ea       	ldi	r25, 0xA2	; 162
    5cba:	99 83       	std	Y+1, r25	; 0x01
    5cbc:	8a 87       	std	Y+10, r24	; 0x0a
    5cbe:	0c c0       	rjmp	.+24     	; 0x5cd8 <pduReceived+0x470>
    5cc0:	be 01       	movw	r22, r28
    5cc2:	6f 5f       	subi	r22, 0xFF	; 255
    5cc4:	7f 4f       	sbci	r23, 0xFF	; 255
    5cc6:	89 ea       	ldi	r24, 0xA9	; 169
    5cc8:	99 e0       	ldi	r25, 0x09	; 9
    5cca:	54 dc       	rcall	.-1880   	; 0x5574 <SNMP_VARS_Processing>
    5ccc:	81 30       	cpi	r24, 0x01	; 1
    5cce:	21 f0       	breq	.+8      	; 0x5cd8 <pduReceived+0x470>
    5cd0:	82 ea       	ldi	r24, 0xA2	; 162
    5cd2:	89 83       	std	Y+1, r24	; 0x01
    5cd4:	82 e0       	ldi	r24, 0x02	; 2
    5cd6:	8a 87       	std	Y+10, r24	; 0x0a
    5cd8:	ce 01       	movw	r24, r28
    5cda:	01 96       	adiw	r24, 0x01	; 1
    5cdc:	aa da       	rcall	.-2732   	; 0x5232 <SNMP_responsePdu>
    5cde:	80 91 84 05 	lds	r24, 0x0584
    5ce2:	8f 5f       	subi	r24, 0xFF	; 255
    5ce4:	80 93 84 05 	sts	0x0584, r24
    5ce8:	07 c0       	rjmp	.+14     	; 0x5cf8 <pduReceived+0x490>
    5cea:	82 ea       	ldi	r24, 0xA2	; 162
    5cec:	89 83       	std	Y+1, r24	; 0x01
    5cee:	85 e0       	ldi	r24, 0x05	; 5
    5cf0:	8a 87       	std	Y+10, r24	; 0x0a
    5cf2:	ce 01       	movw	r24, r28
    5cf4:	01 96       	adiw	r24, 0x01	; 1
    5cf6:	9d da       	rcall	.-2758   	; 0x5232 <SNMP_responsePdu>
    5cf8:	cc 56       	subi	r28, 0x6C	; 108
    5cfa:	df 4f       	sbci	r29, 0xFF	; 255
    5cfc:	0f b6       	in	r0, 0x3f	; 63
    5cfe:	f8 94       	cli
    5d00:	de bf       	out	0x3e, r29	; 62
    5d02:	0f be       	out	0x3f, r0	; 63
    5d04:	cd bf       	out	0x3d, r28	; 61
    5d06:	df 91       	pop	r29
    5d08:	cf 91       	pop	r28
    5d0a:	08 95       	ret

00005d0c <Webserver_recv_size>:
    5d0c:	cf 93       	push	r28
    5d0e:	86 e2       	ldi	r24, 0x26	; 38
    5d10:	97 e0       	ldi	r25, 0x07	; 7
    5d12:	0e 94 ec 03 	call	0x7d8	; 0x7d8 <W5100read>
    5d16:	c8 2f       	mov	r28, r24
    5d18:	87 e2       	ldi	r24, 0x27	; 39
    5d1a:	97 e0       	ldi	r25, 0x07	; 7
    5d1c:	0e 94 ec 03 	call	0x7d8	; 0x7d8 <W5100read>
    5d20:	2c 2f       	mov	r18, r28
    5d22:	30 e0       	ldi	r19, 0x00	; 0
    5d24:	32 2f       	mov	r19, r18
    5d26:	22 27       	eor	r18, r18
    5d28:	a9 01       	movw	r20, r18
    5d2a:	48 0f       	add	r20, r24
    5d2c:	51 1d       	adc	r21, r1
    5d2e:	ca 01       	movw	r24, r20
    5d30:	cf 91       	pop	r28
    5d32:	08 95       	ret

00005d34 <WebserverSocket_close>:
    5d34:	60 e1       	ldi	r22, 0x10	; 16
    5d36:	81 e0       	ldi	r24, 0x01	; 1
    5d38:	97 e0       	ldi	r25, 0x07	; 7
    5d3a:	0e 94 e6 04 	call	0x9cc	; 0x9cc <W5100write>
    5d3e:	81 e0       	ldi	r24, 0x01	; 1
    5d40:	97 e0       	ldi	r25, 0x07	; 7
    5d42:	0e 94 ec 03 	call	0x7d8	; 0x7d8 <W5100read>
    5d46:	81 11       	cpse	r24, r1
    5d48:	fa cf       	rjmp	.-12     	; 0x5d3e <WebserverSocket_close+0xa>
    5d4a:	08 95       	ret

00005d4c <WebserverSocketOpen>:
    5d4c:	1f 93       	push	r17
    5d4e:	cf 93       	push	r28
    5d50:	df 93       	push	r29
    5d52:	16 2f       	mov	r17, r22
    5d54:	c4 2f       	mov	r28, r20
    5d56:	d5 2f       	mov	r29, r21
    5d58:	83 e0       	ldi	r24, 0x03	; 3
    5d5a:	97 e0       	ldi	r25, 0x07	; 7
    5d5c:	0e 94 ec 03 	call	0x7d8	; 0x7d8 <W5100read>
    5d60:	81 11       	cpse	r24, r1
    5d62:	01 c0       	rjmp	.+2      	; 0x5d66 <WebserverSocketOpen+0x1a>
    5d64:	e7 df       	rcall	.-50     	; 0x5d34 <WebserverSocket_close>
    5d66:	61 2f       	mov	r22, r17
    5d68:	80 e0       	ldi	r24, 0x00	; 0
    5d6a:	97 e0       	ldi	r25, 0x07	; 7
    5d6c:	0e 94 e6 04 	call	0x9cc	; 0x9cc <W5100write>
    5d70:	6d 2f       	mov	r22, r29
    5d72:	84 e0       	ldi	r24, 0x04	; 4
    5d74:	97 e0       	ldi	r25, 0x07	; 7
    5d76:	0e 94 e6 04 	call	0x9cc	; 0x9cc <W5100write>
    5d7a:	6c 2f       	mov	r22, r28
    5d7c:	85 e0       	ldi	r24, 0x05	; 5
    5d7e:	97 e0       	ldi	r25, 0x07	; 7
    5d80:	0e 94 e6 04 	call	0x9cc	; 0x9cc <W5100write>
    5d84:	61 e0       	ldi	r22, 0x01	; 1
    5d86:	81 e0       	ldi	r24, 0x01	; 1
    5d88:	97 e0       	ldi	r25, 0x07	; 7
    5d8a:	0e 94 e6 04 	call	0x9cc	; 0x9cc <W5100write>
    5d8e:	81 e0       	ldi	r24, 0x01	; 1
    5d90:	97 e0       	ldi	r25, 0x07	; 7
    5d92:	0e 94 ec 03 	call	0x7d8	; 0x7d8 <W5100read>
    5d96:	81 11       	cpse	r24, r1
    5d98:	fa cf       	rjmp	.-12     	; 0x5d8e <WebserverSocketOpen+0x42>
    5d9a:	83 e0       	ldi	r24, 0x03	; 3
    5d9c:	97 e0       	ldi	r25, 0x07	; 7
    5d9e:	0e 94 ec 03 	call	0x7d8	; 0x7d8 <W5100read>
    5da2:	83 31       	cpi	r24, 0x13	; 19
    5da4:	19 f0       	breq	.+6      	; 0x5dac <WebserverSocketOpen+0x60>
    5da6:	c6 df       	rcall	.-116    	; 0x5d34 <WebserverSocket_close>
    5da8:	80 e0       	ldi	r24, 0x00	; 0
    5daa:	01 c0       	rjmp	.+2      	; 0x5dae <WebserverSocketOpen+0x62>
    5dac:	81 e0       	ldi	r24, 0x01	; 1
    5dae:	df 91       	pop	r29
    5db0:	cf 91       	pop	r28
    5db2:	1f 91       	pop	r17
    5db4:	08 95       	ret

00005db6 <Webserver_listen>:
    5db6:	83 e0       	ldi	r24, 0x03	; 3
    5db8:	97 e0       	ldi	r25, 0x07	; 7
    5dba:	0e 94 ec 03 	call	0x7d8	; 0x7d8 <W5100read>
    5dbe:	83 31       	cpi	r24, 0x13	; 19
    5dc0:	a1 f4       	brne	.+40     	; 0x5dea <Webserver_listen+0x34>
    5dc2:	62 e0       	ldi	r22, 0x02	; 2
    5dc4:	81 e0       	ldi	r24, 0x01	; 1
    5dc6:	97 e0       	ldi	r25, 0x07	; 7
    5dc8:	0e 94 e6 04 	call	0x9cc	; 0x9cc <W5100write>
    5dcc:	81 e0       	ldi	r24, 0x01	; 1
    5dce:	97 e0       	ldi	r25, 0x07	; 7
    5dd0:	0e 94 ec 03 	call	0x7d8	; 0x7d8 <W5100read>
    5dd4:	81 11       	cpse	r24, r1
    5dd6:	fa cf       	rjmp	.-12     	; 0x5dcc <Webserver_listen+0x16>
    5dd8:	83 e0       	ldi	r24, 0x03	; 3
    5dda:	97 e0       	ldi	r25, 0x07	; 7
    5ddc:	0e 94 ec 03 	call	0x7d8	; 0x7d8 <W5100read>
    5de0:	84 31       	cpi	r24, 0x14	; 20
    5de2:	29 f0       	breq	.+10     	; 0x5dee <Webserver_listen+0x38>
    5de4:	a7 df       	rcall	.-178    	; 0x5d34 <WebserverSocket_close>
    5de6:	80 e0       	ldi	r24, 0x00	; 0
    5de8:	08 95       	ret
    5dea:	80 e0       	ldi	r24, 0x00	; 0
    5dec:	08 95       	ret
    5dee:	81 e0       	ldi	r24, 0x01	; 1
    5df0:	08 95       	ret

00005df2 <Webserver_recv>:
    5df2:	8f 92       	push	r8
    5df4:	9f 92       	push	r9
    5df6:	af 92       	push	r10
    5df8:	bf 92       	push	r11
    5dfa:	cf 92       	push	r12
    5dfc:	df 92       	push	r13
    5dfe:	ef 92       	push	r14
    5e00:	ff 92       	push	r15
    5e02:	0f 93       	push	r16
    5e04:	1f 93       	push	r17
    5e06:	cf 93       	push	r28
    5e08:	df 93       	push	r29
    5e0a:	6c 01       	movw	r12, r24
    5e0c:	7b 01       	movw	r14, r22
    5e0e:	61 15       	cp	r22, r1
    5e10:	71 05       	cpc	r23, r1
    5e12:	09 f4       	brne	.+2      	; 0x5e16 <Webserver_recv+0x24>
    5e14:	45 c0       	rjmp	.+138    	; 0x5ea0 <Webserver_recv+0xae>
    5e16:	61 30       	cpi	r22, 0x01	; 1
    5e18:	84 e0       	ldi	r24, 0x04	; 4
    5e1a:	78 07       	cpc	r23, r24
    5e1c:	48 f5       	brcc	.+82     	; 0x5e70 <Webserver_recv+0x7e>
    5e1e:	2e c0       	rjmp	.+92     	; 0x5e7c <Webserver_recv+0x8a>
    5e20:	21 97       	sbiw	r28, 0x01	; 1
    5e22:	c4 01       	movw	r24, r8
    5e24:	97 70       	andi	r25, 0x07	; 7
    5e26:	98 58       	subi	r25, 0x88	; 136
    5e28:	0e 94 ec 03 	call	0x7d8	; 0x7d8 <W5100read>
    5e2c:	f8 01       	movw	r30, r16
    5e2e:	81 93       	st	Z+, r24
    5e30:	8f 01       	movw	r16, r30
    5e32:	ff ef       	ldi	r31, 0xFF	; 255
    5e34:	8f 1a       	sub	r8, r31
    5e36:	9f 0a       	sbc	r9, r31
    5e38:	20 97       	sbiw	r28, 0x00	; 0
    5e3a:	91 f7       	brne	.-28     	; 0x5e20 <Webserver_recv+0x2e>
    5e3c:	ae 0c       	add	r10, r14
    5e3e:	bf 1c       	adc	r11, r15
    5e40:	f6 01       	movw	r30, r12
    5e42:	ee 0d       	add	r30, r14
    5e44:	ff 1d       	adc	r31, r15
    5e46:	10 82       	st	Z, r1
    5e48:	6b 2d       	mov	r22, r11
    5e4a:	88 e2       	ldi	r24, 0x28	; 40
    5e4c:	97 e0       	ldi	r25, 0x07	; 7
    5e4e:	0e 94 e6 04 	call	0x9cc	; 0x9cc <W5100write>
    5e52:	6a 2d       	mov	r22, r10
    5e54:	89 e2       	ldi	r24, 0x29	; 41
    5e56:	97 e0       	ldi	r25, 0x07	; 7
    5e58:	0e 94 e6 04 	call	0x9cc	; 0x9cc <W5100write>
    5e5c:	60 e4       	ldi	r22, 0x40	; 64
    5e5e:	81 e0       	ldi	r24, 0x01	; 1
    5e60:	97 e0       	ldi	r25, 0x07	; 7
    5e62:	0e 94 e6 04 	call	0x9cc	; 0x9cc <W5100write>
    5e66:	8a e1       	ldi	r24, 0x1A	; 26
    5e68:	8a 95       	dec	r24
    5e6a:	f1 f7       	brne	.-4      	; 0x5e68 <Webserver_recv+0x76>
    5e6c:	00 c0       	rjmp	.+0      	; 0x5e6e <Webserver_recv+0x7c>
    5e6e:	18 c0       	rjmp	.+48     	; 0x5ea0 <Webserver_recv+0xae>
    5e70:	0f 2e       	mov	r0, r31
    5e72:	fe ef       	ldi	r31, 0xFE	; 254
    5e74:	ef 2e       	mov	r14, r31
    5e76:	f3 e0       	ldi	r31, 0x03	; 3
    5e78:	ff 2e       	mov	r15, r31
    5e7a:	f0 2d       	mov	r31, r0
    5e7c:	88 e2       	ldi	r24, 0x28	; 40
    5e7e:	97 e0       	ldi	r25, 0x07	; 7
    5e80:	0e 94 ec 03 	call	0x7d8	; 0x7d8 <W5100read>
    5e84:	a8 2e       	mov	r10, r24
    5e86:	89 e2       	ldi	r24, 0x29	; 41
    5e88:	97 e0       	ldi	r25, 0x07	; 7
    5e8a:	0e 94 ec 03 	call	0x7d8	; 0x7d8 <W5100read>
    5e8e:	b1 2c       	mov	r11, r1
    5e90:	ba 2c       	mov	r11, r10
    5e92:	aa 24       	eor	r10, r10
    5e94:	a8 0e       	add	r10, r24
    5e96:	b1 1c       	adc	r11, r1
    5e98:	45 01       	movw	r8, r10
    5e9a:	e7 01       	movw	r28, r14
    5e9c:	86 01       	movw	r16, r12
    5e9e:	c0 cf       	rjmp	.-128    	; 0x5e20 <Webserver_recv+0x2e>
    5ea0:	81 e0       	ldi	r24, 0x01	; 1
    5ea2:	90 e0       	ldi	r25, 0x00	; 0
    5ea4:	df 91       	pop	r29
    5ea6:	cf 91       	pop	r28
    5ea8:	1f 91       	pop	r17
    5eaa:	0f 91       	pop	r16
    5eac:	ff 90       	pop	r15
    5eae:	ef 90       	pop	r14
    5eb0:	df 90       	pop	r13
    5eb2:	cf 90       	pop	r12
    5eb4:	bf 90       	pop	r11
    5eb6:	af 90       	pop	r10
    5eb8:	9f 90       	pop	r9
    5eba:	8f 90       	pop	r8
    5ebc:	08 95       	ret

00005ebe <WebserverSocket_disconnect>:
    5ebe:	68 e0       	ldi	r22, 0x08	; 8
    5ec0:	81 e0       	ldi	r24, 0x01	; 1
    5ec2:	97 e0       	ldi	r25, 0x07	; 7
    5ec4:	0e 94 e6 04 	call	0x9cc	; 0x9cc <W5100write>
    5ec8:	81 e0       	ldi	r24, 0x01	; 1
    5eca:	97 e0       	ldi	r25, 0x07	; 7
    5ecc:	0e 94 ec 03 	call	0x7d8	; 0x7d8 <W5100read>
    5ed0:	81 11       	cpse	r24, r1
    5ed2:	fa cf       	rjmp	.-12     	; 0x5ec8 <WebserverSocket_disconnect+0xa>
    5ed4:	08 95       	ret

00005ed6 <Webserver_send>:
    5ed6:	af 92       	push	r10
    5ed8:	bf 92       	push	r11
    5eda:	cf 92       	push	r12
    5edc:	df 92       	push	r13
    5ede:	ef 92       	push	r14
    5ee0:	ff 92       	push	r15
    5ee2:	0f 93       	push	r16
    5ee4:	1f 93       	push	r17
    5ee6:	cf 93       	push	r28
    5ee8:	df 93       	push	r29
    5eea:	6c 01       	movw	r12, r24
    5eec:	7b 01       	movw	r14, r22
    5eee:	61 15       	cp	r22, r1
    5ef0:	71 05       	cpc	r23, r1
    5ef2:	09 f4       	brne	.+2      	; 0x5ef6 <Webserver_send+0x20>
    5ef4:	56 c0       	rjmp	.+172    	; 0x5fa2 <Webserver_send+0xcc>
    5ef6:	80 e2       	ldi	r24, 0x20	; 32
    5ef8:	97 e0       	ldi	r25, 0x07	; 7
    5efa:	0e 94 ec 03 	call	0x7d8	; 0x7d8 <W5100read>
    5efe:	c8 2f       	mov	r28, r24
    5f00:	d0 e0       	ldi	r29, 0x00	; 0
    5f02:	dc 2f       	mov	r29, r28
    5f04:	cc 27       	eor	r28, r28
    5f06:	81 e2       	ldi	r24, 0x21	; 33
    5f08:	97 e0       	ldi	r25, 0x07	; 7
    5f0a:	0e 94 ec 03 	call	0x7d8	; 0x7d8 <W5100read>
    5f0e:	c8 0f       	add	r28, r24
    5f10:	d1 1d       	adc	r29, r1
    5f12:	ce 15       	cp	r28, r14
    5f14:	df 05       	cpc	r29, r15
    5f16:	08 f4       	brcc	.+2      	; 0x5f1a <Webserver_send+0x44>
    5f18:	5b c0       	rjmp	.+182    	; 0x5fd0 <Webserver_send+0xfa>
    5f1a:	49 c0       	rjmp	.+146    	; 0x5fae <Webserver_send+0xd8>
    5f1c:	8f e9       	ldi	r24, 0x9F	; 159
    5f1e:	9f e0       	ldi	r25, 0x0F	; 15
    5f20:	01 97       	sbiw	r24, 0x01	; 1
    5f22:	f1 f7       	brne	.-4      	; 0x5f20 <Webserver_send+0x4a>
    5f24:	00 c0       	rjmp	.+0      	; 0x5f26 <Webserver_send+0x50>
    5f26:	00 00       	nop
    5f28:	80 e2       	ldi	r24, 0x20	; 32
    5f2a:	97 e0       	ldi	r25, 0x07	; 7
    5f2c:	0e 94 ec 03 	call	0x7d8	; 0x7d8 <W5100read>
    5f30:	08 2f       	mov	r16, r24
    5f32:	10 e0       	ldi	r17, 0x00	; 0
    5f34:	10 2f       	mov	r17, r16
    5f36:	00 27       	eor	r16, r16
    5f38:	81 e2       	ldi	r24, 0x21	; 33
    5f3a:	97 e0       	ldi	r25, 0x07	; 7
    5f3c:	0e 94 ec 03 	call	0x7d8	; 0x7d8 <W5100read>
    5f40:	98 01       	movw	r18, r16
    5f42:	28 0f       	add	r18, r24
    5f44:	31 1d       	adc	r19, r1
    5f46:	21 97       	sbiw	r28, 0x01	; 1
    5f48:	20 97       	sbiw	r28, 0x00	; 0
    5f4a:	11 f4       	brne	.+4      	; 0x5f50 <Webserver_send+0x7a>
    5f4c:	b8 df       	rcall	.-144    	; 0x5ebe <WebserverSocket_disconnect>
    5f4e:	58 c0       	rjmp	.+176    	; 0x6000 <Webserver_send+0x12a>
    5f50:	2e 15       	cp	r18, r14
    5f52:	3f 05       	cpc	r19, r15
    5f54:	18 f3       	brcs	.-58     	; 0x5f1c <Webserver_send+0x46>
    5f56:	2b c0       	rjmp	.+86     	; 0x5fae <Webserver_send+0xd8>
    5f58:	21 97       	sbiw	r28, 0x01	; 1
    5f5a:	c8 01       	movw	r24, r16
    5f5c:	97 70       	andi	r25, 0x07	; 7
    5f5e:	f6 01       	movw	r30, r12
    5f60:	61 91       	ld	r22, Z+
    5f62:	6f 01       	movw	r12, r30
    5f64:	98 5a       	subi	r25, 0xA8	; 168
    5f66:	0e 94 e6 04 	call	0x9cc	; 0x9cc <W5100write>
    5f6a:	0f 5f       	subi	r16, 0xFF	; 255
    5f6c:	1f 4f       	sbci	r17, 0xFF	; 255
    5f6e:	20 97       	sbiw	r28, 0x00	; 0
    5f70:	99 f7       	brne	.-26     	; 0x5f58 <Webserver_send+0x82>
    5f72:	ea 0c       	add	r14, r10
    5f74:	fb 1c       	adc	r15, r11
    5f76:	6f 2d       	mov	r22, r15
    5f78:	84 e2       	ldi	r24, 0x24	; 36
    5f7a:	97 e0       	ldi	r25, 0x07	; 7
    5f7c:	0e 94 e6 04 	call	0x9cc	; 0x9cc <W5100write>
    5f80:	6e 2d       	mov	r22, r14
    5f82:	85 e2       	ldi	r24, 0x25	; 37
    5f84:	97 e0       	ldi	r25, 0x07	; 7
    5f86:	0e 94 e6 04 	call	0x9cc	; 0x9cc <W5100write>
    5f8a:	60 e2       	ldi	r22, 0x20	; 32
    5f8c:	81 e0       	ldi	r24, 0x01	; 1
    5f8e:	97 e0       	ldi	r25, 0x07	; 7
    5f90:	0e 94 e6 04 	call	0x9cc	; 0x9cc <W5100write>
    5f94:	81 e0       	ldi	r24, 0x01	; 1
    5f96:	97 e0       	ldi	r25, 0x07	; 7
    5f98:	0e 94 ec 03 	call	0x7d8	; 0x7d8 <W5100read>
    5f9c:	81 11       	cpse	r24, r1
    5f9e:	fa cf       	rjmp	.-12     	; 0x5f94 <Webserver_send+0xbe>
    5fa0:	03 c0       	rjmp	.+6      	; 0x5fa8 <Webserver_send+0xd2>
    5fa2:	c0 e0       	ldi	r28, 0x00	; 0
    5fa4:	d0 e0       	ldi	r29, 0x00	; 0
    5fa6:	2c c0       	rjmp	.+88     	; 0x6000 <Webserver_send+0x12a>
    5fa8:	c1 e0       	ldi	r28, 0x01	; 1
    5faa:	d0 e0       	ldi	r29, 0x00	; 0
    5fac:	29 c0       	rjmp	.+82     	; 0x6000 <Webserver_send+0x12a>
    5fae:	84 e2       	ldi	r24, 0x24	; 36
    5fb0:	97 e0       	ldi	r25, 0x07	; 7
    5fb2:	0e 94 ec 03 	call	0x7d8	; 0x7d8 <W5100read>
    5fb6:	a8 2e       	mov	r10, r24
    5fb8:	85 e2       	ldi	r24, 0x25	; 37
    5fba:	97 e0       	ldi	r25, 0x07	; 7
    5fbc:	0e 94 ec 03 	call	0x7d8	; 0x7d8 <W5100read>
    5fc0:	b1 2c       	mov	r11, r1
    5fc2:	ba 2c       	mov	r11, r10
    5fc4:	aa 24       	eor	r10, r10
    5fc6:	a8 0e       	add	r10, r24
    5fc8:	b1 1c       	adc	r11, r1
    5fca:	85 01       	movw	r16, r10
    5fcc:	e7 01       	movw	r28, r14
    5fce:	c4 cf       	rjmp	.-120    	; 0x5f58 <Webserver_send+0x82>
    5fd0:	8f e9       	ldi	r24, 0x9F	; 159
    5fd2:	9f e0       	ldi	r25, 0x0F	; 15
    5fd4:	01 97       	sbiw	r24, 0x01	; 1
    5fd6:	f1 f7       	brne	.-4      	; 0x5fd4 <Webserver_send+0xfe>
    5fd8:	00 c0       	rjmp	.+0      	; 0x5fda <Webserver_send+0x104>
    5fda:	00 00       	nop
    5fdc:	80 e2       	ldi	r24, 0x20	; 32
    5fde:	97 e0       	ldi	r25, 0x07	; 7
    5fe0:	0e 94 ec 03 	call	0x7d8	; 0x7d8 <W5100read>
    5fe4:	c8 2f       	mov	r28, r24
    5fe6:	d0 e0       	ldi	r29, 0x00	; 0
    5fe8:	dc 2f       	mov	r29, r28
    5fea:	cc 27       	eor	r28, r28
    5fec:	81 e2       	ldi	r24, 0x21	; 33
    5fee:	97 e0       	ldi	r25, 0x07	; 7
    5ff0:	0e 94 ec 03 	call	0x7d8	; 0x7d8 <W5100read>
    5ff4:	9e 01       	movw	r18, r28
    5ff6:	28 0f       	add	r18, r24
    5ff8:	31 1d       	adc	r19, r1
    5ffa:	c9 ee       	ldi	r28, 0xE9	; 233
    5ffc:	d3 e0       	ldi	r29, 0x03	; 3
    5ffe:	a8 cf       	rjmp	.-176    	; 0x5f50 <Webserver_send+0x7a>
    6000:	ce 01       	movw	r24, r28
    6002:	df 91       	pop	r29
    6004:	cf 91       	pop	r28
    6006:	1f 91       	pop	r17
    6008:	0f 91       	pop	r16
    600a:	ff 90       	pop	r15
    600c:	ef 90       	pop	r14
    600e:	df 90       	pop	r13
    6010:	cf 90       	pop	r12
    6012:	bf 90       	pop	r11
    6014:	af 90       	pop	r10
    6016:	08 95       	ret

00006018 <ModbusTCPRun>:
    6018:	0f 93       	push	r16
    601a:	1f 93       	push	r17
    601c:	cf 93       	push	r28
    601e:	df 93       	push	r29
    6020:	83 30       	cpi	r24, 0x03	; 3
    6022:	09 f0       	breq	.+2      	; 0x6026 <ModbusTCPRun+0xe>
    6024:	4b c0       	rjmp	.+150    	; 0x60bc <ModbusTCPRun+0xa4>
    6026:	e2 ee       	ldi	r30, 0xE2	; 226
    6028:	fc e0       	ldi	r31, 0x0C	; 12
    602a:	20 81       	ld	r18, Z
    602c:	30 e0       	ldi	r19, 0x00	; 0
    602e:	32 2f       	mov	r19, r18
    6030:	22 27       	eor	r18, r18
    6032:	80 91 e3 0c 	lds	r24, 0x0CE3
    6036:	28 0f       	add	r18, r24
    6038:	31 1d       	adc	r19, r1
    603a:	40 91 e4 0c 	lds	r20, 0x0CE4
    603e:	50 e0       	ldi	r21, 0x00	; 0
    6040:	54 2f       	mov	r21, r20
    6042:	44 27       	eor	r20, r20
    6044:	80 91 e5 0c 	lds	r24, 0x0CE5
    6048:	48 0f       	add	r20, r24
    604a:	51 1d       	adc	r21, r1
    604c:	ba 01       	movw	r22, r20
    604e:	66 0f       	add	r22, r22
    6050:	77 1f       	adc	r23, r23
    6052:	c9 01       	movw	r24, r18
    6054:	88 0f       	add	r24, r24
    6056:	99 1f       	adc	r25, r25
    6058:	dc 01       	movw	r26, r24
    605a:	ad 52       	subi	r26, 0x2D	; 45
    605c:	b4 4f       	sbci	r27, 0xF4	; 244
    605e:	ec 01       	movw	r28, r24
    6060:	c7 5e       	subi	r28, 0xE7	; 231
    6062:	de 4e       	sbci	r29, 0xEE	; 238
    6064:	88 81       	ld	r24, Y
    6066:	99 81       	ldd	r25, Y+1	; 0x01
    6068:	8d 93       	st	X+, r24
    606a:	9c 93       	st	X, r25
    606c:	83 e0       	ldi	r24, 0x03	; 3
    606e:	86 0f       	add	r24, r22
    6070:	80 93 df 0c 	sts	0x0CDF, r24
    6074:	60 83       	st	Z, r22
    6076:	41 15       	cp	r20, r1
    6078:	51 05       	cpc	r21, r1
    607a:	c9 f0       	breq	.+50     	; 0x60ae <ModbusTCPRun+0x96>
    607c:	e4 ee       	ldi	r30, 0xE4	; 228
    607e:	fc e0       	ldi	r31, 0x0C	; 12
    6080:	a0 e0       	ldi	r26, 0x00	; 0
    6082:	b0 e0       	ldi	r27, 0x00	; 0
    6084:	80 e0       	ldi	r24, 0x00	; 0
    6086:	90 e0       	ldi	r25, 0x00	; 0
    6088:	a2 0f       	add	r26, r18
    608a:	b3 1f       	adc	r27, r19
    608c:	aa 0f       	add	r26, r26
    608e:	bb 1f       	adc	r27, r27
    6090:	ad 52       	subi	r26, 0x2D	; 45
    6092:	b4 4f       	sbci	r27, 0xF4	; 244
    6094:	cc 91       	ld	r28, X
    6096:	11 96       	adiw	r26, 0x01	; 1
    6098:	dc 91       	ld	r29, X
    609a:	df 01       	movw	r26, r30
    609c:	11 97       	sbiw	r26, 0x01	; 1
    609e:	dc 93       	st	X, r29
    60a0:	c0 83       	st	Z, r28
    60a2:	01 96       	adiw	r24, 0x01	; 1
    60a4:	dc 01       	movw	r26, r24
    60a6:	32 96       	adiw	r30, 0x02	; 2
    60a8:	84 17       	cp	r24, r20
    60aa:	95 07       	cpc	r25, r21
    60ac:	69 f7       	brne	.-38     	; 0x6088 <ModbusTCPRun+0x70>
    60ae:	67 5f       	subi	r22, 0xF7	; 247
    60b0:	7f 4f       	sbci	r23, 0xFF	; 255
    60b2:	8a ed       	ldi	r24, 0xDA	; 218
    60b4:	9c e0       	ldi	r25, 0x0C	; 12
    60b6:	0f df       	rcall	.-482    	; 0x5ed6 <Webserver_send>
    60b8:	80 e0       	ldi	r24, 0x00	; 0
    60ba:	77 c0       	rjmp	.+238    	; 0x61aa <ModbusTCPRun+0x192>
    60bc:	84 30       	cpi	r24, 0x04	; 4
    60be:	09 f0       	breq	.+2      	; 0x60c2 <ModbusTCPRun+0xaa>
    60c0:	4b c0       	rjmp	.+150    	; 0x6158 <ModbusTCPRun+0x140>
    60c2:	e2 ee       	ldi	r30, 0xE2	; 226
    60c4:	fc e0       	ldi	r31, 0x0C	; 12
    60c6:	20 81       	ld	r18, Z
    60c8:	30 e0       	ldi	r19, 0x00	; 0
    60ca:	32 2f       	mov	r19, r18
    60cc:	22 27       	eor	r18, r18
    60ce:	80 91 e3 0c 	lds	r24, 0x0CE3
    60d2:	28 0f       	add	r18, r24
    60d4:	31 1d       	adc	r19, r1
    60d6:	40 91 e4 0c 	lds	r20, 0x0CE4
    60da:	50 e0       	ldi	r21, 0x00	; 0
    60dc:	54 2f       	mov	r21, r20
    60de:	44 27       	eor	r20, r20
    60e0:	80 91 e5 0c 	lds	r24, 0x0CE5
    60e4:	48 0f       	add	r20, r24
    60e6:	51 1d       	adc	r21, r1
    60e8:	ba 01       	movw	r22, r20
    60ea:	66 0f       	add	r22, r22
    60ec:	77 1f       	adc	r23, r23
    60ee:	c9 01       	movw	r24, r18
    60f0:	88 0f       	add	r24, r24
    60f2:	99 1f       	adc	r25, r25
    60f4:	dc 01       	movw	r26, r24
    60f6:	ad 56       	subi	r26, 0x6D	; 109
    60f8:	bd 4e       	sbci	r27, 0xED	; 237
    60fa:	ec 01       	movw	r28, r24
    60fc:	cf 5c       	subi	r28, 0xCF	; 207
    60fe:	d4 4f       	sbci	r29, 0xF4	; 244
    6100:	88 81       	ld	r24, Y
    6102:	99 81       	ldd	r25, Y+1	; 0x01
    6104:	8d 93       	st	X+, r24
    6106:	9c 93       	st	X, r25
    6108:	83 e0       	ldi	r24, 0x03	; 3
    610a:	86 0f       	add	r24, r22
    610c:	80 93 df 0c 	sts	0x0CDF, r24
    6110:	60 83       	st	Z, r22
    6112:	41 15       	cp	r20, r1
    6114:	51 05       	cpc	r21, r1
    6116:	c9 f0       	breq	.+50     	; 0x614a <ModbusTCPRun+0x132>
    6118:	a3 ee       	ldi	r26, 0xE3	; 227
    611a:	bc e0       	ldi	r27, 0x0C	; 12
    611c:	e4 ee       	ldi	r30, 0xE4	; 228
    611e:	fc e0       	ldi	r31, 0x0C	; 12
    6120:	c0 e0       	ldi	r28, 0x00	; 0
    6122:	d0 e0       	ldi	r29, 0x00	; 0
    6124:	80 e0       	ldi	r24, 0x00	; 0
    6126:	90 e0       	ldi	r25, 0x00	; 0
    6128:	c2 0f       	add	r28, r18
    612a:	d3 1f       	adc	r29, r19
    612c:	cc 0f       	add	r28, r28
    612e:	dd 1f       	adc	r29, r29
    6130:	cf 5c       	subi	r28, 0xCF	; 207
    6132:	d4 4f       	sbci	r29, 0xF4	; 244
    6134:	18 81       	ld	r17, Y
    6136:	c9 81       	ldd	r28, Y+1	; 0x01
    6138:	cc 93       	st	X, r28
    613a:	10 83       	st	Z, r17
    613c:	01 96       	adiw	r24, 0x01	; 1
    613e:	ec 01       	movw	r28, r24
    6140:	12 96       	adiw	r26, 0x02	; 2
    6142:	32 96       	adiw	r30, 0x02	; 2
    6144:	84 17       	cp	r24, r20
    6146:	95 07       	cpc	r25, r21
    6148:	79 f7       	brne	.-34     	; 0x6128 <ModbusTCPRun+0x110>
    614a:	67 5f       	subi	r22, 0xF7	; 247
    614c:	7f 4f       	sbci	r23, 0xFF	; 255
    614e:	8a ed       	ldi	r24, 0xDA	; 218
    6150:	9c e0       	ldi	r25, 0x0C	; 12
    6152:	c1 de       	rcall	.-638    	; 0x5ed6 <Webserver_send>
    6154:	80 e0       	ldi	r24, 0x00	; 0
    6156:	7d c0       	rjmp	.+250    	; 0x6252 <ModbusTCPRun+0x23a>
    6158:	86 30       	cpi	r24, 0x06	; 6
    615a:	39 f5       	brne	.+78     	; 0x61aa <ModbusTCPRun+0x192>
    615c:	20 91 e2 0c 	lds	r18, 0x0CE2
    6160:	30 e0       	ldi	r19, 0x00	; 0
    6162:	32 2f       	mov	r19, r18
    6164:	22 27       	eor	r18, r18
    6166:	80 91 e3 0c 	lds	r24, 0x0CE3
    616a:	28 0f       	add	r18, r24
    616c:	31 1d       	adc	r19, r1
    616e:	80 91 e4 0c 	lds	r24, 0x0CE4
    6172:	90 e0       	ldi	r25, 0x00	; 0
    6174:	98 2f       	mov	r25, r24
    6176:	88 27       	eor	r24, r24
    6178:	40 91 e5 0c 	lds	r20, 0x0CE5
    617c:	84 0f       	add	r24, r20
    617e:	91 1d       	adc	r25, r1
    6180:	22 0f       	add	r18, r18
    6182:	33 1f       	adc	r19, r19
    6184:	f9 01       	movw	r30, r18
    6186:	ed 52       	subi	r30, 0x2D	; 45
    6188:	f4 4f       	sbci	r31, 0xF4	; 244
    618a:	91 83       	std	Z+1, r25	; 0x01
    618c:	80 83       	st	Z, r24
    618e:	f9 01       	movw	r30, r18
    6190:	e7 5e       	subi	r30, 0xE7	; 231
    6192:	fe 4e       	sbci	r31, 0xEE	; 238
    6194:	91 83       	std	Z+1, r25	; 0x01
    6196:	80 83       	st	Z, r24
    6198:	86 e0       	ldi	r24, 0x06	; 6
    619a:	80 93 df 0c 	sts	0x0CDF, r24
    619e:	6c e0       	ldi	r22, 0x0C	; 12
    61a0:	70 e0       	ldi	r23, 0x00	; 0
    61a2:	8a ed       	ldi	r24, 0xDA	; 218
    61a4:	9c e0       	ldi	r25, 0x0C	; 12
    61a6:	97 de       	rcall	.-722    	; 0x5ed6 <Webserver_send>
    61a8:	97 c0       	rjmp	.+302    	; 0x62d8 <ModbusTCPRun+0x2c0>
    61aa:	8f 30       	cpi	r24, 0x0F	; 15
    61ac:	09 f0       	breq	.+2      	; 0x61b0 <ModbusTCPRun+0x198>
    61ae:	51 c0       	rjmp	.+162    	; 0x6252 <ModbusTCPRun+0x23a>
    61b0:	60 91 e2 0c 	lds	r22, 0x0CE2
    61b4:	70 e0       	ldi	r23, 0x00	; 0
    61b6:	76 2f       	mov	r23, r22
    61b8:	66 27       	eor	r22, r22
    61ba:	80 91 e3 0c 	lds	r24, 0x0CE3
    61be:	68 0f       	add	r22, r24
    61c0:	71 1d       	adc	r23, r1
    61c2:	80 91 e4 0c 	lds	r24, 0x0CE4
    61c6:	90 e0       	ldi	r25, 0x00	; 0
    61c8:	98 2f       	mov	r25, r24
    61ca:	88 27       	eor	r24, r24
    61cc:	20 91 e5 0c 	lds	r18, 0x0CE5
    61d0:	82 0f       	add	r24, r18
    61d2:	91 1d       	adc	r25, r1
    61d4:	ec 01       	movw	r28, r24
    61d6:	d6 95       	lsr	r29
    61d8:	c7 95       	ror	r28
    61da:	d6 95       	lsr	r29
    61dc:	c7 95       	ror	r28
    61de:	d6 95       	lsr	r29
    61e0:	c7 95       	ror	r28
    61e2:	9e 01       	movw	r18, r28
    61e4:	22 0f       	add	r18, r18
    61e6:	33 1f       	adc	r19, r19
    61e8:	22 0f       	add	r18, r18
    61ea:	33 1f       	adc	r19, r19
    61ec:	22 0f       	add	r18, r18
    61ee:	33 1f       	adc	r19, r19
    61f0:	28 17       	cp	r18, r24
    61f2:	39 07       	cpc	r19, r25
    61f4:	08 f4       	brcc	.+2      	; 0x61f8 <ModbusTCPRun+0x1e0>
    61f6:	21 96       	adiw	r28, 0x01	; 1
    61f8:	8c 2f       	mov	r24, r28
    61fa:	8b 5f       	subi	r24, 0xFB	; 251
    61fc:	80 93 df 0c 	sts	0x0CDF, r24
    6200:	20 97       	sbiw	r28, 0x00	; 0
    6202:	09 f1       	breq	.+66     	; 0x6246 <ModbusTCPRun+0x22e>
    6204:	a7 ee       	ldi	r26, 0xE7	; 231
    6206:	bc e0       	ldi	r27, 0x0C	; 12
    6208:	67 5d       	subi	r22, 0xD7	; 215
    620a:	76 4f       	sbci	r23, 0xF6	; 246
    620c:	c9 51       	subi	r28, 0x19	; 25
    620e:	d3 4f       	sbci	r29, 0xF3	; 243
    6210:	00 e0       	ldi	r16, 0x00	; 0
    6212:	10 e0       	ldi	r17, 0x00	; 0
    6214:	12 c0       	rjmp	.+36     	; 0x623a <ModbusTCPRun+0x222>
    6216:	9a 01       	movw	r18, r20
    6218:	08 2e       	mov	r0, r24
    621a:	02 c0       	rjmp	.+4      	; 0x6220 <ModbusTCPRun+0x208>
    621c:	35 95       	asr	r19
    621e:	27 95       	ror	r18
    6220:	0a 94       	dec	r0
    6222:	e2 f7       	brpl	.-8      	; 0x621c <ModbusTCPRun+0x204>
    6224:	21 70       	andi	r18, 0x01	; 1
    6226:	21 93       	st	Z+, r18
    6228:	01 96       	adiw	r24, 0x01	; 1
    622a:	88 30       	cpi	r24, 0x08	; 8
    622c:	91 05       	cpc	r25, r1
    622e:	99 f7       	brne	.-26     	; 0x6216 <ModbusTCPRun+0x1fe>
    6230:	68 5f       	subi	r22, 0xF8	; 248
    6232:	7f 4f       	sbci	r23, 0xFF	; 255
    6234:	ac 17       	cp	r26, r28
    6236:	bd 07       	cpc	r27, r29
    6238:	31 f0       	breq	.+12     	; 0x6246 <ModbusTCPRun+0x22e>
    623a:	4d 91       	ld	r20, X+
    623c:	50 e0       	ldi	r21, 0x00	; 0
    623e:	fb 01       	movw	r30, r22
    6240:	80 2f       	mov	r24, r16
    6242:	91 2f       	mov	r25, r17
    6244:	e8 cf       	rjmp	.-48     	; 0x6216 <ModbusTCPRun+0x1fe>
    6246:	6c e0       	ldi	r22, 0x0C	; 12
    6248:	70 e0       	ldi	r23, 0x00	; 0
    624a:	8a ed       	ldi	r24, 0xDA	; 218
    624c:	9c e0       	ldi	r25, 0x0C	; 12
    624e:	43 de       	rcall	.-890    	; 0x5ed6 <Webserver_send>
    6250:	43 c0       	rjmp	.+134    	; 0x62d8 <ModbusTCPRun+0x2c0>
    6252:	80 31       	cpi	r24, 0x10	; 16
    6254:	09 f0       	breq	.+2      	; 0x6258 <ModbusTCPRun+0x240>
    6256:	40 c0       	rjmp	.+128    	; 0x62d8 <ModbusTCPRun+0x2c0>
    6258:	c0 91 e2 0c 	lds	r28, 0x0CE2
    625c:	d0 e0       	ldi	r29, 0x00	; 0
    625e:	dc 2f       	mov	r29, r28
    6260:	cc 27       	eor	r28, r28
    6262:	80 91 e3 0c 	lds	r24, 0x0CE3
    6266:	c8 0f       	add	r28, r24
    6268:	d1 1d       	adc	r29, r1
    626a:	60 91 e4 0c 	lds	r22, 0x0CE4
    626e:	70 e0       	ldi	r23, 0x00	; 0
    6270:	76 2f       	mov	r23, r22
    6272:	66 27       	eor	r22, r22
    6274:	80 91 e5 0c 	lds	r24, 0x0CE5
    6278:	68 0f       	add	r22, r24
    627a:	71 1d       	adc	r23, r1
    627c:	86 e0       	ldi	r24, 0x06	; 6
    627e:	80 93 df 0c 	sts	0x0CDF, r24
    6282:	61 15       	cp	r22, r1
    6284:	71 05       	cpc	r23, r1
    6286:	19 f1       	breq	.+70     	; 0x62ce <ModbusTCPRun+0x2b6>
    6288:	e8 ee       	ldi	r30, 0xE8	; 232
    628a:	fc e0       	ldi	r31, 0x0C	; 12
    628c:	40 e0       	ldi	r20, 0x00	; 0
    628e:	50 e0       	ldi	r21, 0x00	; 0
    6290:	80 e0       	ldi	r24, 0x00	; 0
    6292:	90 e0       	ldi	r25, 0x00	; 0
    6294:	4c 0f       	add	r20, r28
    6296:	5d 1f       	adc	r21, r29
    6298:	df 01       	movw	r26, r30
    629a:	11 97       	sbiw	r26, 0x01	; 1
    629c:	2c 91       	ld	r18, X
    629e:	30 e0       	ldi	r19, 0x00	; 0
    62a0:	32 2f       	mov	r19, r18
    62a2:	22 27       	eor	r18, r18
    62a4:	a0 81       	ld	r26, Z
    62a6:	2a 0f       	add	r18, r26
    62a8:	31 1d       	adc	r19, r1
    62aa:	44 0f       	add	r20, r20
    62ac:	55 1f       	adc	r21, r21
    62ae:	da 01       	movw	r26, r20
    62b0:	ad 52       	subi	r26, 0x2D	; 45
    62b2:	b4 4f       	sbci	r27, 0xF4	; 244
    62b4:	2d 93       	st	X+, r18
    62b6:	3c 93       	st	X, r19
    62b8:	da 01       	movw	r26, r20
    62ba:	a7 5e       	subi	r26, 0xE7	; 231
    62bc:	be 4e       	sbci	r27, 0xEE	; 238
    62be:	2d 93       	st	X+, r18
    62c0:	3c 93       	st	X, r19
    62c2:	01 96       	adiw	r24, 0x01	; 1
    62c4:	ac 01       	movw	r20, r24
    62c6:	32 96       	adiw	r30, 0x02	; 2
    62c8:	86 17       	cp	r24, r22
    62ca:	97 07       	cpc	r25, r23
    62cc:	19 f7       	brne	.-58     	; 0x6294 <ModbusTCPRun+0x27c>
    62ce:	6c e0       	ldi	r22, 0x0C	; 12
    62d0:	70 e0       	ldi	r23, 0x00	; 0
    62d2:	8a ed       	ldi	r24, 0xDA	; 218
    62d4:	9c e0       	ldi	r25, 0x0C	; 12
    62d6:	ff dd       	rcall	.-1026   	; 0x5ed6 <Webserver_send>
    62d8:	df 91       	pop	r29
    62da:	cf 91       	pop	r28
    62dc:	1f 91       	pop	r17
    62de:	0f 91       	pop	r16
    62e0:	08 95       	ret

000062e2 <SetFC>:
    62e2:	83 30       	cpi	r24, 0x03	; 3
    62e4:	91 05       	cpc	r25, r1
    62e6:	61 f0       	breq	.+24     	; 0x6300 <SetFC+0x1e>
    62e8:	84 30       	cpi	r24, 0x04	; 4
    62ea:	91 05       	cpc	r25, r1
    62ec:	71 f0       	breq	.+28     	; 0x630a <SetFC+0x28>
    62ee:	21 e0       	ldi	r18, 0x01	; 1
    62f0:	81 30       	cpi	r24, 0x01	; 1
    62f2:	91 05       	cpc	r25, r1
    62f4:	09 f0       	breq	.+2      	; 0x62f8 <SetFC+0x16>
    62f6:	20 e0       	ldi	r18, 0x00	; 0
    62f8:	85 30       	cpi	r24, 0x05	; 5
    62fa:	91 05       	cpc	r25, r1
    62fc:	59 f0       	breq	.+22     	; 0x6314 <SetFC+0x32>
    62fe:	01 c0       	rjmp	.+2      	; 0x6302 <SetFC+0x20>
    6300:	23 e0       	ldi	r18, 0x03	; 3
    6302:	86 30       	cpi	r24, 0x06	; 6
    6304:	91 05       	cpc	r25, r1
    6306:	51 f0       	breq	.+20     	; 0x631c <SetFC+0x3a>
    6308:	01 c0       	rjmp	.+2      	; 0x630c <SetFC+0x2a>
    630a:	24 e0       	ldi	r18, 0x04	; 4
    630c:	8f 30       	cpi	r24, 0x0F	; 15
    630e:	91 05       	cpc	r25, r1
    6310:	39 f0       	breq	.+14     	; 0x6320 <SetFC+0x3e>
    6312:	01 c0       	rjmp	.+2      	; 0x6316 <SetFC+0x34>
    6314:	25 e0       	ldi	r18, 0x05	; 5
    6316:	40 97       	sbiw	r24, 0x10	; 16
    6318:	29 f0       	breq	.+10     	; 0x6324 <SetFC+0x42>
    631a:	05 c0       	rjmp	.+10     	; 0x6326 <SetFC+0x44>
    631c:	26 e0       	ldi	r18, 0x06	; 6
    631e:	03 c0       	rjmp	.+6      	; 0x6326 <SetFC+0x44>
    6320:	2f e0       	ldi	r18, 0x0F	; 15
    6322:	01 c0       	rjmp	.+2      	; 0x6326 <SetFC+0x44>
    6324:	20 e1       	ldi	r18, 0x10	; 16
    6326:	82 2f       	mov	r24, r18
    6328:	08 95       	ret

0000632a <Modbus_TCP_Automat>:
    632a:	8f 92       	push	r8
    632c:	9f 92       	push	r9
    632e:	af 92       	push	r10
    6330:	bf 92       	push	r11
    6332:	cf 92       	push	r12
    6334:	df 92       	push	r13
    6336:	ef 92       	push	r14
    6338:	ff 92       	push	r15
    633a:	cf 93       	push	r28
    633c:	df 93       	push	r29
    633e:	d0 91 69 05 	lds	r29, 0x0569
    6342:	81 11       	cpse	r24, r1
    6344:	03 c0       	rjmp	.+6      	; 0x634c <Modbus_TCP_Automat+0x22>
    6346:	10 92 69 05 	sts	0x0569, r1
    634a:	0a c0       	rjmp	.+20     	; 0x6360 <Modbus_TCP_Automat+0x36>
    634c:	8d 2f       	mov	r24, r29
    634e:	90 e0       	ldi	r25, 0x00	; 0
    6350:	80 31       	cpi	r24, 0x10	; 16
    6352:	91 05       	cpc	r25, r1
    6354:	08 f0       	brcs	.+2      	; 0x6358 <Modbus_TCP_Automat+0x2e>
    6356:	c0 c1       	rjmp	.+896    	; 0x66d8 <Modbus_TCP_Automat+0x3ae>
    6358:	fc 01       	movw	r30, r24
    635a:	e3 53       	subi	r30, 0x33	; 51
    635c:	ff 4f       	sbci	r31, 0xFF	; 255
    635e:	cd c3       	rjmp	.+1946   	; 0x6afa <__tablejump2__>
    6360:	80 91 68 05 	lds	r24, 0x0568
    6364:	81 11       	cpse	r24, r1
    6366:	04 c0       	rjmp	.+8      	; 0x6370 <Modbus_TCP_Automat+0x46>
    6368:	0e 94 a0 07 	call	0xf40	; 0xf40 <Timer16Alloc>
    636c:	80 93 68 05 	sts	0x0568, r24
    6370:	81 e0       	ldi	r24, 0x01	; 1
    6372:	80 93 69 05 	sts	0x0569, r24
    6376:	d0 c1       	rjmp	.+928    	; 0x6718 <Modbus_TCP_Automat+0x3ee>
    6378:	83 e0       	ldi	r24, 0x03	; 3
    637a:	97 e0       	ldi	r25, 0x07	; 7
    637c:	0e 94 ec 03 	call	0x7d8	; 0x7d8 <W5100read>
    6380:	80 93 0d 11 	sts	0x110D, r24
    6384:	87 31       	cpi	r24, 0x17	; 23
    6386:	89 f0       	breq	.+34     	; 0x63aa <Modbus_TCP_Automat+0x80>
    6388:	28 f4       	brcc	.+10     	; 0x6394 <Modbus_TCP_Automat+0x6a>
    638a:	88 23       	and	r24, r24
    638c:	51 f0       	breq	.+20     	; 0x63a2 <Modbus_TCP_Automat+0x78>
    638e:	83 31       	cpi	r24, 0x13	; 19
    6390:	61 f1       	breq	.+88     	; 0x63ea <Modbus_TCP_Automat+0xc0>
    6392:	a2 c1       	rjmp	.+836    	; 0x66d8 <Modbus_TCP_Automat+0x3ae>
    6394:	88 31       	cpi	r24, 0x18	; 24
    6396:	69 f1       	breq	.+90     	; 0x63f2 <Modbus_TCP_Automat+0xc8>
    6398:	8a 51       	subi	r24, 0x1A	; 26
    639a:	84 30       	cpi	r24, 0x04	; 4
    639c:	08 f0       	brcs	.+2      	; 0x63a0 <Modbus_TCP_Automat+0x76>
    639e:	9c c1       	rjmp	.+824    	; 0x66d8 <Modbus_TCP_Automat+0x3ae>
    63a0:	28 c0       	rjmp	.+80     	; 0x63f2 <Modbus_TCP_Automat+0xc8>
    63a2:	82 e0       	ldi	r24, 0x02	; 2
    63a4:	80 93 69 05 	sts	0x0569, r24
    63a8:	b7 c1       	rjmp	.+878    	; 0x6718 <Modbus_TCP_Automat+0x3ee>
    63aa:	80 91 64 05 	lds	r24, 0x0564
    63ae:	90 91 65 05 	lds	r25, 0x0565
    63b2:	a0 91 66 05 	lds	r26, 0x0566
    63b6:	b0 91 67 05 	lds	r27, 0x0567
    63ba:	89 2b       	or	r24, r25
    63bc:	8a 2b       	or	r24, r26
    63be:	8b 2b       	or	r24, r27
    63c0:	51 f4       	brne	.+20     	; 0x63d6 <Modbus_TCP_Automat+0xac>
    63c2:	85 e0       	ldi	r24, 0x05	; 5
    63c4:	80 93 69 05 	sts	0x0569, r24
    63c8:	62 e0       	ldi	r22, 0x02	; 2
    63ca:	70 e0       	ldi	r23, 0x00	; 0
    63cc:	80 91 68 05 	lds	r24, 0x0568
    63d0:	0e 94 e6 07 	call	0xfcc	; 0xfcc <StartTimer16>
    63d4:	81 c1       	rjmp	.+770    	; 0x66d8 <Modbus_TCP_Automat+0x3ae>
    63d6:	86 e0       	ldi	r24, 0x06	; 6
    63d8:	80 93 69 05 	sts	0x0569, r24
    63dc:	61 e0       	ldi	r22, 0x01	; 1
    63de:	70 e0       	ldi	r23, 0x00	; 0
    63e0:	80 91 68 05 	lds	r24, 0x0568
    63e4:	0e 94 e6 07 	call	0xfcc	; 0xfcc <StartTimer16>
    63e8:	77 c1       	rjmp	.+750    	; 0x66d8 <Modbus_TCP_Automat+0x3ae>
    63ea:	83 e0       	ldi	r24, 0x03	; 3
    63ec:	80 93 69 05 	sts	0x0569, r24
    63f0:	93 c1       	rjmp	.+806    	; 0x6718 <Modbus_TCP_Automat+0x3ee>
    63f2:	a0 dc       	rcall	.-1728   	; 0x5d34 <WebserverSocket_close>
    63f4:	71 c1       	rjmp	.+738    	; 0x66d8 <Modbus_TCP_Automat+0x3ae>
    63f6:	46 ef       	ldi	r20, 0xF6	; 246
    63f8:	51 e0       	ldi	r21, 0x01	; 1
    63fa:	61 e0       	ldi	r22, 0x01	; 1
    63fc:	83 e0       	ldi	r24, 0x03	; 3
    63fe:	a6 dc       	rcall	.-1716   	; 0x5d4c <WebserverSocketOpen>
    6400:	88 23       	and	r24, r24
    6402:	21 f0       	breq	.+8      	; 0x640c <Modbus_TCP_Automat+0xe2>
    6404:	83 e0       	ldi	r24, 0x03	; 3
    6406:	80 93 69 05 	sts	0x0569, r24
    640a:	86 c1       	rjmp	.+780    	; 0x6718 <Modbus_TCP_Automat+0x3ee>
    640c:	81 e0       	ldi	r24, 0x01	; 1
    640e:	80 93 69 05 	sts	0x0569, r24
    6412:	82 c1       	rjmp	.+772    	; 0x6718 <Modbus_TCP_Automat+0x3ee>
    6414:	d0 dc       	rcall	.-1632   	; 0x5db6 <Webserver_listen>
    6416:	81 11       	cpse	r24, r1
    6418:	04 c0       	rjmp	.+8      	; 0x6422 <Modbus_TCP_Automat+0xf8>
    641a:	84 e0       	ldi	r24, 0x04	; 4
    641c:	80 93 69 05 	sts	0x0569, r24
    6420:	7b c1       	rjmp	.+758    	; 0x6718 <Modbus_TCP_Automat+0x3ee>
    6422:	81 e0       	ldi	r24, 0x01	; 1
    6424:	80 93 69 05 	sts	0x0569, r24
    6428:	77 c1       	rjmp	.+750    	; 0x6718 <Modbus_TCP_Automat+0x3ee>
    642a:	81 e0       	ldi	r24, 0x01	; 1
    642c:	80 93 69 05 	sts	0x0569, r24
    6430:	73 c1       	rjmp	.+742    	; 0x6718 <Modbus_TCP_Automat+0x3ee>
    6432:	c0 91 68 05 	lds	r28, 0x0568
    6436:	8c 2f       	mov	r24, r28
    6438:	0e 94 92 09 	call	0x1324	; 0x1324 <Timer16Stopp>
    643c:	88 23       	and	r24, r24
    643e:	09 f4       	brne	.+2      	; 0x6442 <Modbus_TCP_Automat+0x118>
    6440:	4b c1       	rjmp	.+662    	; 0x66d8 <Modbus_TCP_Automat+0x3ae>
    6442:	65 e0       	ldi	r22, 0x05	; 5
    6444:	70 e0       	ldi	r23, 0x00	; 0
    6446:	8c 2f       	mov	r24, r28
    6448:	0e 94 e6 07 	call	0xfcc	; 0xfcc <StartTimer16>
    644c:	86 e0       	ldi	r24, 0x06	; 6
    644e:	80 93 69 05 	sts	0x0569, r24
    6452:	c6 e0       	ldi	r28, 0x06	; 6
    6454:	47 c1       	rjmp	.+654    	; 0x66e4 <Modbus_TCP_Automat+0x3ba>
    6456:	c0 91 68 05 	lds	r28, 0x0568
    645a:	8c 2f       	mov	r24, r28
    645c:	0e 94 92 09 	call	0x1324	; 0x1324 <Timer16Stopp>
    6460:	88 23       	and	r24, r24
    6462:	09 f4       	brne	.+2      	; 0x6466 <Modbus_TCP_Automat+0x13c>
    6464:	39 c1       	rjmp	.+626    	; 0x66d8 <Modbus_TCP_Automat+0x3ae>
    6466:	40 91 64 05 	lds	r20, 0x0564
    646a:	50 91 65 05 	lds	r21, 0x0565
    646e:	60 91 66 05 	lds	r22, 0x0566
    6472:	70 91 67 05 	lds	r23, 0x0567
    6476:	48 3e       	cpi	r20, 0xE8	; 232
    6478:	53 40       	sbci	r21, 0x03	; 3
    647a:	61 05       	cpc	r22, r1
    647c:	71 05       	cpc	r23, r1
    647e:	78 f0       	brcs	.+30     	; 0x649e <Modbus_TCP_Automat+0x174>
    6480:	20 91 c2 07 	lds	r18, 0x07C2
    6484:	30 91 c3 07 	lds	r19, 0x07C3
    6488:	23 2b       	or	r18, r19
    648a:	79 f4       	brne	.+30     	; 0x64aa <Modbus_TCP_Automat+0x180>
    648c:	62 e3       	ldi	r22, 0x32	; 50
    648e:	70 e0       	ldi	r23, 0x00	; 0
    6490:	8c 2f       	mov	r24, r28
    6492:	0e 94 e6 07 	call	0xfcc	; 0xfcc <StartTimer16>
    6496:	87 e0       	ldi	r24, 0x07	; 7
    6498:	80 93 69 05 	sts	0x0569, r24
    649c:	3d c1       	rjmp	.+634    	; 0x6718 <Modbus_TCP_Automat+0x3ee>
    649e:	80 91 c2 07 	lds	r24, 0x07C2
    64a2:	90 91 c3 07 	lds	r25, 0x07C3
    64a6:	89 2b       	or	r24, r25
    64a8:	21 f0       	breq	.+8      	; 0x64b2 <Modbus_TCP_Automat+0x188>
    64aa:	89 e0       	ldi	r24, 0x09	; 9
    64ac:	80 93 69 05 	sts	0x0569, r24
    64b0:	33 c1       	rjmp	.+614    	; 0x6718 <Modbus_TCP_Automat+0x3ee>
    64b2:	81 e0       	ldi	r24, 0x01	; 1
    64b4:	80 93 69 05 	sts	0x0569, r24
    64b8:	2f c1       	rjmp	.+606    	; 0x6718 <Modbus_TCP_Automat+0x3ee>
    64ba:	80 91 68 05 	lds	r24, 0x0568
    64be:	0e 94 92 09 	call	0x1324	; 0x1324 <Timer16Stopp>
    64c2:	88 23       	and	r24, r24
    64c4:	09 f4       	brne	.+2      	; 0x64c8 <Modbus_TCP_Automat+0x19e>
    64c6:	08 c1       	rjmp	.+528    	; 0x66d8 <Modbus_TCP_Automat+0x3ae>
    64c8:	10 92 64 05 	sts	0x0564, r1
    64cc:	10 92 65 05 	sts	0x0565, r1
    64d0:	10 92 66 05 	sts	0x0566, r1
    64d4:	10 92 67 05 	sts	0x0567, r1
    64d8:	88 e0       	ldi	r24, 0x08	; 8
    64da:	80 93 69 05 	sts	0x0569, r24
    64de:	1c c1       	rjmp	.+568    	; 0x6718 <Modbus_TCP_Automat+0x3ee>
    64e0:	15 dc       	rcall	.-2006   	; 0x5d0c <Webserver_recv_size>
    64e2:	90 93 c3 07 	sts	0x07C3, r25
    64e6:	80 93 c2 07 	sts	0x07C2, r24
    64ea:	89 2b       	or	r24, r25
    64ec:	21 f0       	breq	.+8      	; 0x64f6 <Modbus_TCP_Automat+0x1cc>
    64ee:	89 e0       	ldi	r24, 0x09	; 9
    64f0:	80 93 69 05 	sts	0x0569, r24
    64f4:	11 c1       	rjmp	.+546    	; 0x6718 <Modbus_TCP_Automat+0x3ee>
    64f6:	e3 dc       	rcall	.-1594   	; 0x5ebe <WebserverSocket_disconnect>
    64f8:	81 e0       	ldi	r24, 0x01	; 1
    64fa:	80 93 69 05 	sts	0x0569, r24
    64fe:	0c c1       	rjmp	.+536    	; 0x6718 <Modbus_TCP_Automat+0x3ee>
    6500:	10 92 64 05 	sts	0x0564, r1
    6504:	10 92 65 05 	sts	0x0565, r1
    6508:	10 92 66 05 	sts	0x0566, r1
    650c:	10 92 67 05 	sts	0x0567, r1
    6510:	60 91 c2 07 	lds	r22, 0x07C2
    6514:	70 91 c3 07 	lds	r23, 0x07C3
    6518:	8a ed       	ldi	r24, 0xDA	; 218
    651a:	9c e0       	ldi	r25, 0x0C	; 12
    651c:	6a dc       	rcall	.-1836   	; 0x5df2 <Webserver_recv>
    651e:	80 91 e1 0c 	lds	r24, 0x0CE1
    6522:	90 e0       	ldi	r25, 0x00	; 0
    6524:	de de       	rcall	.-580    	; 0x62e2 <SetFC>
    6526:	78 dd       	rcall	.-1296   	; 0x6018 <ModbusTCPRun>
    6528:	62 e0       	ldi	r22, 0x02	; 2
    652a:	70 e0       	ldi	r23, 0x00	; 0
    652c:	80 91 68 05 	lds	r24, 0x0568
    6530:	0e 94 e6 07 	call	0xfcc	; 0xfcc <StartTimer16>
    6534:	81 e0       	ldi	r24, 0x01	; 1
    6536:	80 93 69 05 	sts	0x0569, r24
    653a:	ee c0       	rjmp	.+476    	; 0x6718 <Modbus_TCP_Automat+0x3ee>
    653c:	ca ed       	ldi	r28, 0xDA	; 218
    653e:	dc e0       	ldi	r29, 0x0C	; 12
    6540:	8a e3       	ldi	r24, 0x3A	; 58
    6542:	e9 ed       	ldi	r30, 0xD9	; 217
    6544:	f2 e0       	ldi	r31, 0x02	; 2
    6546:	de 01       	movw	r26, r28
    6548:	01 90       	ld	r0, Z+
    654a:	0d 92       	st	X+, r0
    654c:	8a 95       	dec	r24
    654e:	e1 f7       	brne	.-8      	; 0x6548 <Modbus_TCP_Automat+0x21e>
    6550:	de 01       	movw	r26, r28
    6552:	0d 90       	ld	r0, X+
    6554:	00 20       	and	r0, r0
    6556:	e9 f7       	brne	.-6      	; 0x6552 <Modbus_TCP_Automat+0x228>
    6558:	11 97       	sbiw	r26, 0x01	; 1
    655a:	8b e3       	ldi	r24, 0x3B	; 59
    655c:	e3 e1       	ldi	r30, 0x13	; 19
    655e:	f3 e0       	ldi	r31, 0x03	; 3
    6560:	01 90       	ld	r0, Z+
    6562:	0d 92       	st	X+, r0
    6564:	8a 95       	dec	r24
    6566:	e1 f7       	brne	.-8      	; 0x6560 <Modbus_TCP_Automat+0x236>
    6568:	de 01       	movw	r26, r28
    656a:	0d 90       	ld	r0, X+
    656c:	00 20       	and	r0, r0
    656e:	e9 f7       	brne	.-6      	; 0x656a <Modbus_TCP_Automat+0x240>
    6570:	11 97       	sbiw	r26, 0x01	; 1
    6572:	81 e2       	ldi	r24, 0x21	; 33
    6574:	ee e4       	ldi	r30, 0x4E	; 78
    6576:	f3 e0       	ldi	r31, 0x03	; 3
    6578:	01 90       	ld	r0, Z+
    657a:	0d 92       	st	X+, r0
    657c:	8a 95       	dec	r24
    657e:	e1 f7       	brne	.-8      	; 0x6578 <Modbus_TCP_Automat+0x24e>
    6580:	de 01       	movw	r26, r28
    6582:	0d 90       	ld	r0, X+
    6584:	00 20       	and	r0, r0
    6586:	e9 f7       	brne	.-6      	; 0x6582 <Modbus_TCP_Automat+0x258>
    6588:	11 97       	sbiw	r26, 0x01	; 1
    658a:	8e e0       	ldi	r24, 0x0E	; 14
    658c:	ef e6       	ldi	r30, 0x6F	; 111
    658e:	f3 e0       	ldi	r31, 0x03	; 3
    6590:	01 90       	ld	r0, Z+
    6592:	0d 92       	st	X+, r0
    6594:	8a 95       	dec	r24
    6596:	e1 f7       	brne	.-8      	; 0x6590 <Modbus_TCP_Automat+0x266>
    6598:	c0 90 7c 05 	lds	r12, 0x057C
    659c:	d0 90 7d 05 	lds	r13, 0x057D
    65a0:	e0 90 7e 05 	lds	r14, 0x057E
    65a4:	f0 90 7f 05 	lds	r15, 0x057F
    65a8:	c7 01       	movw	r24, r14
    65aa:	b6 01       	movw	r22, r12
    65ac:	24 e6       	ldi	r18, 0x64	; 100
    65ae:	30 e0       	ldi	r19, 0x00	; 0
    65b0:	40 e0       	ldi	r20, 0x00	; 0
    65b2:	50 e0       	ldi	r21, 0x00	; 0
    65b4:	64 d2       	rcall	.+1224   	; 0x6a7e <__udivmodsi4>
    65b6:	0f 2e       	mov	r0, r31
    65b8:	fc e3       	ldi	r31, 0x3C	; 60
    65ba:	8f 2e       	mov	r8, r31
    65bc:	91 2c       	mov	r9, r1
    65be:	a1 2c       	mov	r10, r1
    65c0:	b1 2c       	mov	r11, r1
    65c2:	f0 2d       	mov	r31, r0
    65c4:	ca 01       	movw	r24, r20
    65c6:	b9 01       	movw	r22, r18
    65c8:	a5 01       	movw	r20, r10
    65ca:	94 01       	movw	r18, r8
    65cc:	58 d2       	rcall	.+1200   	; 0x6a7e <__udivmodsi4>
    65ce:	1f 92       	push	r1
    65d0:	6f 93       	push	r22
    65d2:	c7 01       	movw	r24, r14
    65d4:	b6 01       	movw	r22, r12
    65d6:	20 e7       	ldi	r18, 0x70	; 112
    65d8:	37 e1       	ldi	r19, 0x17	; 23
    65da:	40 e0       	ldi	r20, 0x00	; 0
    65dc:	50 e0       	ldi	r21, 0x00	; 0
    65de:	4f d2       	rcall	.+1182   	; 0x6a7e <__udivmodsi4>
    65e0:	ca 01       	movw	r24, r20
    65e2:	b9 01       	movw	r22, r18
    65e4:	a5 01       	movw	r20, r10
    65e6:	94 01       	movw	r18, r8
    65e8:	4a d2       	rcall	.+1172   	; 0x6a7e <__udivmodsi4>
    65ea:	1f 92       	push	r1
    65ec:	6f 93       	push	r22
    65ee:	c7 01       	movw	r24, r14
    65f0:	b6 01       	movw	r22, r12
    65f2:	20 e4       	ldi	r18, 0x40	; 64
    65f4:	3e e7       	ldi	r19, 0x7E	; 126
    65f6:	45 e0       	ldi	r20, 0x05	; 5
    65f8:	50 e0       	ldi	r21, 0x00	; 0
    65fa:	41 d2       	rcall	.+1154   	; 0x6a7e <__udivmodsi4>
    65fc:	3f 93       	push	r19
    65fe:	2f 93       	push	r18
    6600:	8d e7       	ldi	r24, 0x7D	; 125
    6602:	93 e0       	ldi	r25, 0x03	; 3
    6604:	9f 93       	push	r25
    6606:	8f 93       	push	r24
    6608:	85 ec       	ldi	r24, 0xC5	; 197
    660a:	98 e0       	ldi	r25, 0x08	; 8
    660c:	9f 93       	push	r25
    660e:	8f 93       	push	r24
    6610:	13 d3       	rcall	.+1574   	; 0x6c38 <sprintf>
    6612:	65 ec       	ldi	r22, 0xC5	; 197
    6614:	78 e0       	ldi	r23, 0x08	; 8
    6616:	ce 01       	movw	r24, r28
    6618:	e2 d2       	rcall	.+1476   	; 0x6bde <strcat>
    661a:	09 90       	ld	r0, Y+
    661c:	00 20       	and	r0, r0
    661e:	e9 f7       	brne	.-6      	; 0x661a <Modbus_TCP_Automat+0x2f0>
    6620:	21 97       	sbiw	r28, 0x01	; 1
    6622:	be 01       	movw	r22, r28
    6624:	6a 5d       	subi	r22, 0xDA	; 218
    6626:	7c 40       	sbci	r23, 0x0C	; 12
    6628:	8a ed       	ldi	r24, 0xDA	; 218
    662a:	9c e0       	ldi	r25, 0x0C	; 12
    662c:	54 dc       	rcall	.-1880   	; 0x5ed6 <Webserver_send>
    662e:	47 dc       	rcall	.-1906   	; 0x5ebe <WebserverSocket_disconnect>
    6630:	81 e0       	ldi	r24, 0x01	; 1
    6632:	80 93 69 05 	sts	0x0569, r24
    6636:	8d b7       	in	r24, 0x3d	; 61
    6638:	9e b7       	in	r25, 0x3e	; 62
    663a:	0a 96       	adiw	r24, 0x0a	; 10
    663c:	0f b6       	in	r0, 0x3f	; 63
    663e:	f8 94       	cli
    6640:	9e bf       	out	0x3e, r25	; 62
    6642:	0f be       	out	0x3f, r0	; 63
    6644:	8d bf       	out	0x3d, r24	; 61
    6646:	68 c0       	rjmp	.+208    	; 0x6718 <Modbus_TCP_Automat+0x3ee>
    6648:	ca ed       	ldi	r28, 0xDA	; 218
    664a:	dc e0       	ldi	r29, 0x0C	; 12
    664c:	88 e3       	ldi	r24, 0x38	; 56
    664e:	e3 eb       	ldi	r30, 0xB3	; 179
    6650:	f3 e0       	ldi	r31, 0x03	; 3
    6652:	de 01       	movw	r26, r28
    6654:	01 90       	ld	r0, Z+
    6656:	0d 92       	st	X+, r0
    6658:	8a 95       	dec	r24
    665a:	e1 f7       	brne	.-8      	; 0x6654 <Modbus_TCP_Automat+0x32a>
    665c:	de 01       	movw	r26, r28
    665e:	0d 90       	ld	r0, X+
    6660:	00 20       	and	r0, r0
    6662:	e9 f7       	brne	.-6      	; 0x665e <Modbus_TCP_Automat+0x334>
    6664:	11 97       	sbiw	r26, 0x01	; 1
    6666:	8b e3       	ldi	r24, 0x3B	; 59
    6668:	e3 e1       	ldi	r30, 0x13	; 19
    666a:	f3 e0       	ldi	r31, 0x03	; 3
    666c:	01 90       	ld	r0, Z+
    666e:	0d 92       	st	X+, r0
    6670:	8a 95       	dec	r24
    6672:	e1 f7       	brne	.-8      	; 0x666c <Modbus_TCP_Automat+0x342>
    6674:	de 01       	movw	r26, r28
    6676:	0d 90       	ld	r0, X+
    6678:	00 20       	and	r0, r0
    667a:	e9 f7       	brne	.-6      	; 0x6676 <Modbus_TCP_Automat+0x34c>
    667c:	11 97       	sbiw	r26, 0x01	; 1
    667e:	83 e2       	ldi	r24, 0x23	; 35
    6680:	eb ee       	ldi	r30, 0xEB	; 235
    6682:	f3 e0       	ldi	r31, 0x03	; 3
    6684:	01 90       	ld	r0, Z+
    6686:	0d 92       	st	X+, r0
    6688:	8a 95       	dec	r24
    668a:	e1 f7       	brne	.-8      	; 0x6684 <Modbus_TCP_Automat+0x35a>
    668c:	de 01       	movw	r26, r28
    668e:	0d 90       	ld	r0, X+
    6690:	00 20       	and	r0, r0
    6692:	e9 f7       	brne	.-6      	; 0x668e <Modbus_TCP_Automat+0x364>
    6694:	11 97       	sbiw	r26, 0x01	; 1
    6696:	83 e2       	ldi	r24, 0x23	; 35
    6698:	ee e0       	ldi	r30, 0x0E	; 14
    669a:	f4 e0       	ldi	r31, 0x04	; 4
    669c:	01 90       	ld	r0, Z+
    669e:	0d 92       	st	X+, r0
    66a0:	8a 95       	dec	r24
    66a2:	e1 f7       	brne	.-8      	; 0x669c <Modbus_TCP_Automat+0x372>
    66a4:	09 90       	ld	r0, Y+
    66a6:	00 20       	and	r0, r0
    66a8:	e9 f7       	brne	.-6      	; 0x66a4 <Modbus_TCP_Automat+0x37a>
    66aa:	21 97       	sbiw	r28, 0x01	; 1
    66ac:	be 01       	movw	r22, r28
    66ae:	6a 5d       	subi	r22, 0xDA	; 218
    66b0:	7c 40       	sbci	r23, 0x0C	; 12
    66b2:	8a ed       	ldi	r24, 0xDA	; 218
    66b4:	9c e0       	ldi	r25, 0x0C	; 12
    66b6:	0f dc       	rcall	.-2018   	; 0x5ed6 <Webserver_send>
    66b8:	02 dc       	rcall	.-2044   	; 0x5ebe <WebserverSocket_disconnect>
    66ba:	81 e0       	ldi	r24, 0x01	; 1
    66bc:	80 93 69 05 	sts	0x0569, r24
    66c0:	2b c0       	rjmp	.+86     	; 0x6718 <Modbus_TCP_Automat+0x3ee>
    66c2:	fd db       	rcall	.-2054   	; 0x5ebe <WebserverSocket_disconnect>
    66c4:	81 e0       	ldi	r24, 0x01	; 1
    66c6:	80 93 69 05 	sts	0x0569, r24
    66ca:	26 c0       	rjmp	.+76     	; 0x6718 <Modbus_TCP_Automat+0x3ee>
    66cc:	f8 db       	rcall	.-2064   	; 0x5ebe <WebserverSocket_disconnect>
    66ce:	32 db       	rcall	.-2460   	; 0x5d34 <WebserverSocket_close>
    66d0:	81 e0       	ldi	r24, 0x01	; 1
    66d2:	80 93 69 05 	sts	0x0569, r24
    66d6:	20 c0       	rjmp	.+64     	; 0x6718 <Modbus_TCP_Automat+0x3ee>
    66d8:	c0 91 69 05 	lds	r28, 0x0569
    66dc:	cd 17       	cp	r28, r29
    66de:	f1 f0       	breq	.+60     	; 0x671c <Modbus_TCP_Automat+0x3f2>
    66e0:	c6 30       	cpi	r28, 0x06	; 6
    66e2:	e1 f4       	brne	.+56     	; 0x671c <Modbus_TCP_Automat+0x3f2>
    66e4:	13 db       	rcall	.-2522   	; 0x5d0c <Webserver_recv_size>
    66e6:	90 93 c3 07 	sts	0x07C3, r25
    66ea:	80 93 c2 07 	sts	0x07C2, r24
    66ee:	40 91 64 05 	lds	r20, 0x0564
    66f2:	50 91 65 05 	lds	r21, 0x0565
    66f6:	60 91 66 05 	lds	r22, 0x0566
    66fa:	70 91 67 05 	lds	r23, 0x0567
    66fe:	4f 5f       	subi	r20, 0xFF	; 255
    6700:	5f 4f       	sbci	r21, 0xFF	; 255
    6702:	6f 4f       	sbci	r22, 0xFF	; 255
    6704:	7f 4f       	sbci	r23, 0xFF	; 255
    6706:	40 93 64 05 	sts	0x0564, r20
    670a:	50 93 65 05 	sts	0x0565, r21
    670e:	60 93 66 05 	sts	0x0566, r22
    6712:	70 93 67 05 	sts	0x0567, r23
    6716:	02 c0       	rjmp	.+4      	; 0x671c <Modbus_TCP_Automat+0x3f2>
    6718:	c0 91 69 05 	lds	r28, 0x0569
    671c:	8c 2f       	mov	r24, r28
    671e:	df 91       	pop	r29
    6720:	cf 91       	pop	r28
    6722:	ff 90       	pop	r15
    6724:	ef 90       	pop	r14
    6726:	df 90       	pop	r13
    6728:	cf 90       	pop	r12
    672a:	bf 90       	pop	r11
    672c:	af 90       	pop	r10
    672e:	9f 90       	pop	r9
    6730:	8f 90       	pop	r8
    6732:	08 95       	ret

00006734 <Ethernet_Automat>:
    6734:	ef 92       	push	r14
    6736:	ff 92       	push	r15
    6738:	0f 93       	push	r16
    673a:	1f 93       	push	r17
    673c:	cf 93       	push	r28
    673e:	c0 91 63 05 	lds	r28, 0x0563
    6742:	88 23       	and	r24, r24
    6744:	39 f0       	breq	.+14     	; 0x6754 <Ethernet_Automat+0x20>
    6746:	c1 30       	cpi	r28, 0x01	; 1
    6748:	49 f0       	breq	.+18     	; 0x675c <Ethernet_Automat+0x28>
    674a:	20 f0       	brcs	.+8      	; 0x6754 <Ethernet_Automat+0x20>
    674c:	c2 30       	cpi	r28, 0x02	; 2
    674e:	09 f4       	brne	.+2      	; 0x6752 <Ethernet_Automat+0x1e>
    6750:	49 c0       	rjmp	.+146    	; 0x67e4 <Ethernet_Automat+0xb0>
    6752:	52 c0       	rjmp	.+164    	; 0x67f8 <Ethernet_Automat+0xc4>
    6754:	81 e0       	ldi	r24, 0x01	; 1
    6756:	80 93 63 05 	sts	0x0563, r24
    675a:	5e c0       	rjmp	.+188    	; 0x6818 <Ethernet_Automat+0xe4>
    675c:	0e 94 56 04 	call	0x8ac	; 0x8ac <W5100_init>
    6760:	68 94       	set
    6762:	ee 24       	eor	r14, r14
    6764:	e1 f8       	bld	r14, 1
    6766:	f1 2c       	mov	r15, r1
    6768:	0e ed       	ldi	r16, 0xDE	; 222
    676a:	10 e0       	ldi	r17, 0x00	; 0
    676c:	2c ec       	ldi	r18, 0xCC	; 204
    676e:	30 e0       	ldi	r19, 0x00	; 0
    6770:	4b eb       	ldi	r20, 0xBB	; 187
    6772:	50 e0       	ldi	r21, 0x00	; 0
    6774:	6a ea       	ldi	r22, 0xAA	; 170
    6776:	70 e0       	ldi	r23, 0x00	; 0
    6778:	80 e0       	ldi	r24, 0x00	; 0
    677a:	90 e0       	ldi	r25, 0x00	; 0
    677c:	0e 94 17 05 	call	0xa2e	; 0xa2e <W5100_SetMac>
    6780:	10 92 73 08 	sts	0x0873, r1
    6784:	8a ea       	ldi	r24, 0xAA	; 170
    6786:	80 93 74 08 	sts	0x0874, r24
    678a:	8b eb       	ldi	r24, 0xBB	; 187
    678c:	80 93 75 08 	sts	0x0875, r24
    6790:	8c ec       	ldi	r24, 0xCC	; 204
    6792:	80 93 76 08 	sts	0x0876, r24
    6796:	8e ed       	ldi	r24, 0xDE	; 222
    6798:	80 93 77 08 	sts	0x0877, r24
    679c:	82 e0       	ldi	r24, 0x02	; 2
    679e:	80 93 78 08 	sts	0x0878, r24
    67a2:	80 91 08 02 	lds	r24, 0x0208
    67a6:	81 11       	cpse	r24, r1
    67a8:	0f c0       	rjmp	.+30     	; 0x67c8 <Ethernet_Automat+0x94>
    67aa:	20 91 07 02 	lds	r18, 0x0207
    67ae:	30 e0       	ldi	r19, 0x00	; 0
    67b0:	40 91 06 02 	lds	r20, 0x0206
    67b4:	50 e0       	ldi	r21, 0x00	; 0
    67b6:	60 91 05 02 	lds	r22, 0x0205
    67ba:	70 e0       	ldi	r23, 0x00	; 0
    67bc:	80 91 04 02 	lds	r24, 0x0204
    67c0:	90 e0       	ldi	r25, 0x00	; 0
    67c2:	0e 94 3e 05 	call	0xa7c	; 0xa7c <W5100_SetIP>
    67c6:	0a c0       	rjmp	.+20     	; 0x67dc <Ethernet_Automat+0xa8>
    67c8:	20 e0       	ldi	r18, 0x00	; 0
    67ca:	30 e0       	ldi	r19, 0x00	; 0
    67cc:	40 e0       	ldi	r20, 0x00	; 0
    67ce:	50 e0       	ldi	r21, 0x00	; 0
    67d0:	60 e0       	ldi	r22, 0x00	; 0
    67d2:	70 e0       	ldi	r23, 0x00	; 0
    67d4:	80 e0       	ldi	r24, 0x00	; 0
    67d6:	90 e0       	ldi	r25, 0x00	; 0
    67d8:	0e 94 3e 05 	call	0xa7c	; 0xa7c <W5100_SetIP>
    67dc:	82 e0       	ldi	r24, 0x02	; 2
    67de:	80 93 63 05 	sts	0x0563, r24
    67e2:	10 c0       	rjmp	.+32     	; 0x6804 <Ethernet_Automat+0xd0>
    67e4:	81 e0       	ldi	r24, 0x01	; 1
    67e6:	0e 94 0a 22 	call	0x4414	; 0x4414 <DHCP_automat>
    67ea:	81 e0       	ldi	r24, 0x01	; 1
    67ec:	20 d0       	rcall	.+64     	; 0x682e <SNMP_Automat>
    67ee:	81 e0       	ldi	r24, 0x01	; 1
    67f0:	0e 94 6b 1d 	call	0x3ad6	; 0x3ad6 <TEST_Automat>
    67f4:	81 e0       	ldi	r24, 0x01	; 1
    67f6:	99 dd       	rcall	.-1230   	; 0x632a <Modbus_TCP_Automat>
    67f8:	80 91 63 05 	lds	r24, 0x0563
    67fc:	8c 17       	cp	r24, r28
    67fe:	61 f0       	breq	.+24     	; 0x6818 <Ethernet_Automat+0xe4>
    6800:	82 30       	cpi	r24, 0x02	; 2
    6802:	51 f4       	brne	.+20     	; 0x6818 <Ethernet_Automat+0xe4>
    6804:	80 e0       	ldi	r24, 0x00	; 0
    6806:	0e 94 0a 22 	call	0x4414	; 0x4414 <DHCP_automat>
    680a:	80 e0       	ldi	r24, 0x00	; 0
    680c:	10 d0       	rcall	.+32     	; 0x682e <SNMP_Automat>
    680e:	80 e0       	ldi	r24, 0x00	; 0
    6810:	0e 94 6b 1d 	call	0x3ad6	; 0x3ad6 <TEST_Automat>
    6814:	80 e0       	ldi	r24, 0x00	; 0
    6816:	89 dd       	rcall	.-1262   	; 0x632a <Modbus_TCP_Automat>
    6818:	80 91 63 05 	lds	r24, 0x0563
    681c:	cf 91       	pop	r28
    681e:	1f 91       	pop	r17
    6820:	0f 91       	pop	r16
    6822:	ff 90       	pop	r15
    6824:	ef 90       	pop	r14
    6826:	08 95       	ret

00006828 <resetEthernet>:
    6828:	80 e0       	ldi	r24, 0x00	; 0
    682a:	84 cf       	rjmp	.-248    	; 0x6734 <Ethernet_Automat>
    682c:	08 95       	ret

0000682e <SNMP_Automat>:
    682e:	cf 93       	push	r28
    6830:	c0 91 6a 05 	lds	r28, 0x056A
    6834:	88 23       	and	r24, r24
    6836:	41 f0       	breq	.+16     	; 0x6848 <SNMP_Automat+0x1a>
    6838:	c1 30       	cpi	r28, 0x01	; 1
    683a:	61 f0       	breq	.+24     	; 0x6854 <SNMP_Automat+0x26>
    683c:	28 f0       	brcs	.+10     	; 0x6848 <SNMP_Automat+0x1a>
    683e:	c2 30       	cpi	r28, 0x02	; 2
    6840:	a1 f0       	breq	.+40     	; 0x686a <SNMP_Automat+0x3c>
    6842:	c3 30       	cpi	r28, 0x03	; 3
    6844:	51 f1       	breq	.+84     	; 0x689a <SNMP_Automat+0x6c>
    6846:	32 c0       	rjmp	.+100    	; 0x68ac <SNMP_Automat+0x7e>
    6848:	81 e0       	ldi	r24, 0x01	; 1
    684a:	80 93 6a 05 	sts	0x056A, r24
    684e:	c1 30       	cpi	r28, 0x01	; 1
    6850:	b1 f5       	brne	.+108    	; 0x68be <SNMP_Automat+0x90>
    6852:	52 c0       	rjmp	.+164    	; 0x68f8 <SNMP_Automat+0xca>
    6854:	61 ea       	ldi	r22, 0xA1	; 161
    6856:	70 e0       	ldi	r23, 0x00	; 0
    6858:	81 e0       	ldi	r24, 0x01	; 1
    685a:	0e 94 0d 19 	call	0x321a	; 0x321a <UDPbegin1_Automat>
    685e:	8f 3f       	cpi	r24, 0xFF	; 255
    6860:	29 f5       	brne	.+74     	; 0x68ac <SNMP_Automat+0x7e>
    6862:	82 e0       	ldi	r24, 0x02	; 2
    6864:	80 93 6a 05 	sts	0x056A, r24
    6868:	47 c0       	rjmp	.+142    	; 0x68f8 <SNMP_Automat+0xca>
    686a:	63 e0       	ldi	r22, 0x03	; 3
    686c:	70 e0       	ldi	r23, 0x00	; 0
    686e:	81 e0       	ldi	r24, 0x01	; 1
    6870:	0e 94 8f 05 	call	0xb1e	; 0xb1e <readSn>
    6874:	82 32       	cpi	r24, 0x22	; 34
    6876:	09 f0       	breq	.+2      	; 0x687a <SNMP_Automat+0x4c>
    6878:	d7 df       	rcall	.-82     	; 0x6828 <resetEthernet>
    687a:	0e 94 5d 1c 	call	0x38ba	; 0x38ba <_UDPtoSerialSocket_parsePacket>
    687e:	89 2b       	or	r24, r25
    6880:	a9 f0       	breq	.+42     	; 0x68ac <SNMP_Automat+0x7e>
    6882:	80 91 af 08 	lds	r24, 0x08AF
    6886:	90 91 b0 08 	lds	r25, 0x08B0
    688a:	89 2b       	or	r24, r25
    688c:	79 f0       	breq	.+30     	; 0x68ac <SNMP_Automat+0x7e>
    688e:	0e 94 34 2c 	call	0x5868	; 0x5868 <pduReceived>
    6892:	83 e0       	ldi	r24, 0x03	; 3
    6894:	80 93 6a 05 	sts	0x056A, r24
    6898:	2c c0       	rjmp	.+88     	; 0x68f2 <SNMP_Automat+0xc4>
    689a:	81 e0       	ldi	r24, 0x01	; 1
    689c:	0e 94 d9 19 	call	0x33b2	; 0x33b2 <_UDPtoSerialSocket_endPacket_Automat>
    68a0:	8f 3f       	cpi	r24, 0xFF	; 255
    68a2:	21 f4       	brne	.+8      	; 0x68ac <SNMP_Automat+0x7e>
    68a4:	82 e0       	ldi	r24, 0x02	; 2
    68a6:	80 93 6a 05 	sts	0x056A, r24
    68aa:	26 c0       	rjmp	.+76     	; 0x68f8 <SNMP_Automat+0xca>
    68ac:	80 91 6a 05 	lds	r24, 0x056A
    68b0:	8c 17       	cp	r24, r28
    68b2:	11 f1       	breq	.+68     	; 0x68f8 <SNMP_Automat+0xca>
    68b4:	81 30       	cpi	r24, 0x01	; 1
    68b6:	19 f0       	breq	.+6      	; 0x68be <SNMP_Automat+0x90>
    68b8:	83 30       	cpi	r24, 0x03	; 3
    68ba:	d9 f0       	breq	.+54     	; 0x68f2 <SNMP_Automat+0xc4>
    68bc:	1d c0       	rjmp	.+58     	; 0x68f8 <SNMP_Automat+0xca>
    68be:	61 ea       	ldi	r22, 0xA1	; 161
    68c0:	70 e0       	ldi	r23, 0x00	; 0
    68c2:	80 e0       	ldi	r24, 0x00	; 0
    68c4:	0e 94 0d 19 	call	0x321a	; 0x321a <UDPbegin1_Automat>
    68c8:	82 ed       	ldi	r24, 0xD2	; 210
    68ca:	92 e0       	ldi	r25, 0x02	; 2
    68cc:	90 93 c1 07 	sts	0x07C1, r25
    68d0:	80 93 c0 07 	sts	0x07C0, r24
    68d4:	90 93 d2 0b 	sts	0x0BD2, r25
    68d8:	80 93 d1 0b 	sts	0x0BD1, r24
    68dc:	86 e0       	ldi	r24, 0x06	; 6
    68de:	90 e0       	ldi	r25, 0x00	; 0
    68e0:	90 93 b6 08 	sts	0x08B6, r25
    68e4:	80 93 b5 08 	sts	0x08B5, r24
    68e8:	90 93 80 08 	sts	0x0880, r25
    68ec:	80 93 7f 08 	sts	0x087F, r24
    68f0:	03 c0       	rjmp	.+6      	; 0x68f8 <SNMP_Automat+0xca>
    68f2:	80 e0       	ldi	r24, 0x00	; 0
    68f4:	0e 94 d9 19 	call	0x33b2	; 0x33b2 <_UDPtoSerialSocket_endPacket_Automat>
    68f8:	80 91 6a 05 	lds	r24, 0x056A
    68fc:	cf 91       	pop	r28
    68fe:	08 95       	ret

00006900 <LED_On>:
    6900:	a3 9a       	sbi	0x14, 3	; 20
    6902:	08 95       	ret

00006904 <MB_M_Init>:
    6904:	0f 93       	push	r16
    6906:	1f 93       	push	r17
    6908:	cf 93       	push	r28
    690a:	df 93       	push	r29
    690c:	c8 2f       	mov	r28, r24
    690e:	d0 e0       	ldi	r29, 0x00	; 0
    6910:	8e 01       	movw	r16, r28
    6912:	00 0f       	add	r16, r16
    6914:	11 1f       	adc	r17, r17
    6916:	00 0f       	add	r16, r16
    6918:	11 1f       	adc	r17, r17
    691a:	0c 0f       	add	r16, r28
    691c:	1d 1f       	adc	r17, r29
    691e:	c8 01       	movw	r24, r16
    6920:	80 50       	subi	r24, 0x00	; 0
    6922:	90 40       	sbci	r25, 0x00	; 0
    6924:	bd d3       	rcall	.+1914   	; 0x70a0 <__eerd_word_m2561>
    6926:	fe 01       	movw	r30, r28
    6928:	ee 0f       	add	r30, r30
    692a:	ff 1f       	adc	r31, r31
    692c:	eb 56       	subi	r30, 0x6B	; 107
    692e:	f7 4f       	sbci	r31, 0xF7	; 247
    6930:	91 83       	std	Z+1, r25	; 0x01
    6932:	80 83       	st	Z, r24
    6934:	c8 01       	movw	r24, r16
    6936:	8e 5f       	subi	r24, 0xFE	; 254
    6938:	9f 4f       	sbci	r25, 0xFF	; 255
    693a:	aa d3       	rcall	.+1876   	; 0x7090 <__eerd_byte_m2561>
    693c:	fe 01       	movw	r30, r28
    693e:	e1 52       	subi	r30, 0x21	; 33
    6940:	ff 4e       	sbci	r31, 0xEF	; 239
    6942:	80 83       	st	Z, r24
    6944:	c8 01       	movw	r24, r16
    6946:	8d 5f       	subi	r24, 0xFD	; 253
    6948:	9f 4f       	sbci	r25, 0xFF	; 255
    694a:	a2 d3       	rcall	.+1860   	; 0x7090 <__eerd_byte_m2561>
    694c:	fe 01       	movw	r30, r28
    694e:	e7 54       	subi	r30, 0x47	; 71
    6950:	f7 4f       	sbci	r31, 0xF7	; 247
    6952:	80 83       	st	Z, r24
    6954:	c8 01       	movw	r24, r16
    6956:	8c 5f       	subi	r24, 0xFC	; 252
    6958:	9f 4f       	sbci	r25, 0xFF	; 255
    695a:	9a d3       	rcall	.+1844   	; 0x7090 <__eerd_byte_m2561>
    695c:	cd 59       	subi	r28, 0x9D	; 157
    695e:	d7 4f       	sbci	r29, 0xF7	; 247
    6960:	88 83       	st	Y, r24
    6962:	80 91 95 08 	lds	r24, 0x0895
    6966:	90 91 96 08 	lds	r25, 0x0896
    696a:	0a 97       	sbiw	r24, 0x0a	; 10
    696c:	09 f4       	brne	.+2      	; 0x6970 <MB_M_Init+0x6c>
    696e:	c8 df       	rcall	.-112    	; 0x6900 <LED_On>
    6970:	80 91 c8 02 	lds	r24, 0x02C8
    6974:	93 e0       	ldi	r25, 0x03	; 3
    6976:	98 0f       	add	r25, r24
    6978:	90 93 c8 02 	sts	0x02C8, r25
    697c:	80 93 8b 05 	sts	0x058B, r24
    6980:	df 91       	pop	r29
    6982:	cf 91       	pop	r28
    6984:	1f 91       	pop	r17
    6986:	0f 91       	pop	r16
    6988:	08 95       	ret

0000698a <MB_Init>:
    698a:	0e 94 04 0c 	call	0x1808	; 0x1808 <MB_PLC_Init>
    698e:	10 92 81 07 	sts	0x0781, r1
    6992:	ee ee       	ldi	r30, 0xEE	; 238
    6994:	f4 e0       	ldi	r31, 0x04	; 4
    6996:	a5 91       	lpm	r26, Z+
    6998:	b4 91       	lpm	r27, Z
    699a:	8c ef       	ldi	r24, 0xFC	; 252
    699c:	8c 93       	st	X, r24
    699e:	e0 ef       	ldi	r30, 0xF0	; 240
    69a0:	f4 e0       	ldi	r31, 0x04	; 4
    69a2:	a5 91       	lpm	r26, Z+
    69a4:	b4 91       	lpm	r27, Z
    69a6:	88 e9       	ldi	r24, 0x98	; 152
    69a8:	8c 93       	st	X, r24
    69aa:	80 e0       	ldi	r24, 0x00	; 0
    69ac:	0e 94 a1 0c 	call	0x1942	; 0x1942 <SetParity>
    69b0:	80 e0       	ldi	r24, 0x00	; 0
    69b2:	0e 94 df 0c 	call	0x19be	; 0x19be <SetBAUD>
    69b6:	eb e2       	ldi	r30, 0x2B	; 43
    69b8:	f5 e0       	ldi	r31, 0x05	; 5
    69ba:	e4 91       	lpm	r30, Z
    69bc:	ee 23       	and	r30, r30
    69be:	19 f0       	breq	.+6      	; 0x69c6 <MB_Init+0x3c>
    69c0:	e1 30       	cpi	r30, 0x01	; 1
    69c2:	29 f0       	breq	.+10     	; 0x69ce <MB_Init+0x44>
    69c4:	06 c0       	rjmp	.+12     	; 0x69d2 <MB_Init+0x48>
    69c6:	80 e0       	ldi	r24, 0x00	; 0
    69c8:	0e 94 ad 13 	call	0x275a	; 0x275a <MB_S_Init>
    69cc:	02 c0       	rjmp	.+4      	; 0x69d2 <MB_Init+0x48>
    69ce:	80 e0       	ldi	r24, 0x00	; 0
    69d0:	99 df       	rcall	.-206    	; 0x6904 <MB_M_Init>
    69d2:	ee ed       	ldi	r30, 0xDE	; 222
    69d4:	f4 e0       	ldi	r31, 0x04	; 4
    69d6:	25 91       	lpm	r18, Z+
    69d8:	34 91       	lpm	r19, Z
    69da:	f9 01       	movw	r30, r18
    69dc:	19 95       	eicall
    69de:	08 95       	ret

000069e0 <LED_Cycle>:
}

void LED_Cycle(){
static uint8_t state = 0;
	if(Timer16Stopp(LED_Timer)){
    69e0:	80 91 c4 08 	lds	r24, 0x08C4
    69e4:	0e 94 92 09 	call	0x1324	; 0x1324 <Timer16Stopp>
    69e8:	88 23       	and	r24, r24
    69ea:	91 f0       	breq	.+36     	; 0x6a10 <LED_Cycle+0x30>
		StartTimer16(LED_Timer,100);
    69ec:	64 e6       	ldi	r22, 0x64	; 100
    69ee:	70 e0       	ldi	r23, 0x00	; 0
    69f0:	80 91 c4 08 	lds	r24, 0x08C4
    69f4:	0e 94 e6 07 	call	0xfcc	; 0xfcc <StartTimer16>
		if(state == 0){
    69f8:	80 91 62 05 	lds	r24, 0x0562
    69fc:	81 11       	cpse	r24, r1
    69fe:	05 c0       	rjmp	.+10     	; 0x6a0a <LED_Cycle+0x2a>
				PORTB|=1<<PB7;
    6a00:	2f 9a       	sbi	0x05, 7	; 5
				//PORTG&=~(1<<PG3);
				state = 1;
    6a02:	81 e0       	ldi	r24, 0x01	; 1
    6a04:	80 93 62 05 	sts	0x0562, r24
    6a08:	08 95       	ret
		}
		else{
				PORTB&=~(1<<PB7);
    6a0a:	2f 98       	cbi	0x05, 7	; 5
				//PORTG|=1<<PG3;
				state = 0;
    6a0c:	10 92 62 05 	sts	0x0562, r1
    6a10:	08 95       	ret

00006a12 <sysInit>:
	}
};

void sysInit(){
	//  
	DDRB|=1<<PB7;
    6a12:	27 9a       	sbi	0x04, 7	; 4
	DDRG|=1<<PG3;
    6a14:	9b 9a       	sbi	0x13, 3	; 19
	// SPI
	SPCR |=(1<<SPE)|(1<<MSTR);
    6a16:	8c b5       	in	r24, 0x2c	; 44
    6a18:	80 65       	ori	r24, 0x50	; 80
    6a1a:	8c bd       	out	0x2c, r24	; 44
	SPSR = (0<<SPI2X);
    6a1c:	1d bc       	out	0x2d, r1	; 45
	SPI_DDR|=1<<SCK_PIN;
    6a1e:	21 9a       	sbi	0x04, 1	; 4
	SPI_DDR|=1<<MOSI_PIN;
    6a20:	22 9a       	sbi	0x04, 2	; 4
	SPI_DDR&=~(1<<MISO_PIN);
    6a22:	23 98       	cbi	0x04, 3	; 4
	SPI_DDR|=1<<SS_PIN;
    6a24:	20 9a       	sbi	0x04, 0	; 4
	SPI_PORT|=1<<SS_PIN;
    6a26:	28 9a       	sbi	0x05, 0	; 5
	TimeInit();
    6a28:	0e 94 e6 09 	call	0x13cc	; 0x13cc <TimeInit>
	myMillisTimer = Timer32Alloc();
    6a2c:	0e 94 a7 07 	call	0xf4e	; 0xf4e <Timer32Alloc>
    6a30:	80 93 ac 08 	sts	0x08AC, r24
	StartTimer32(myMillisTimer,1000000);
    6a34:	40 e4       	ldi	r20, 0x40	; 64
    6a36:	52 e4       	ldi	r21, 0x42	; 66
    6a38:	6f e0       	ldi	r22, 0x0F	; 15
    6a3a:	70 e0       	ldi	r23, 0x00	; 0
    6a3c:	0e 94 4a 09 	call	0x1294	; 0x1294 <StartTimer32>
	TimersInc();
    6a40:	0e 94 89 0a 	call	0x1512	; 0x1512 <TimersInc>

// ~~~~~~~~~~~~~
void
USART_Init(void)
{
	MB_Init();
    6a44:	a2 cf       	rjmp	.-188    	; 0x698a <MB_Init>
    6a46:	08 95       	ret

00006a48 <sysCycle>:
	#ifdef MODBUS
		USART_Init();
	#endif
}
void sysCycle(){
TimersInc();
    6a48:	0e 94 89 0a 	call	0x1512	; 0x1512 <TimersInc>
TimeCycle();
    6a4c:	0c 94 6f 0b 	jmp	0x16de	; 0x16de <TimeCycle>
    6a50:	08 95       	ret

00006a52 <main>:
}


int main(void)
{
	sysInit();
    6a52:	df df       	rcall	.-66     	; 0x6a12 <sysInit>
	TimeCycle();
    6a54:	0e 94 6f 0b 	call	0x16de	; 0x16de <TimeCycle>
    W5100_init();
    6a58:	0e 94 56 04 	call	0x8ac	; 0x8ac <W5100_init>
	TimeCycle();
    6a5c:	0e 94 6f 0b 	call	0x16de	; 0x16de <TimeCycle>
	Ethernet_Automat(0);
    6a60:	80 e0       	ldi	r24, 0x00	; 0
    6a62:	68 de       	rcall	.-816    	; 0x6734 <Ethernet_Automat>
	#else
		//round up by default
		__ticks_dc = (uint32_t)(ceil(fabs(__tmp)));
	#endif

	__builtin_avr_delay_cycles(__ticks_dc);
    6a64:	8f e3       	ldi	r24, 0x3F	; 63
    6a66:	9c e9       	ldi	r25, 0x9C	; 156
    6a68:	01 97       	sbiw	r24, 0x01	; 1
    6a6a:	f1 f7       	brne	.-4      	; 0x6a68 <main+0x16>
    6a6c:	00 c0       	rjmp	.+0      	; 0x6a6e <main+0x1c>
    6a6e:	00 00       	nop
    while (1) 
    {
	_delay_ms(10);
		sysCycle();
    6a70:	eb df       	rcall	.-42     	; 0x6a48 <sysCycle>
		LED_Cycle();
    6a72:	b6 df       	rcall	.-148    	; 0x69e0 <LED_Cycle>
		Ethernet_Automat(1);
    6a74:	81 e0       	ldi	r24, 0x01	; 1
    6a76:	5e de       	rcall	.-836    	; 0x6734 <Ethernet_Automat>
};
// ~~~~~~~~~~~~~~
void
USART_Cycle(void)
{
	MB_Cycle();
    6a78:	0e 94 a1 17 	call	0x2f42	; 0x2f42 <MB_Cycle>
    6a7c:	f3 cf       	rjmp	.-26     	; 0x6a64 <main+0x12>

00006a7e <__udivmodsi4>:
    6a7e:	a1 e2       	ldi	r26, 0x21	; 33
    6a80:	1a 2e       	mov	r1, r26
    6a82:	aa 1b       	sub	r26, r26
    6a84:	bb 1b       	sub	r27, r27
    6a86:	fd 01       	movw	r30, r26
    6a88:	0d c0       	rjmp	.+26     	; 0x6aa4 <__udivmodsi4_ep>

00006a8a <__udivmodsi4_loop>:
    6a8a:	aa 1f       	adc	r26, r26
    6a8c:	bb 1f       	adc	r27, r27
    6a8e:	ee 1f       	adc	r30, r30
    6a90:	ff 1f       	adc	r31, r31
    6a92:	a2 17       	cp	r26, r18
    6a94:	b3 07       	cpc	r27, r19
    6a96:	e4 07       	cpc	r30, r20
    6a98:	f5 07       	cpc	r31, r21
    6a9a:	20 f0       	brcs	.+8      	; 0x6aa4 <__udivmodsi4_ep>
    6a9c:	a2 1b       	sub	r26, r18
    6a9e:	b3 0b       	sbc	r27, r19
    6aa0:	e4 0b       	sbc	r30, r20
    6aa2:	f5 0b       	sbc	r31, r21

00006aa4 <__udivmodsi4_ep>:
    6aa4:	66 1f       	adc	r22, r22
    6aa6:	77 1f       	adc	r23, r23
    6aa8:	88 1f       	adc	r24, r24
    6aaa:	99 1f       	adc	r25, r25
    6aac:	1a 94       	dec	r1
    6aae:	69 f7       	brne	.-38     	; 0x6a8a <__udivmodsi4_loop>
    6ab0:	60 95       	com	r22
    6ab2:	70 95       	com	r23
    6ab4:	80 95       	com	r24
    6ab6:	90 95       	com	r25
    6ab8:	9b 01       	movw	r18, r22
    6aba:	ac 01       	movw	r20, r24
    6abc:	bd 01       	movw	r22, r26
    6abe:	cf 01       	movw	r24, r30
    6ac0:	08 95       	ret

00006ac2 <__divmodsi4>:
    6ac2:	05 2e       	mov	r0, r21
    6ac4:	97 fb       	bst	r25, 7
    6ac6:	16 f4       	brtc	.+4      	; 0x6acc <__divmodsi4+0xa>
    6ac8:	00 94       	com	r0
    6aca:	0f d0       	rcall	.+30     	; 0x6aea <__negsi2>
    6acc:	57 fd       	sbrc	r21, 7
    6ace:	05 d0       	rcall	.+10     	; 0x6ada <__divmodsi4_neg2>
    6ad0:	d6 df       	rcall	.-84     	; 0x6a7e <__udivmodsi4>
    6ad2:	07 fc       	sbrc	r0, 7
    6ad4:	02 d0       	rcall	.+4      	; 0x6ada <__divmodsi4_neg2>
    6ad6:	46 f4       	brtc	.+16     	; 0x6ae8 <__divmodsi4_exit>
    6ad8:	08 c0       	rjmp	.+16     	; 0x6aea <__negsi2>

00006ada <__divmodsi4_neg2>:
    6ada:	50 95       	com	r21
    6adc:	40 95       	com	r20
    6ade:	30 95       	com	r19
    6ae0:	21 95       	neg	r18
    6ae2:	3f 4f       	sbci	r19, 0xFF	; 255
    6ae4:	4f 4f       	sbci	r20, 0xFF	; 255
    6ae6:	5f 4f       	sbci	r21, 0xFF	; 255

00006ae8 <__divmodsi4_exit>:
    6ae8:	08 95       	ret

00006aea <__negsi2>:
    6aea:	90 95       	com	r25
    6aec:	80 95       	com	r24
    6aee:	70 95       	com	r23
    6af0:	61 95       	neg	r22
    6af2:	7f 4f       	sbci	r23, 0xFF	; 255
    6af4:	8f 4f       	sbci	r24, 0xFF	; 255
    6af6:	9f 4f       	sbci	r25, 0xFF	; 255
    6af8:	08 95       	ret

00006afa <__tablejump2__>:
    6afa:	ee 0f       	add	r30, r30
    6afc:	ff 1f       	adc	r31, r31

00006afe <__tablejump__>:
    6afe:	05 90       	lpm	r0, Z+
    6b00:	f4 91       	lpm	r31, Z
    6b02:	e0 2d       	mov	r30, r0
    6b04:	19 94       	eijmp

00006b06 <do_random>:
    6b06:	8f 92       	push	r8
    6b08:	9f 92       	push	r9
    6b0a:	af 92       	push	r10
    6b0c:	bf 92       	push	r11
    6b0e:	cf 92       	push	r12
    6b10:	df 92       	push	r13
    6b12:	ef 92       	push	r14
    6b14:	ff 92       	push	r15
    6b16:	cf 93       	push	r28
    6b18:	df 93       	push	r29
    6b1a:	ec 01       	movw	r28, r24
    6b1c:	68 81       	ld	r22, Y
    6b1e:	79 81       	ldd	r23, Y+1	; 0x01
    6b20:	8a 81       	ldd	r24, Y+2	; 0x02
    6b22:	9b 81       	ldd	r25, Y+3	; 0x03
    6b24:	61 15       	cp	r22, r1
    6b26:	71 05       	cpc	r23, r1
    6b28:	81 05       	cpc	r24, r1
    6b2a:	91 05       	cpc	r25, r1
    6b2c:	21 f4       	brne	.+8      	; 0x6b36 <do_random+0x30>
    6b2e:	64 e2       	ldi	r22, 0x24	; 36
    6b30:	79 ed       	ldi	r23, 0xD9	; 217
    6b32:	8b e5       	ldi	r24, 0x5B	; 91
    6b34:	97 e0       	ldi	r25, 0x07	; 7
    6b36:	2d e1       	ldi	r18, 0x1D	; 29
    6b38:	33 ef       	ldi	r19, 0xF3	; 243
    6b3a:	41 e0       	ldi	r20, 0x01	; 1
    6b3c:	50 e0       	ldi	r21, 0x00	; 0
    6b3e:	c1 df       	rcall	.-126    	; 0x6ac2 <__divmodsi4>
    6b40:	49 01       	movw	r8, r18
    6b42:	5a 01       	movw	r10, r20
    6b44:	9b 01       	movw	r18, r22
    6b46:	ac 01       	movw	r20, r24
    6b48:	a7 ea       	ldi	r26, 0xA7	; 167
    6b4a:	b1 e4       	ldi	r27, 0x41	; 65
    6b4c:	75 d3       	rcall	.+1770   	; 0x7238 <__muluhisi3>
    6b4e:	6b 01       	movw	r12, r22
    6b50:	7c 01       	movw	r14, r24
    6b52:	ac ee       	ldi	r26, 0xEC	; 236
    6b54:	b4 ef       	ldi	r27, 0xF4	; 244
    6b56:	a5 01       	movw	r20, r10
    6b58:	94 01       	movw	r18, r8
    6b5a:	7a d3       	rcall	.+1780   	; 0x7250 <__mulohisi3>
    6b5c:	c6 0e       	add	r12, r22
    6b5e:	d7 1e       	adc	r13, r23
    6b60:	e8 1e       	adc	r14, r24
    6b62:	f9 1e       	adc	r15, r25
    6b64:	f7 fe       	sbrs	r15, 7
    6b66:	06 c0       	rjmp	.+12     	; 0x6b74 <do_random+0x6e>
    6b68:	81 e0       	ldi	r24, 0x01	; 1
    6b6a:	c8 1a       	sub	r12, r24
    6b6c:	d1 08       	sbc	r13, r1
    6b6e:	e1 08       	sbc	r14, r1
    6b70:	80 e8       	ldi	r24, 0x80	; 128
    6b72:	f8 0a       	sbc	r15, r24
    6b74:	c8 82       	st	Y, r12
    6b76:	d9 82       	std	Y+1, r13	; 0x01
    6b78:	ea 82       	std	Y+2, r14	; 0x02
    6b7a:	fb 82       	std	Y+3, r15	; 0x03
    6b7c:	c7 01       	movw	r24, r14
    6b7e:	b6 01       	movw	r22, r12
    6b80:	9f 77       	andi	r25, 0x7F	; 127
    6b82:	df 91       	pop	r29
    6b84:	cf 91       	pop	r28
    6b86:	ff 90       	pop	r15
    6b88:	ef 90       	pop	r14
    6b8a:	df 90       	pop	r13
    6b8c:	cf 90       	pop	r12
    6b8e:	bf 90       	pop	r11
    6b90:	af 90       	pop	r10
    6b92:	9f 90       	pop	r9
    6b94:	8f 90       	pop	r8
    6b96:	08 95       	ret

00006b98 <random_r>:
    6b98:	b6 cf       	rjmp	.-148    	; 0x6b06 <do_random>

00006b9a <random>:
    6b9a:	80 e0       	ldi	r24, 0x00	; 0
    6b9c:	92 e0       	ldi	r25, 0x02	; 2
    6b9e:	b3 cf       	rjmp	.-154    	; 0x6b06 <do_random>

00006ba0 <srandom>:
    6ba0:	60 93 00 02 	sts	0x0200, r22
    6ba4:	70 93 01 02 	sts	0x0201, r23
    6ba8:	80 93 02 02 	sts	0x0202, r24
    6bac:	90 93 03 02 	sts	0x0203, r25
    6bb0:	08 95       	ret

00006bb2 <strcmp_P>:
    6bb2:	fb 01       	movw	r30, r22
    6bb4:	dc 01       	movw	r26, r24
    6bb6:	8d 91       	ld	r24, X+
    6bb8:	05 90       	lpm	r0, Z+
    6bba:	80 19       	sub	r24, r0
    6bbc:	01 10       	cpse	r0, r1
    6bbe:	d9 f3       	breq	.-10     	; 0x6bb6 <strcmp_P+0x4>
    6bc0:	99 0b       	sbc	r25, r25
    6bc2:	08 95       	ret

00006bc4 <memcmp>:
    6bc4:	fb 01       	movw	r30, r22
    6bc6:	dc 01       	movw	r26, r24
    6bc8:	04 c0       	rjmp	.+8      	; 0x6bd2 <memcmp+0xe>
    6bca:	8d 91       	ld	r24, X+
    6bcc:	01 90       	ld	r0, Z+
    6bce:	80 19       	sub	r24, r0
    6bd0:	21 f4       	brne	.+8      	; 0x6bda <memcmp+0x16>
    6bd2:	41 50       	subi	r20, 0x01	; 1
    6bd4:	50 40       	sbci	r21, 0x00	; 0
    6bd6:	c8 f7       	brcc	.-14     	; 0x6bca <memcmp+0x6>
    6bd8:	88 1b       	sub	r24, r24
    6bda:	99 0b       	sbc	r25, r25
    6bdc:	08 95       	ret

00006bde <strcat>:
    6bde:	fb 01       	movw	r30, r22
    6be0:	dc 01       	movw	r26, r24
    6be2:	0d 90       	ld	r0, X+
    6be4:	00 20       	and	r0, r0
    6be6:	e9 f7       	brne	.-6      	; 0x6be2 <strcat+0x4>
    6be8:	11 97       	sbiw	r26, 0x01	; 1
    6bea:	01 90       	ld	r0, Z+
    6bec:	0d 92       	st	X+, r0
    6bee:	00 20       	and	r0, r0
    6bf0:	e1 f7       	brne	.-8      	; 0x6bea <strcat+0xc>
    6bf2:	08 95       	ret

00006bf4 <strcmp>:
    6bf4:	fb 01       	movw	r30, r22
    6bf6:	dc 01       	movw	r26, r24
    6bf8:	8d 91       	ld	r24, X+
    6bfa:	01 90       	ld	r0, Z+
    6bfc:	80 19       	sub	r24, r0
    6bfe:	01 10       	cpse	r0, r1
    6c00:	d9 f3       	breq	.-10     	; 0x6bf8 <strcmp+0x4>
    6c02:	99 0b       	sbc	r25, r25
    6c04:	08 95       	ret

00006c06 <__utoa_ncheck>:
    6c06:	bb 27       	eor	r27, r27

00006c08 <__utoa_common>:
    6c08:	fb 01       	movw	r30, r22
    6c0a:	55 27       	eor	r21, r21
    6c0c:	aa 27       	eor	r26, r26
    6c0e:	88 0f       	add	r24, r24
    6c10:	99 1f       	adc	r25, r25
    6c12:	aa 1f       	adc	r26, r26
    6c14:	a4 17       	cp	r26, r20
    6c16:	10 f0       	brcs	.+4      	; 0x6c1c <__utoa_common+0x14>
    6c18:	a4 1b       	sub	r26, r20
    6c1a:	83 95       	inc	r24
    6c1c:	50 51       	subi	r21, 0x10	; 16
    6c1e:	b9 f7       	brne	.-18     	; 0x6c0e <__utoa_common+0x6>
    6c20:	a0 5d       	subi	r26, 0xD0	; 208
    6c22:	aa 33       	cpi	r26, 0x3A	; 58
    6c24:	08 f0       	brcs	.+2      	; 0x6c28 <__utoa_common+0x20>
    6c26:	a9 5d       	subi	r26, 0xD9	; 217
    6c28:	a1 93       	st	Z+, r26
    6c2a:	00 97       	sbiw	r24, 0x00	; 0
    6c2c:	79 f7       	brne	.-34     	; 0x6c0c <__utoa_common+0x4>
    6c2e:	b1 11       	cpse	r27, r1
    6c30:	b1 93       	st	Z+, r27
    6c32:	11 92       	st	Z+, r1
    6c34:	cb 01       	movw	r24, r22
    6c36:	60 c2       	rjmp	.+1216   	; 0x70f8 <strrev>

00006c38 <sprintf>:
    6c38:	0f 93       	push	r16
    6c3a:	1f 93       	push	r17
    6c3c:	cf 93       	push	r28
    6c3e:	df 93       	push	r29
    6c40:	cd b7       	in	r28, 0x3d	; 61
    6c42:	de b7       	in	r29, 0x3e	; 62
    6c44:	2e 97       	sbiw	r28, 0x0e	; 14
    6c46:	0f b6       	in	r0, 0x3f	; 63
    6c48:	f8 94       	cli
    6c4a:	de bf       	out	0x3e, r29	; 62
    6c4c:	0f be       	out	0x3f, r0	; 63
    6c4e:	cd bf       	out	0x3d, r28	; 61
    6c50:	0e 89       	ldd	r16, Y+22	; 0x16
    6c52:	1f 89       	ldd	r17, Y+23	; 0x17
    6c54:	86 e0       	ldi	r24, 0x06	; 6
    6c56:	8c 83       	std	Y+4, r24	; 0x04
    6c58:	1a 83       	std	Y+2, r17	; 0x02
    6c5a:	09 83       	std	Y+1, r16	; 0x01
    6c5c:	8f ef       	ldi	r24, 0xFF	; 255
    6c5e:	9f e7       	ldi	r25, 0x7F	; 127
    6c60:	9e 83       	std	Y+6, r25	; 0x06
    6c62:	8d 83       	std	Y+5, r24	; 0x05
    6c64:	ae 01       	movw	r20, r28
    6c66:	46 5e       	subi	r20, 0xE6	; 230
    6c68:	5f 4f       	sbci	r21, 0xFF	; 255
    6c6a:	68 8d       	ldd	r22, Y+24	; 0x18
    6c6c:	79 8d       	ldd	r23, Y+25	; 0x19
    6c6e:	ce 01       	movw	r24, r28
    6c70:	01 96       	adiw	r24, 0x01	; 1
    6c72:	10 d0       	rcall	.+32     	; 0x6c94 <vfprintf>
    6c74:	ef 81       	ldd	r30, Y+7	; 0x07
    6c76:	f8 85       	ldd	r31, Y+8	; 0x08
    6c78:	e0 0f       	add	r30, r16
    6c7a:	f1 1f       	adc	r31, r17
    6c7c:	10 82       	st	Z, r1
    6c7e:	2e 96       	adiw	r28, 0x0e	; 14
    6c80:	0f b6       	in	r0, 0x3f	; 63
    6c82:	f8 94       	cli
    6c84:	de bf       	out	0x3e, r29	; 62
    6c86:	0f be       	out	0x3f, r0	; 63
    6c88:	cd bf       	out	0x3d, r28	; 61
    6c8a:	df 91       	pop	r29
    6c8c:	cf 91       	pop	r28
    6c8e:	1f 91       	pop	r17
    6c90:	0f 91       	pop	r16
    6c92:	08 95       	ret

00006c94 <vfprintf>:
    6c94:	2f 92       	push	r2
    6c96:	3f 92       	push	r3
    6c98:	4f 92       	push	r4
    6c9a:	5f 92       	push	r5
    6c9c:	6f 92       	push	r6
    6c9e:	7f 92       	push	r7
    6ca0:	8f 92       	push	r8
    6ca2:	9f 92       	push	r9
    6ca4:	af 92       	push	r10
    6ca6:	bf 92       	push	r11
    6ca8:	cf 92       	push	r12
    6caa:	df 92       	push	r13
    6cac:	ef 92       	push	r14
    6cae:	ff 92       	push	r15
    6cb0:	0f 93       	push	r16
    6cb2:	1f 93       	push	r17
    6cb4:	cf 93       	push	r28
    6cb6:	df 93       	push	r29
    6cb8:	cd b7       	in	r28, 0x3d	; 61
    6cba:	de b7       	in	r29, 0x3e	; 62
    6cbc:	2c 97       	sbiw	r28, 0x0c	; 12
    6cbe:	0f b6       	in	r0, 0x3f	; 63
    6cc0:	f8 94       	cli
    6cc2:	de bf       	out	0x3e, r29	; 62
    6cc4:	0f be       	out	0x3f, r0	; 63
    6cc6:	cd bf       	out	0x3d, r28	; 61
    6cc8:	7c 01       	movw	r14, r24
    6cca:	6b 01       	movw	r12, r22
    6ccc:	8a 01       	movw	r16, r20
    6cce:	fc 01       	movw	r30, r24
    6cd0:	17 82       	std	Z+7, r1	; 0x07
    6cd2:	16 82       	std	Z+6, r1	; 0x06
    6cd4:	83 81       	ldd	r24, Z+3	; 0x03
    6cd6:	81 ff       	sbrs	r24, 1
    6cd8:	b0 c1       	rjmp	.+864    	; 0x703a <vfprintf+0x3a6>
    6cda:	ce 01       	movw	r24, r28
    6cdc:	01 96       	adiw	r24, 0x01	; 1
    6cde:	4c 01       	movw	r8, r24
    6ce0:	f7 01       	movw	r30, r14
    6ce2:	93 81       	ldd	r25, Z+3	; 0x03
    6ce4:	f6 01       	movw	r30, r12
    6ce6:	93 fd       	sbrc	r25, 3
    6ce8:	85 91       	lpm	r24, Z+
    6cea:	93 ff       	sbrs	r25, 3
    6cec:	81 91       	ld	r24, Z+
    6cee:	6f 01       	movw	r12, r30
    6cf0:	88 23       	and	r24, r24
    6cf2:	09 f4       	brne	.+2      	; 0x6cf6 <vfprintf+0x62>
    6cf4:	9e c1       	rjmp	.+828    	; 0x7032 <vfprintf+0x39e>
    6cf6:	85 32       	cpi	r24, 0x25	; 37
    6cf8:	39 f4       	brne	.+14     	; 0x6d08 <vfprintf+0x74>
    6cfa:	93 fd       	sbrc	r25, 3
    6cfc:	85 91       	lpm	r24, Z+
    6cfe:	93 ff       	sbrs	r25, 3
    6d00:	81 91       	ld	r24, Z+
    6d02:	6f 01       	movw	r12, r30
    6d04:	85 32       	cpi	r24, 0x25	; 37
    6d06:	21 f4       	brne	.+8      	; 0x6d10 <vfprintf+0x7c>
    6d08:	b7 01       	movw	r22, r14
    6d0a:	90 e0       	ldi	r25, 0x00	; 0
    6d0c:	05 d2       	rcall	.+1034   	; 0x7118 <fputc>
    6d0e:	e8 cf       	rjmp	.-48     	; 0x6ce0 <vfprintf+0x4c>
    6d10:	51 2c       	mov	r5, r1
    6d12:	31 2c       	mov	r3, r1
    6d14:	20 e0       	ldi	r18, 0x00	; 0
    6d16:	20 32       	cpi	r18, 0x20	; 32
    6d18:	a0 f4       	brcc	.+40     	; 0x6d42 <vfprintf+0xae>
    6d1a:	8b 32       	cpi	r24, 0x2B	; 43
    6d1c:	69 f0       	breq	.+26     	; 0x6d38 <vfprintf+0xa4>
    6d1e:	30 f4       	brcc	.+12     	; 0x6d2c <vfprintf+0x98>
    6d20:	80 32       	cpi	r24, 0x20	; 32
    6d22:	59 f0       	breq	.+22     	; 0x6d3a <vfprintf+0xa6>
    6d24:	83 32       	cpi	r24, 0x23	; 35
    6d26:	69 f4       	brne	.+26     	; 0x6d42 <vfprintf+0xae>
    6d28:	20 61       	ori	r18, 0x10	; 16
    6d2a:	2c c0       	rjmp	.+88     	; 0x6d84 <vfprintf+0xf0>
    6d2c:	8d 32       	cpi	r24, 0x2D	; 45
    6d2e:	39 f0       	breq	.+14     	; 0x6d3e <vfprintf+0xaa>
    6d30:	80 33       	cpi	r24, 0x30	; 48
    6d32:	39 f4       	brne	.+14     	; 0x6d42 <vfprintf+0xae>
    6d34:	21 60       	ori	r18, 0x01	; 1
    6d36:	26 c0       	rjmp	.+76     	; 0x6d84 <vfprintf+0xf0>
    6d38:	22 60       	ori	r18, 0x02	; 2
    6d3a:	24 60       	ori	r18, 0x04	; 4
    6d3c:	23 c0       	rjmp	.+70     	; 0x6d84 <vfprintf+0xf0>
    6d3e:	28 60       	ori	r18, 0x08	; 8
    6d40:	21 c0       	rjmp	.+66     	; 0x6d84 <vfprintf+0xf0>
    6d42:	27 fd       	sbrc	r18, 7
    6d44:	27 c0       	rjmp	.+78     	; 0x6d94 <vfprintf+0x100>
    6d46:	30 ed       	ldi	r19, 0xD0	; 208
    6d48:	38 0f       	add	r19, r24
    6d4a:	3a 30       	cpi	r19, 0x0A	; 10
    6d4c:	78 f4       	brcc	.+30     	; 0x6d6c <vfprintf+0xd8>
    6d4e:	26 ff       	sbrs	r18, 6
    6d50:	06 c0       	rjmp	.+12     	; 0x6d5e <vfprintf+0xca>
    6d52:	fa e0       	ldi	r31, 0x0A	; 10
    6d54:	5f 9e       	mul	r5, r31
    6d56:	30 0d       	add	r19, r0
    6d58:	11 24       	eor	r1, r1
    6d5a:	53 2e       	mov	r5, r19
    6d5c:	13 c0       	rjmp	.+38     	; 0x6d84 <vfprintf+0xf0>
    6d5e:	8a e0       	ldi	r24, 0x0A	; 10
    6d60:	38 9e       	mul	r3, r24
    6d62:	30 0d       	add	r19, r0
    6d64:	11 24       	eor	r1, r1
    6d66:	33 2e       	mov	r3, r19
    6d68:	20 62       	ori	r18, 0x20	; 32
    6d6a:	0c c0       	rjmp	.+24     	; 0x6d84 <vfprintf+0xf0>
    6d6c:	8e 32       	cpi	r24, 0x2E	; 46
    6d6e:	21 f4       	brne	.+8      	; 0x6d78 <vfprintf+0xe4>
    6d70:	26 fd       	sbrc	r18, 6
    6d72:	5f c1       	rjmp	.+702    	; 0x7032 <vfprintf+0x39e>
    6d74:	20 64       	ori	r18, 0x40	; 64
    6d76:	06 c0       	rjmp	.+12     	; 0x6d84 <vfprintf+0xf0>
    6d78:	8c 36       	cpi	r24, 0x6C	; 108
    6d7a:	11 f4       	brne	.+4      	; 0x6d80 <vfprintf+0xec>
    6d7c:	20 68       	ori	r18, 0x80	; 128
    6d7e:	02 c0       	rjmp	.+4      	; 0x6d84 <vfprintf+0xf0>
    6d80:	88 36       	cpi	r24, 0x68	; 104
    6d82:	41 f4       	brne	.+16     	; 0x6d94 <vfprintf+0x100>
    6d84:	f6 01       	movw	r30, r12
    6d86:	93 fd       	sbrc	r25, 3
    6d88:	85 91       	lpm	r24, Z+
    6d8a:	93 ff       	sbrs	r25, 3
    6d8c:	81 91       	ld	r24, Z+
    6d8e:	6f 01       	movw	r12, r30
    6d90:	81 11       	cpse	r24, r1
    6d92:	c1 cf       	rjmp	.-126    	; 0x6d16 <vfprintf+0x82>
    6d94:	98 2f       	mov	r25, r24
    6d96:	9f 7d       	andi	r25, 0xDF	; 223
    6d98:	95 54       	subi	r25, 0x45	; 69
    6d9a:	93 30       	cpi	r25, 0x03	; 3
    6d9c:	28 f4       	brcc	.+10     	; 0x6da8 <vfprintf+0x114>
    6d9e:	0c 5f       	subi	r16, 0xFC	; 252
    6da0:	1f 4f       	sbci	r17, 0xFF	; 255
    6da2:	ff e3       	ldi	r31, 0x3F	; 63
    6da4:	f9 83       	std	Y+1, r31	; 0x01
    6da6:	0d c0       	rjmp	.+26     	; 0x6dc2 <vfprintf+0x12e>
    6da8:	83 36       	cpi	r24, 0x63	; 99
    6daa:	31 f0       	breq	.+12     	; 0x6db8 <vfprintf+0x124>
    6dac:	83 37       	cpi	r24, 0x73	; 115
    6dae:	71 f0       	breq	.+28     	; 0x6dcc <vfprintf+0x138>
    6db0:	83 35       	cpi	r24, 0x53	; 83
    6db2:	09 f0       	breq	.+2      	; 0x6db6 <vfprintf+0x122>
    6db4:	57 c0       	rjmp	.+174    	; 0x6e64 <vfprintf+0x1d0>
    6db6:	21 c0       	rjmp	.+66     	; 0x6dfa <vfprintf+0x166>
    6db8:	f8 01       	movw	r30, r16
    6dba:	80 81       	ld	r24, Z
    6dbc:	89 83       	std	Y+1, r24	; 0x01
    6dbe:	0e 5f       	subi	r16, 0xFE	; 254
    6dc0:	1f 4f       	sbci	r17, 0xFF	; 255
    6dc2:	44 24       	eor	r4, r4
    6dc4:	43 94       	inc	r4
    6dc6:	51 2c       	mov	r5, r1
    6dc8:	54 01       	movw	r10, r8
    6dca:	14 c0       	rjmp	.+40     	; 0x6df4 <vfprintf+0x160>
    6dcc:	38 01       	movw	r6, r16
    6dce:	f2 e0       	ldi	r31, 0x02	; 2
    6dd0:	6f 0e       	add	r6, r31
    6dd2:	71 1c       	adc	r7, r1
    6dd4:	f8 01       	movw	r30, r16
    6dd6:	a0 80       	ld	r10, Z
    6dd8:	b1 80       	ldd	r11, Z+1	; 0x01
    6dda:	26 ff       	sbrs	r18, 6
    6ddc:	03 c0       	rjmp	.+6      	; 0x6de4 <vfprintf+0x150>
    6dde:	65 2d       	mov	r22, r5
    6de0:	70 e0       	ldi	r23, 0x00	; 0
    6de2:	02 c0       	rjmp	.+4      	; 0x6de8 <vfprintf+0x154>
    6de4:	6f ef       	ldi	r22, 0xFF	; 255
    6de6:	7f ef       	ldi	r23, 0xFF	; 255
    6de8:	c5 01       	movw	r24, r10
    6dea:	2c 87       	std	Y+12, r18	; 0x0c
    6dec:	7a d1       	rcall	.+756    	; 0x70e2 <strnlen>
    6dee:	2c 01       	movw	r4, r24
    6df0:	83 01       	movw	r16, r6
    6df2:	2c 85       	ldd	r18, Y+12	; 0x0c
    6df4:	2f 77       	andi	r18, 0x7F	; 127
    6df6:	22 2e       	mov	r2, r18
    6df8:	16 c0       	rjmp	.+44     	; 0x6e26 <vfprintf+0x192>
    6dfa:	38 01       	movw	r6, r16
    6dfc:	f2 e0       	ldi	r31, 0x02	; 2
    6dfe:	6f 0e       	add	r6, r31
    6e00:	71 1c       	adc	r7, r1
    6e02:	f8 01       	movw	r30, r16
    6e04:	a0 80       	ld	r10, Z
    6e06:	b1 80       	ldd	r11, Z+1	; 0x01
    6e08:	26 ff       	sbrs	r18, 6
    6e0a:	03 c0       	rjmp	.+6      	; 0x6e12 <vfprintf+0x17e>
    6e0c:	65 2d       	mov	r22, r5
    6e0e:	70 e0       	ldi	r23, 0x00	; 0
    6e10:	02 c0       	rjmp	.+4      	; 0x6e16 <vfprintf+0x182>
    6e12:	6f ef       	ldi	r22, 0xFF	; 255
    6e14:	7f ef       	ldi	r23, 0xFF	; 255
    6e16:	c5 01       	movw	r24, r10
    6e18:	2c 87       	std	Y+12, r18	; 0x0c
    6e1a:	58 d1       	rcall	.+688    	; 0x70cc <strnlen_P>
    6e1c:	2c 01       	movw	r4, r24
    6e1e:	2c 85       	ldd	r18, Y+12	; 0x0c
    6e20:	20 68       	ori	r18, 0x80	; 128
    6e22:	22 2e       	mov	r2, r18
    6e24:	83 01       	movw	r16, r6
    6e26:	23 fc       	sbrc	r2, 3
    6e28:	19 c0       	rjmp	.+50     	; 0x6e5c <vfprintf+0x1c8>
    6e2a:	83 2d       	mov	r24, r3
    6e2c:	90 e0       	ldi	r25, 0x00	; 0
    6e2e:	48 16       	cp	r4, r24
    6e30:	59 06       	cpc	r5, r25
    6e32:	a0 f4       	brcc	.+40     	; 0x6e5c <vfprintf+0x1c8>
    6e34:	b7 01       	movw	r22, r14
    6e36:	80 e2       	ldi	r24, 0x20	; 32
    6e38:	90 e0       	ldi	r25, 0x00	; 0
    6e3a:	6e d1       	rcall	.+732    	; 0x7118 <fputc>
    6e3c:	3a 94       	dec	r3
    6e3e:	f5 cf       	rjmp	.-22     	; 0x6e2a <vfprintf+0x196>
    6e40:	f5 01       	movw	r30, r10
    6e42:	27 fc       	sbrc	r2, 7
    6e44:	85 91       	lpm	r24, Z+
    6e46:	27 fe       	sbrs	r2, 7
    6e48:	81 91       	ld	r24, Z+
    6e4a:	5f 01       	movw	r10, r30
    6e4c:	b7 01       	movw	r22, r14
    6e4e:	90 e0       	ldi	r25, 0x00	; 0
    6e50:	63 d1       	rcall	.+710    	; 0x7118 <fputc>
    6e52:	31 10       	cpse	r3, r1
    6e54:	3a 94       	dec	r3
    6e56:	f1 e0       	ldi	r31, 0x01	; 1
    6e58:	4f 1a       	sub	r4, r31
    6e5a:	51 08       	sbc	r5, r1
    6e5c:	41 14       	cp	r4, r1
    6e5e:	51 04       	cpc	r5, r1
    6e60:	79 f7       	brne	.-34     	; 0x6e40 <vfprintf+0x1ac>
    6e62:	de c0       	rjmp	.+444    	; 0x7020 <vfprintf+0x38c>
    6e64:	84 36       	cpi	r24, 0x64	; 100
    6e66:	11 f0       	breq	.+4      	; 0x6e6c <vfprintf+0x1d8>
    6e68:	89 36       	cpi	r24, 0x69	; 105
    6e6a:	31 f5       	brne	.+76     	; 0x6eb8 <vfprintf+0x224>
    6e6c:	f8 01       	movw	r30, r16
    6e6e:	27 ff       	sbrs	r18, 7
    6e70:	07 c0       	rjmp	.+14     	; 0x6e80 <vfprintf+0x1ec>
    6e72:	60 81       	ld	r22, Z
    6e74:	71 81       	ldd	r23, Z+1	; 0x01
    6e76:	82 81       	ldd	r24, Z+2	; 0x02
    6e78:	93 81       	ldd	r25, Z+3	; 0x03
    6e7a:	0c 5f       	subi	r16, 0xFC	; 252
    6e7c:	1f 4f       	sbci	r17, 0xFF	; 255
    6e7e:	08 c0       	rjmp	.+16     	; 0x6e90 <vfprintf+0x1fc>
    6e80:	60 81       	ld	r22, Z
    6e82:	71 81       	ldd	r23, Z+1	; 0x01
    6e84:	88 27       	eor	r24, r24
    6e86:	77 fd       	sbrc	r23, 7
    6e88:	80 95       	com	r24
    6e8a:	98 2f       	mov	r25, r24
    6e8c:	0e 5f       	subi	r16, 0xFE	; 254
    6e8e:	1f 4f       	sbci	r17, 0xFF	; 255
    6e90:	2f 76       	andi	r18, 0x6F	; 111
    6e92:	b2 2e       	mov	r11, r18
    6e94:	97 ff       	sbrs	r25, 7
    6e96:	09 c0       	rjmp	.+18     	; 0x6eaa <vfprintf+0x216>
    6e98:	90 95       	com	r25
    6e9a:	80 95       	com	r24
    6e9c:	70 95       	com	r23
    6e9e:	61 95       	neg	r22
    6ea0:	7f 4f       	sbci	r23, 0xFF	; 255
    6ea2:	8f 4f       	sbci	r24, 0xFF	; 255
    6ea4:	9f 4f       	sbci	r25, 0xFF	; 255
    6ea6:	20 68       	ori	r18, 0x80	; 128
    6ea8:	b2 2e       	mov	r11, r18
    6eaa:	2a e0       	ldi	r18, 0x0A	; 10
    6eac:	30 e0       	ldi	r19, 0x00	; 0
    6eae:	a4 01       	movw	r20, r8
    6eb0:	65 d1       	rcall	.+714    	; 0x717c <__ultoa_invert>
    6eb2:	a8 2e       	mov	r10, r24
    6eb4:	a8 18       	sub	r10, r8
    6eb6:	43 c0       	rjmp	.+134    	; 0x6f3e <vfprintf+0x2aa>
    6eb8:	85 37       	cpi	r24, 0x75	; 117
    6eba:	29 f4       	brne	.+10     	; 0x6ec6 <vfprintf+0x232>
    6ebc:	2f 7e       	andi	r18, 0xEF	; 239
    6ebe:	b2 2e       	mov	r11, r18
    6ec0:	2a e0       	ldi	r18, 0x0A	; 10
    6ec2:	30 e0       	ldi	r19, 0x00	; 0
    6ec4:	25 c0       	rjmp	.+74     	; 0x6f10 <vfprintf+0x27c>
    6ec6:	f2 2f       	mov	r31, r18
    6ec8:	f9 7f       	andi	r31, 0xF9	; 249
    6eca:	bf 2e       	mov	r11, r31
    6ecc:	8f 36       	cpi	r24, 0x6F	; 111
    6ece:	c1 f0       	breq	.+48     	; 0x6f00 <vfprintf+0x26c>
    6ed0:	18 f4       	brcc	.+6      	; 0x6ed8 <vfprintf+0x244>
    6ed2:	88 35       	cpi	r24, 0x58	; 88
    6ed4:	79 f0       	breq	.+30     	; 0x6ef4 <vfprintf+0x260>
    6ed6:	ad c0       	rjmp	.+346    	; 0x7032 <vfprintf+0x39e>
    6ed8:	80 37       	cpi	r24, 0x70	; 112
    6eda:	19 f0       	breq	.+6      	; 0x6ee2 <vfprintf+0x24e>
    6edc:	88 37       	cpi	r24, 0x78	; 120
    6ede:	21 f0       	breq	.+8      	; 0x6ee8 <vfprintf+0x254>
    6ee0:	a8 c0       	rjmp	.+336    	; 0x7032 <vfprintf+0x39e>
    6ee2:	2f 2f       	mov	r18, r31
    6ee4:	20 61       	ori	r18, 0x10	; 16
    6ee6:	b2 2e       	mov	r11, r18
    6ee8:	b4 fe       	sbrs	r11, 4
    6eea:	0d c0       	rjmp	.+26     	; 0x6f06 <vfprintf+0x272>
    6eec:	8b 2d       	mov	r24, r11
    6eee:	84 60       	ori	r24, 0x04	; 4
    6ef0:	b8 2e       	mov	r11, r24
    6ef2:	09 c0       	rjmp	.+18     	; 0x6f06 <vfprintf+0x272>
    6ef4:	24 ff       	sbrs	r18, 4
    6ef6:	0a c0       	rjmp	.+20     	; 0x6f0c <vfprintf+0x278>
    6ef8:	9f 2f       	mov	r25, r31
    6efa:	96 60       	ori	r25, 0x06	; 6
    6efc:	b9 2e       	mov	r11, r25
    6efe:	06 c0       	rjmp	.+12     	; 0x6f0c <vfprintf+0x278>
    6f00:	28 e0       	ldi	r18, 0x08	; 8
    6f02:	30 e0       	ldi	r19, 0x00	; 0
    6f04:	05 c0       	rjmp	.+10     	; 0x6f10 <vfprintf+0x27c>
    6f06:	20 e1       	ldi	r18, 0x10	; 16
    6f08:	30 e0       	ldi	r19, 0x00	; 0
    6f0a:	02 c0       	rjmp	.+4      	; 0x6f10 <vfprintf+0x27c>
    6f0c:	20 e1       	ldi	r18, 0x10	; 16
    6f0e:	32 e0       	ldi	r19, 0x02	; 2
    6f10:	f8 01       	movw	r30, r16
    6f12:	b7 fe       	sbrs	r11, 7
    6f14:	07 c0       	rjmp	.+14     	; 0x6f24 <vfprintf+0x290>
    6f16:	60 81       	ld	r22, Z
    6f18:	71 81       	ldd	r23, Z+1	; 0x01
    6f1a:	82 81       	ldd	r24, Z+2	; 0x02
    6f1c:	93 81       	ldd	r25, Z+3	; 0x03
    6f1e:	0c 5f       	subi	r16, 0xFC	; 252
    6f20:	1f 4f       	sbci	r17, 0xFF	; 255
    6f22:	06 c0       	rjmp	.+12     	; 0x6f30 <vfprintf+0x29c>
    6f24:	60 81       	ld	r22, Z
    6f26:	71 81       	ldd	r23, Z+1	; 0x01
    6f28:	80 e0       	ldi	r24, 0x00	; 0
    6f2a:	90 e0       	ldi	r25, 0x00	; 0
    6f2c:	0e 5f       	subi	r16, 0xFE	; 254
    6f2e:	1f 4f       	sbci	r17, 0xFF	; 255
    6f30:	a4 01       	movw	r20, r8
    6f32:	24 d1       	rcall	.+584    	; 0x717c <__ultoa_invert>
    6f34:	a8 2e       	mov	r10, r24
    6f36:	a8 18       	sub	r10, r8
    6f38:	fb 2d       	mov	r31, r11
    6f3a:	ff 77       	andi	r31, 0x7F	; 127
    6f3c:	bf 2e       	mov	r11, r31
    6f3e:	b6 fe       	sbrs	r11, 6
    6f40:	0b c0       	rjmp	.+22     	; 0x6f58 <vfprintf+0x2c4>
    6f42:	2b 2d       	mov	r18, r11
    6f44:	2e 7f       	andi	r18, 0xFE	; 254
    6f46:	a5 14       	cp	r10, r5
    6f48:	50 f4       	brcc	.+20     	; 0x6f5e <vfprintf+0x2ca>
    6f4a:	b4 fe       	sbrs	r11, 4
    6f4c:	0a c0       	rjmp	.+20     	; 0x6f62 <vfprintf+0x2ce>
    6f4e:	b2 fc       	sbrc	r11, 2
    6f50:	08 c0       	rjmp	.+16     	; 0x6f62 <vfprintf+0x2ce>
    6f52:	2b 2d       	mov	r18, r11
    6f54:	2e 7e       	andi	r18, 0xEE	; 238
    6f56:	05 c0       	rjmp	.+10     	; 0x6f62 <vfprintf+0x2ce>
    6f58:	7a 2c       	mov	r7, r10
    6f5a:	2b 2d       	mov	r18, r11
    6f5c:	03 c0       	rjmp	.+6      	; 0x6f64 <vfprintf+0x2d0>
    6f5e:	7a 2c       	mov	r7, r10
    6f60:	01 c0       	rjmp	.+2      	; 0x6f64 <vfprintf+0x2d0>
    6f62:	75 2c       	mov	r7, r5
    6f64:	24 ff       	sbrs	r18, 4
    6f66:	0d c0       	rjmp	.+26     	; 0x6f82 <vfprintf+0x2ee>
    6f68:	fe 01       	movw	r30, r28
    6f6a:	ea 0d       	add	r30, r10
    6f6c:	f1 1d       	adc	r31, r1
    6f6e:	80 81       	ld	r24, Z
    6f70:	80 33       	cpi	r24, 0x30	; 48
    6f72:	11 f4       	brne	.+4      	; 0x6f78 <vfprintf+0x2e4>
    6f74:	29 7e       	andi	r18, 0xE9	; 233
    6f76:	09 c0       	rjmp	.+18     	; 0x6f8a <vfprintf+0x2f6>
    6f78:	22 ff       	sbrs	r18, 2
    6f7a:	06 c0       	rjmp	.+12     	; 0x6f88 <vfprintf+0x2f4>
    6f7c:	73 94       	inc	r7
    6f7e:	73 94       	inc	r7
    6f80:	04 c0       	rjmp	.+8      	; 0x6f8a <vfprintf+0x2f6>
    6f82:	82 2f       	mov	r24, r18
    6f84:	86 78       	andi	r24, 0x86	; 134
    6f86:	09 f0       	breq	.+2      	; 0x6f8a <vfprintf+0x2f6>
    6f88:	73 94       	inc	r7
    6f8a:	23 fd       	sbrc	r18, 3
    6f8c:	12 c0       	rjmp	.+36     	; 0x6fb2 <vfprintf+0x31e>
    6f8e:	20 ff       	sbrs	r18, 0
    6f90:	06 c0       	rjmp	.+12     	; 0x6f9e <vfprintf+0x30a>
    6f92:	5a 2c       	mov	r5, r10
    6f94:	73 14       	cp	r7, r3
    6f96:	18 f4       	brcc	.+6      	; 0x6f9e <vfprintf+0x30a>
    6f98:	53 0c       	add	r5, r3
    6f9a:	57 18       	sub	r5, r7
    6f9c:	73 2c       	mov	r7, r3
    6f9e:	73 14       	cp	r7, r3
    6fa0:	60 f4       	brcc	.+24     	; 0x6fba <vfprintf+0x326>
    6fa2:	b7 01       	movw	r22, r14
    6fa4:	80 e2       	ldi	r24, 0x20	; 32
    6fa6:	90 e0       	ldi	r25, 0x00	; 0
    6fa8:	2c 87       	std	Y+12, r18	; 0x0c
    6faa:	b6 d0       	rcall	.+364    	; 0x7118 <fputc>
    6fac:	73 94       	inc	r7
    6fae:	2c 85       	ldd	r18, Y+12	; 0x0c
    6fb0:	f6 cf       	rjmp	.-20     	; 0x6f9e <vfprintf+0x30a>
    6fb2:	73 14       	cp	r7, r3
    6fb4:	10 f4       	brcc	.+4      	; 0x6fba <vfprintf+0x326>
    6fb6:	37 18       	sub	r3, r7
    6fb8:	01 c0       	rjmp	.+2      	; 0x6fbc <vfprintf+0x328>
    6fba:	31 2c       	mov	r3, r1
    6fbc:	24 ff       	sbrs	r18, 4
    6fbe:	11 c0       	rjmp	.+34     	; 0x6fe2 <vfprintf+0x34e>
    6fc0:	b7 01       	movw	r22, r14
    6fc2:	80 e3       	ldi	r24, 0x30	; 48
    6fc4:	90 e0       	ldi	r25, 0x00	; 0
    6fc6:	2c 87       	std	Y+12, r18	; 0x0c
    6fc8:	a7 d0       	rcall	.+334    	; 0x7118 <fputc>
    6fca:	2c 85       	ldd	r18, Y+12	; 0x0c
    6fcc:	22 ff       	sbrs	r18, 2
    6fce:	16 c0       	rjmp	.+44     	; 0x6ffc <vfprintf+0x368>
    6fd0:	21 ff       	sbrs	r18, 1
    6fd2:	03 c0       	rjmp	.+6      	; 0x6fda <vfprintf+0x346>
    6fd4:	88 e5       	ldi	r24, 0x58	; 88
    6fd6:	90 e0       	ldi	r25, 0x00	; 0
    6fd8:	02 c0       	rjmp	.+4      	; 0x6fde <vfprintf+0x34a>
    6fda:	88 e7       	ldi	r24, 0x78	; 120
    6fdc:	90 e0       	ldi	r25, 0x00	; 0
    6fde:	b7 01       	movw	r22, r14
    6fe0:	0c c0       	rjmp	.+24     	; 0x6ffa <vfprintf+0x366>
    6fe2:	82 2f       	mov	r24, r18
    6fe4:	86 78       	andi	r24, 0x86	; 134
    6fe6:	51 f0       	breq	.+20     	; 0x6ffc <vfprintf+0x368>
    6fe8:	21 fd       	sbrc	r18, 1
    6fea:	02 c0       	rjmp	.+4      	; 0x6ff0 <vfprintf+0x35c>
    6fec:	80 e2       	ldi	r24, 0x20	; 32
    6fee:	01 c0       	rjmp	.+2      	; 0x6ff2 <vfprintf+0x35e>
    6ff0:	8b e2       	ldi	r24, 0x2B	; 43
    6ff2:	27 fd       	sbrc	r18, 7
    6ff4:	8d e2       	ldi	r24, 0x2D	; 45
    6ff6:	b7 01       	movw	r22, r14
    6ff8:	90 e0       	ldi	r25, 0x00	; 0
    6ffa:	8e d0       	rcall	.+284    	; 0x7118 <fputc>
    6ffc:	a5 14       	cp	r10, r5
    6ffe:	30 f4       	brcc	.+12     	; 0x700c <vfprintf+0x378>
    7000:	b7 01       	movw	r22, r14
    7002:	80 e3       	ldi	r24, 0x30	; 48
    7004:	90 e0       	ldi	r25, 0x00	; 0
    7006:	88 d0       	rcall	.+272    	; 0x7118 <fputc>
    7008:	5a 94       	dec	r5
    700a:	f8 cf       	rjmp	.-16     	; 0x6ffc <vfprintf+0x368>
    700c:	aa 94       	dec	r10
    700e:	f4 01       	movw	r30, r8
    7010:	ea 0d       	add	r30, r10
    7012:	f1 1d       	adc	r31, r1
    7014:	80 81       	ld	r24, Z
    7016:	b7 01       	movw	r22, r14
    7018:	90 e0       	ldi	r25, 0x00	; 0
    701a:	7e d0       	rcall	.+252    	; 0x7118 <fputc>
    701c:	a1 10       	cpse	r10, r1
    701e:	f6 cf       	rjmp	.-20     	; 0x700c <vfprintf+0x378>
    7020:	33 20       	and	r3, r3
    7022:	09 f4       	brne	.+2      	; 0x7026 <vfprintf+0x392>
    7024:	5d ce       	rjmp	.-838    	; 0x6ce0 <vfprintf+0x4c>
    7026:	b7 01       	movw	r22, r14
    7028:	80 e2       	ldi	r24, 0x20	; 32
    702a:	90 e0       	ldi	r25, 0x00	; 0
    702c:	75 d0       	rcall	.+234    	; 0x7118 <fputc>
    702e:	3a 94       	dec	r3
    7030:	f7 cf       	rjmp	.-18     	; 0x7020 <vfprintf+0x38c>
    7032:	f7 01       	movw	r30, r14
    7034:	86 81       	ldd	r24, Z+6	; 0x06
    7036:	97 81       	ldd	r25, Z+7	; 0x07
    7038:	02 c0       	rjmp	.+4      	; 0x703e <vfprintf+0x3aa>
    703a:	8f ef       	ldi	r24, 0xFF	; 255
    703c:	9f ef       	ldi	r25, 0xFF	; 255
    703e:	2c 96       	adiw	r28, 0x0c	; 12
    7040:	0f b6       	in	r0, 0x3f	; 63
    7042:	f8 94       	cli
    7044:	de bf       	out	0x3e, r29	; 62
    7046:	0f be       	out	0x3f, r0	; 63
    7048:	cd bf       	out	0x3d, r28	; 61
    704a:	df 91       	pop	r29
    704c:	cf 91       	pop	r28
    704e:	1f 91       	pop	r17
    7050:	0f 91       	pop	r16
    7052:	ff 90       	pop	r15
    7054:	ef 90       	pop	r14
    7056:	df 90       	pop	r13
    7058:	cf 90       	pop	r12
    705a:	bf 90       	pop	r11
    705c:	af 90       	pop	r10
    705e:	9f 90       	pop	r9
    7060:	8f 90       	pop	r8
    7062:	7f 90       	pop	r7
    7064:	6f 90       	pop	r6
    7066:	5f 90       	pop	r5
    7068:	4f 90       	pop	r4
    706a:	3f 90       	pop	r3
    706c:	2f 90       	pop	r2
    706e:	08 95       	ret

00007070 <__eerd_block_m2561>:
    7070:	dc 01       	movw	r26, r24
    7072:	cb 01       	movw	r24, r22

00007074 <__eerd_blraw_m2561>:
    7074:	fc 01       	movw	r30, r24
    7076:	f9 99       	sbic	0x1f, 1	; 31
    7078:	fe cf       	rjmp	.-4      	; 0x7076 <__eerd_blraw_m2561+0x2>
    707a:	06 c0       	rjmp	.+12     	; 0x7088 <__eerd_blraw_m2561+0x14>
    707c:	f2 bd       	out	0x22, r31	; 34
    707e:	e1 bd       	out	0x21, r30	; 33
    7080:	f8 9a       	sbi	0x1f, 0	; 31
    7082:	31 96       	adiw	r30, 0x01	; 1
    7084:	00 b4       	in	r0, 0x20	; 32
    7086:	0d 92       	st	X+, r0
    7088:	41 50       	subi	r20, 0x01	; 1
    708a:	50 40       	sbci	r21, 0x00	; 0
    708c:	b8 f7       	brcc	.-18     	; 0x707c <__eerd_blraw_m2561+0x8>
    708e:	08 95       	ret

00007090 <__eerd_byte_m2561>:
    7090:	f9 99       	sbic	0x1f, 1	; 31
    7092:	fe cf       	rjmp	.-4      	; 0x7090 <__eerd_byte_m2561>
    7094:	92 bd       	out	0x22, r25	; 34
    7096:	81 bd       	out	0x21, r24	; 33
    7098:	f8 9a       	sbi	0x1f, 0	; 31
    709a:	99 27       	eor	r25, r25
    709c:	80 b5       	in	r24, 0x20	; 32
    709e:	08 95       	ret

000070a0 <__eerd_word_m2561>:
    70a0:	a8 e1       	ldi	r26, 0x18	; 24
    70a2:	b0 e0       	ldi	r27, 0x00	; 0
    70a4:	42 e0       	ldi	r20, 0x02	; 2
    70a6:	50 e0       	ldi	r21, 0x00	; 0
    70a8:	e5 cf       	rjmp	.-54     	; 0x7074 <__eerd_blraw_m2561>

000070aa <__eewr_byte_m2561>:
    70aa:	26 2f       	mov	r18, r22

000070ac <__eewr_r18_m2561>:
    70ac:	f9 99       	sbic	0x1f, 1	; 31
    70ae:	fe cf       	rjmp	.-4      	; 0x70ac <__eewr_r18_m2561>
    70b0:	1f ba       	out	0x1f, r1	; 31
    70b2:	92 bd       	out	0x22, r25	; 34
    70b4:	81 bd       	out	0x21, r24	; 33
    70b6:	20 bd       	out	0x20, r18	; 32
    70b8:	0f b6       	in	r0, 0x3f	; 63
    70ba:	f8 94       	cli
    70bc:	fa 9a       	sbi	0x1f, 2	; 31
    70be:	f9 9a       	sbi	0x1f, 1	; 31
    70c0:	0f be       	out	0x3f, r0	; 63
    70c2:	01 96       	adiw	r24, 0x01	; 1
    70c4:	08 95       	ret

000070c6 <__eewr_word_m2561>:
    70c6:	f1 df       	rcall	.-30     	; 0x70aa <__eewr_byte_m2561>
    70c8:	27 2f       	mov	r18, r23
    70ca:	f0 cf       	rjmp	.-32     	; 0x70ac <__eewr_r18_m2561>

000070cc <strnlen_P>:
    70cc:	fc 01       	movw	r30, r24
    70ce:	05 90       	lpm	r0, Z+
    70d0:	61 50       	subi	r22, 0x01	; 1
    70d2:	70 40       	sbci	r23, 0x00	; 0
    70d4:	01 10       	cpse	r0, r1
    70d6:	d8 f7       	brcc	.-10     	; 0x70ce <strnlen_P+0x2>
    70d8:	80 95       	com	r24
    70da:	90 95       	com	r25
    70dc:	8e 0f       	add	r24, r30
    70de:	9f 1f       	adc	r25, r31
    70e0:	08 95       	ret

000070e2 <strnlen>:
    70e2:	fc 01       	movw	r30, r24
    70e4:	61 50       	subi	r22, 0x01	; 1
    70e6:	70 40       	sbci	r23, 0x00	; 0
    70e8:	01 90       	ld	r0, Z+
    70ea:	01 10       	cpse	r0, r1
    70ec:	d8 f7       	brcc	.-10     	; 0x70e4 <strnlen+0x2>
    70ee:	80 95       	com	r24
    70f0:	90 95       	com	r25
    70f2:	8e 0f       	add	r24, r30
    70f4:	9f 1f       	adc	r25, r31
    70f6:	08 95       	ret

000070f8 <strrev>:
    70f8:	dc 01       	movw	r26, r24
    70fa:	fc 01       	movw	r30, r24
    70fc:	67 2f       	mov	r22, r23
    70fe:	71 91       	ld	r23, Z+
    7100:	77 23       	and	r23, r23
    7102:	e1 f7       	brne	.-8      	; 0x70fc <strrev+0x4>
    7104:	32 97       	sbiw	r30, 0x02	; 2
    7106:	04 c0       	rjmp	.+8      	; 0x7110 <strrev+0x18>
    7108:	7c 91       	ld	r23, X
    710a:	6d 93       	st	X+, r22
    710c:	70 83       	st	Z, r23
    710e:	62 91       	ld	r22, -Z
    7110:	ae 17       	cp	r26, r30
    7112:	bf 07       	cpc	r27, r31
    7114:	c8 f3       	brcs	.-14     	; 0x7108 <strrev+0x10>
    7116:	08 95       	ret

00007118 <fputc>:
    7118:	0f 93       	push	r16
    711a:	1f 93       	push	r17
    711c:	cf 93       	push	r28
    711e:	df 93       	push	r29
    7120:	18 2f       	mov	r17, r24
    7122:	09 2f       	mov	r16, r25
    7124:	eb 01       	movw	r28, r22
    7126:	8b 81       	ldd	r24, Y+3	; 0x03
    7128:	81 fd       	sbrc	r24, 1
    712a:	03 c0       	rjmp	.+6      	; 0x7132 <fputc+0x1a>
    712c:	8f ef       	ldi	r24, 0xFF	; 255
    712e:	9f ef       	ldi	r25, 0xFF	; 255
    7130:	20 c0       	rjmp	.+64     	; 0x7172 <fputc+0x5a>
    7132:	82 ff       	sbrs	r24, 2
    7134:	10 c0       	rjmp	.+32     	; 0x7156 <fputc+0x3e>
    7136:	4e 81       	ldd	r20, Y+6	; 0x06
    7138:	5f 81       	ldd	r21, Y+7	; 0x07
    713a:	2c 81       	ldd	r18, Y+4	; 0x04
    713c:	3d 81       	ldd	r19, Y+5	; 0x05
    713e:	42 17       	cp	r20, r18
    7140:	53 07       	cpc	r21, r19
    7142:	7c f4       	brge	.+30     	; 0x7162 <fputc+0x4a>
    7144:	e8 81       	ld	r30, Y
    7146:	f9 81       	ldd	r31, Y+1	; 0x01
    7148:	9f 01       	movw	r18, r30
    714a:	2f 5f       	subi	r18, 0xFF	; 255
    714c:	3f 4f       	sbci	r19, 0xFF	; 255
    714e:	39 83       	std	Y+1, r19	; 0x01
    7150:	28 83       	st	Y, r18
    7152:	10 83       	st	Z, r17
    7154:	06 c0       	rjmp	.+12     	; 0x7162 <fputc+0x4a>
    7156:	e8 85       	ldd	r30, Y+8	; 0x08
    7158:	f9 85       	ldd	r31, Y+9	; 0x09
    715a:	81 2f       	mov	r24, r17
    715c:	19 95       	eicall
    715e:	89 2b       	or	r24, r25
    7160:	29 f7       	brne	.-54     	; 0x712c <fputc+0x14>
    7162:	2e 81       	ldd	r18, Y+6	; 0x06
    7164:	3f 81       	ldd	r19, Y+7	; 0x07
    7166:	2f 5f       	subi	r18, 0xFF	; 255
    7168:	3f 4f       	sbci	r19, 0xFF	; 255
    716a:	3f 83       	std	Y+7, r19	; 0x07
    716c:	2e 83       	std	Y+6, r18	; 0x06
    716e:	81 2f       	mov	r24, r17
    7170:	90 2f       	mov	r25, r16
    7172:	df 91       	pop	r29
    7174:	cf 91       	pop	r28
    7176:	1f 91       	pop	r17
    7178:	0f 91       	pop	r16
    717a:	08 95       	ret

0000717c <__ultoa_invert>:
    717c:	fa 01       	movw	r30, r20
    717e:	aa 27       	eor	r26, r26
    7180:	28 30       	cpi	r18, 0x08	; 8
    7182:	51 f1       	breq	.+84     	; 0x71d8 <__ultoa_invert+0x5c>
    7184:	20 31       	cpi	r18, 0x10	; 16
    7186:	81 f1       	breq	.+96     	; 0x71e8 <__ultoa_invert+0x6c>
    7188:	e8 94       	clt
    718a:	6f 93       	push	r22
    718c:	6e 7f       	andi	r22, 0xFE	; 254
    718e:	6e 5f       	subi	r22, 0xFE	; 254
    7190:	7f 4f       	sbci	r23, 0xFF	; 255
    7192:	8f 4f       	sbci	r24, 0xFF	; 255
    7194:	9f 4f       	sbci	r25, 0xFF	; 255
    7196:	af 4f       	sbci	r26, 0xFF	; 255
    7198:	b1 e0       	ldi	r27, 0x01	; 1
    719a:	3e d0       	rcall	.+124    	; 0x7218 <__ultoa_invert+0x9c>
    719c:	b4 e0       	ldi	r27, 0x04	; 4
    719e:	3c d0       	rcall	.+120    	; 0x7218 <__ultoa_invert+0x9c>
    71a0:	67 0f       	add	r22, r23
    71a2:	78 1f       	adc	r23, r24
    71a4:	89 1f       	adc	r24, r25
    71a6:	9a 1f       	adc	r25, r26
    71a8:	a1 1d       	adc	r26, r1
    71aa:	68 0f       	add	r22, r24
    71ac:	79 1f       	adc	r23, r25
    71ae:	8a 1f       	adc	r24, r26
    71b0:	91 1d       	adc	r25, r1
    71b2:	a1 1d       	adc	r26, r1
    71b4:	6a 0f       	add	r22, r26
    71b6:	71 1d       	adc	r23, r1
    71b8:	81 1d       	adc	r24, r1
    71ba:	91 1d       	adc	r25, r1
    71bc:	a1 1d       	adc	r26, r1
    71be:	20 d0       	rcall	.+64     	; 0x7200 <__ultoa_invert+0x84>
    71c0:	09 f4       	brne	.+2      	; 0x71c4 <__ultoa_invert+0x48>
    71c2:	68 94       	set
    71c4:	3f 91       	pop	r19
    71c6:	2a e0       	ldi	r18, 0x0A	; 10
    71c8:	26 9f       	mul	r18, r22
    71ca:	11 24       	eor	r1, r1
    71cc:	30 19       	sub	r19, r0
    71ce:	30 5d       	subi	r19, 0xD0	; 208
    71d0:	31 93       	st	Z+, r19
    71d2:	de f6       	brtc	.-74     	; 0x718a <__ultoa_invert+0xe>
    71d4:	cf 01       	movw	r24, r30
    71d6:	08 95       	ret
    71d8:	46 2f       	mov	r20, r22
    71da:	47 70       	andi	r20, 0x07	; 7
    71dc:	40 5d       	subi	r20, 0xD0	; 208
    71de:	41 93       	st	Z+, r20
    71e0:	b3 e0       	ldi	r27, 0x03	; 3
    71e2:	0f d0       	rcall	.+30     	; 0x7202 <__ultoa_invert+0x86>
    71e4:	c9 f7       	brne	.-14     	; 0x71d8 <__ultoa_invert+0x5c>
    71e6:	f6 cf       	rjmp	.-20     	; 0x71d4 <__ultoa_invert+0x58>
    71e8:	46 2f       	mov	r20, r22
    71ea:	4f 70       	andi	r20, 0x0F	; 15
    71ec:	40 5d       	subi	r20, 0xD0	; 208
    71ee:	4a 33       	cpi	r20, 0x3A	; 58
    71f0:	18 f0       	brcs	.+6      	; 0x71f8 <__ultoa_invert+0x7c>
    71f2:	49 5d       	subi	r20, 0xD9	; 217
    71f4:	31 fd       	sbrc	r19, 1
    71f6:	40 52       	subi	r20, 0x20	; 32
    71f8:	41 93       	st	Z+, r20
    71fa:	02 d0       	rcall	.+4      	; 0x7200 <__ultoa_invert+0x84>
    71fc:	a9 f7       	brne	.-22     	; 0x71e8 <__ultoa_invert+0x6c>
    71fe:	ea cf       	rjmp	.-44     	; 0x71d4 <__ultoa_invert+0x58>
    7200:	b4 e0       	ldi	r27, 0x04	; 4
    7202:	a6 95       	lsr	r26
    7204:	97 95       	ror	r25
    7206:	87 95       	ror	r24
    7208:	77 95       	ror	r23
    720a:	67 95       	ror	r22
    720c:	ba 95       	dec	r27
    720e:	c9 f7       	brne	.-14     	; 0x7202 <__ultoa_invert+0x86>
    7210:	00 97       	sbiw	r24, 0x00	; 0
    7212:	61 05       	cpc	r22, r1
    7214:	71 05       	cpc	r23, r1
    7216:	08 95       	ret
    7218:	9b 01       	movw	r18, r22
    721a:	ac 01       	movw	r20, r24
    721c:	0a 2e       	mov	r0, r26
    721e:	06 94       	lsr	r0
    7220:	57 95       	ror	r21
    7222:	47 95       	ror	r20
    7224:	37 95       	ror	r19
    7226:	27 95       	ror	r18
    7228:	ba 95       	dec	r27
    722a:	c9 f7       	brne	.-14     	; 0x721e <__ultoa_invert+0xa2>
    722c:	62 0f       	add	r22, r18
    722e:	73 1f       	adc	r23, r19
    7230:	84 1f       	adc	r24, r20
    7232:	95 1f       	adc	r25, r21
    7234:	a0 1d       	adc	r26, r0
    7236:	08 95       	ret

00007238 <__muluhisi3>:
    7238:	0f d0       	rcall	.+30     	; 0x7258 <__umulhisi3>
    723a:	a5 9f       	mul	r26, r21
    723c:	90 0d       	add	r25, r0
    723e:	b4 9f       	mul	r27, r20
    7240:	90 0d       	add	r25, r0
    7242:	a4 9f       	mul	r26, r20
    7244:	80 0d       	add	r24, r0
    7246:	91 1d       	adc	r25, r1
    7248:	11 24       	eor	r1, r1
    724a:	08 95       	ret

0000724c <__mulshisi3>:
    724c:	b7 ff       	sbrs	r27, 7
    724e:	f4 cf       	rjmp	.-24     	; 0x7238 <__muluhisi3>

00007250 <__mulohisi3>:
    7250:	f3 df       	rcall	.-26     	; 0x7238 <__muluhisi3>
    7252:	82 1b       	sub	r24, r18
    7254:	93 0b       	sbc	r25, r19
    7256:	08 95       	ret

00007258 <__umulhisi3>:
    7258:	a2 9f       	mul	r26, r18
    725a:	b0 01       	movw	r22, r0
    725c:	b3 9f       	mul	r27, r19
    725e:	c0 01       	movw	r24, r0
    7260:	a3 9f       	mul	r26, r19
    7262:	70 0d       	add	r23, r0
    7264:	81 1d       	adc	r24, r1
    7266:	11 24       	eor	r1, r1
    7268:	91 1d       	adc	r25, r1
    726a:	b2 9f       	mul	r27, r18
    726c:	70 0d       	add	r23, r0
    726e:	81 1d       	adc	r24, r1
    7270:	11 24       	eor	r1, r1
    7272:	91 1d       	adc	r25, r1
    7274:	08 95       	ret

00007276 <_exit>:
    7276:	f8 94       	cli

00007278 <__stop_program>:
    7278:	ff cf       	rjmp	.-2      	; 0x7278 <__stop_program>
